(lp0
(lp1
S'_4483111536'
p2
a(lp3
(lp4
I1
aI0
aI1
aI1
aI1
aI1
aI1
aI0
aI1
aI11700000
ag2
aa(lp5
I1
aI1
aI1
aI1
aI0
aI1
aI0
aI0
aI1
aI10800000
aS'_4483111536'
p6
aa(lp7
I1
aI1
aI1
aI1
aI0
aI0
aI0
aI0
aI0
aI21300000
aS'_4483111536'
p8
aa(lp9
I1
aI0
aI1
aI1
aI0
aI0
aI1
aI0
aI0
aI21300000
aS'_4483111536'
p10
aa(lp11
I1
aI1
aI1
aI1
aI0
aI1
aI1
aI0
aI0
aI17700000
aS'_4483111536'
p12
aaaa(lp13
S'_4482992536'
p14
a(lp15
(lp16
I1
aI0
aI0
aI0
aI1
aI1
aI0
aI1
aI0
aI13200000
ag14
aa(lp17
I1
aI1
aI0
aI0
aI1
aI0
aI1
aI0
aI0
aI9300000
aS'_4482992536'
p18
aa(lp19
I1
aI0
aI0
aI0
aI1
aI0
aI0
aI0
aI0
aI12000000
aS'_4482992536'
p20
aa(lp21
I1
aI0
aI0
aI0
aI1
aI1
aI0
aI0
aI1
aI12000000
aS'_4482992536'
p22
aa(lp23
I1
aI0
aI1
aI0
aI1
aI0
aI0
aI1
aI0
aI24000000
aS'_4482992536'
p24
aaaa(lp25
S'_4482992248'
p26
a(lp27
(lp28
I1
aI1
aI0
aI1
aI0
aI1
aI1
aI1
aI0
aI9600000
ag26
aa(lp29
I1
aI0
aI0
aI0
aI0
aI0
aI0
aI1
aI0
aI14100000
aS'_4482992248'
p30
aa(lp31
I1
aI0
aI0
aI1
aI0
aI1
aI0
aI1
aI0
aI12600000
aS'_4482992248'
p32
aa(lp33
I1
aI0
aI0
aI0
aI0
aI1
aI1
aI1
aI0
aI11400000
aS'_4482992248'
p34
aa(lp35
I1
aI0
aI1
aI0
aI0
aI1
aI0
aI1
aI0
aI21300000
aS'_4482992248'
p36
aaaa(lp37
S'_4483112184'
p38
a(lp39
(lp40
I1
aI1
aI0
aI0
aI0
aI0
aI0
aI0
aI1
aI9900000
ag38
aa(lp41
I1
aI1
aI0
aI0
aI0
aI0
aI1
aI0
aI0
aI9000000
aS'_4483112184'
p42
aa(lp43
I1
aI1
aI0
aI0
aI0
aI0
aI1
aI0
aI1
aI9600000
aS'_4483112184'
p44
aa(lp45
I1
aI1
aI0
aI0
aI1
aI1
aI1
aI0
aI1
aI9000000
aS'_4483112184'
p46
aa(lp47
I1
aI1
aI0
aI1
aI1
aI0
aI1
aI0
aI1
aI9900000
aS'_4483112184'
p48
aaaa(lp49
S'_4482992680'
p50
a(lp51
(lp52
I1
aI0
aI0
aI1
aI1
aI0
aI1
aI0
aI0
aI11700000
ag50
aa(lp53
I1
aI0
aI1
aI0
aI1
aI0
aI1
aI0
aI0
aI19500000
aS'_4482992680'
p54
aa(lp55
I1
aI0
aI1
aI1
aI1
aI0
aI0
aI0
aI0
aI23700000
aS'_4482992680'
p56
aa(lp57
I1
aI0
aI1
aI0
aI1
aI0
aI0
aI0
aI1
aI13800000
aS'_4482992680'
p58
aa(lp59
I1
aI0
aI1
aI1
aI1
aI0
aI0
aI0
aI1
aI12000000
aS'_4482992680'
p60
aaaa(lp61
S'_4482991096'
p62
a(lp63
(lp64
I1
aI1
aI1
aI1
aI1
aI0
aI0
aI0
aI0
aI22200000
ag62
aa(lp65
I1
aI0
aI0
aI0
aI1
aI0
aI0
aI0
aI1
aI12600000
aS'_4482991096'
p66
aa(lp67
I1
aI1
aI0
aI1
aI1
aI0
aI0
aI0
aI1
aI10500000
aS'_4482991096'
p68
aa(lp69
I1
aI1
aI0
aI1
aI0
aI0
aI0
aI0
aI0
aI10500000
aS'_4482991096'
p70
aa(lp71
I1
aI0
aI0
aI1
aI0
aI0
aI0
aI0
aI1
aI12000000
aS'_4482991096'
p72
aaaa(lp73
S'_4483112832'
p74
a(lp75
(lp76
I1
aI1
aI1
aI1
aI1
aI0
aI1
aI0
aI0
aI20700000
ag74
aa(lp77
I1
aI1
aI1
aI0
aI1
aI0
aI1
aI0
aI0
aI18900000
aS'_4483112832'
p78
aa(lp79
I1
aI1
aI1
aI1
aI0
aI1
aI1
aI1
aI0
aI18600000
aS'_4483112832'
p80
aa(lp81
I1
aI1
aI0
aI1
aI0
aI1
aI1
aI0
aI0
aI9000000
aS'_4483112832'
p82
aa(lp83
I1
aI1
aI0
aI0
aI1
aI1
aI1
aI0
aI0
aI8400000
aS'_4483112832'
p84
aaaa(lp85
S'_4482990232'
p86
a(lp87
(lp88
I1
aI0
aI1
aI1
aI1
aI1
aI0
aI0
aI0
aI20400000
ag86
aa(lp89
I1
aI0
aI1
aI1
aI1
aI1
aI1
aI0
aI0
aI18900000
aS'_4482990232'
p90
aa(lp91
I1
aI0
aI1
aI1
aI1
aI0
aI1
aI1
aI0
aI24300000
aS'_4482990232'
p92
aa(lp93
I1
aI0
aI1
aI1
aI0
aI1
aI1
aI1
aI0
aI19800000
aS'_4482990232'
p94
aaaa(lp95
S'_4483110384'
p96
a(lp97
(lp98
I1
aI0
aI0
aI1
aI0
aI0
aI1
aI0
aI1
aI11400000
ag96
aa(lp99
I1
aI0
aI0
aI0
aI0
aI0
aI0
aI0
aI1
aI12300000
aS'_4483110384'
p100
aa(lp101
I1
aI1
aI0
aI1
aI0
aI1
aI1
aI0
aI1
aI8700000
aS'_4483110384'
p102
aa(lp103
I1
aI0
aI1
aI1
aI0
aI1
aI1
aI0
aI1
aI12300000
aS'_4483110384'
p104
aa(lp105
I1
aI0
aI1
aI1
aI0
aI0
aI0
aI0
aI1
aI12900000
aS'_4483110384'
p106
aaaa(lp107
S'_4483110600'
p108
a(lp109
(lp110
I1
aI1
aI1
aI0
aI0
aI0
aI0
aI0
aI0
aI19500000
ag108
aa(lp111
I1
aI1
aI0
aI0
aI0
aI0
aI0
aI0
aI0
aI9900000
aS'_4483110600'
p112
aa(lp113
I1
aI1
aI1
aI0
aI1
aI0
aI0
aI0
aI0
aI19500000
aS'_4483110600'
p114
aa(lp115
I1
aI1
aI1
aI0
aI0
aI0
aI1
aI0
aI1
aI10200000
aS'_4483110600'
p116
aaaa(lp117
S'_4483111464'
p118
a(lp119
(lp120
I1
aI1
aI1
aI1
aI1
aI0
aI0
aI0
aI1
aI10500000
ag118
aa(lp121
I1
aI1
aI1
aI1
aI1
aI1
aI0
aI0
aI1
aI11700000
aS'_4483111464'
p122
aa(lp123
I1
aI1
aI1
aI0
aI1
aI1
aI0
aI0
aI1
aI10800000
aS'_4483111464'
p124
aa(lp125
I1
aI0
aI1
aI1
aI1
aI0
aI1
aI0
aI1
aI11100000
aS'_4483111464'
p126
aaaa(lp127
S'_4483110528'
p128
a(lp129
(lp130
I1
aI0
aI1
aI1
aI0
aI1
aI0
aI0
aI1
aI10200000
ag128
aa(lp131
I1
aI0
aI0
aI0
aI0
aI1
aI0
aI0
aI1
aI10500000
aS'_4483110528'
p132
aa(lp133
I1
aI1
aI0
aI1
aI0
aI1
aI0
aI0
aI1
aI9300000
aS'_4483110528'
p134
aa(lp135
I1
aI0
aI1
aI0
aI1
aI1
aI0
aI0
aI1
aI13500000
aS'_4483110528'
p136
aa(lp137
I1
aI1
aI1
aI0
aI0
aI1
aI0
aI0
aI0
aI17100000
aS'_4483110528'
p138
aaaa(lp139
S'_4482992896'
p140
a(lp141
(lp142
I1
aI0
aI1
aI1
aI0
aI0
aI1
aI1
aI0
aI23100000
ag140
aa(lp143
I1
aI0
aI1
aI1
aI1
aI1
aI1
aI1
aI0
aI20700000
aS'_4482992896'
p144
aa(lp145
I1
aI0
aI0
aI1
aI1
aI0
aI1
aI1
aI0
aI13800000
aS'_4482992896'
p146
aa(lp147
I1
aI0
aI0
aI1
aI0
aI1
aI1
aI1
aI0
aI11400000
aS'_4482992896'
p148
aa(lp149
I1
aI0
aI0
aI0
aI1
aI1
aI1
aI1
aI0
aI12300000
aS'_4482992896'
p150
aaaa(lp151
S'_4482991528'
p152
a(lp153
(lp154
I1
aI1
aI1
aI1
aI1
aI0
aI0
aI1
aI0
aI23400000
ag152
aa(lp155
I1
aI1
aI1
aI1
aI0
aI0
aI0
aI1
aI0
aI21600000
aS'_4482991528'
p156
aa(lp157
I1
aI1
aI0
aI1
aI0
aI0
aI0
aI1
aI0
aI11100000
aS'_4482991528'
p158
aa(lp159
I1
aI1
aI0
aI1
aI0
aI1
aI0
aI1
aI0
aI9900000
aS'_4482991528'
p160
aa(lp161
I1
aI0
aI1
aI1
aI0
aI0
aI0
aI1
aI0
aI24600000
aS'_4482991528'
p162
aaaa(lp163
S'_4483110888'
p164
a(lp165
(lp166
I1
aI1
aI1
aI0
aI1
aI0
aI1
aI1
aI0
aI21900000
ag164
aa(lp167
I1
aI0
aI1
aI0
aI0
aI1
aI1
aI0
aI0
aI16800000
aS'_4483110888'
p168
aa(lp169
I1
aI1
aI1
aI0
aI0
aI0
aI1
aI1
aI0
aI21600000
aS'_4483110888'
p170
aa(lp171
I1
aI1
aI1
aI0
aI0
aI1
aI0
aI1
aI0
aI19800000
aS'_4483110888'
p172
aa(lp173
I1
aI1
aI0
aI0
aI0
aI0
aI1
aI1
aI0
aI10200000
aS'_4483110888'
p174
aaaa(lp175
S'_4482991456'
p176
a(lp177
(lp178
I1
aI1
aI0
aI0
aI1
aI1
aI0
aI1
aI0
aI10200000
ag176
aa(lp179
I1
aI1
aI0
aI0
aI1
aI0
aI1
aI1
aI0
aI10500000
aS'_4482991456'
p180
aa(lp181
I1
aI1
aI0
aI0
aI0
aI0
aI0
aI1
aI0
aI11100000
aS'_4482991456'
p182
aa(lp183
I1
aI0
aI0
aI1
aI1
aI0
aI0
aI1
aI0
aI14700000
aS'_4482991456'
p184
aa(lp185
I1
aI1
aI0
aI1
aI1
aI0
aI1
aI0
aI0
aI9900000
aS'_4482991456'
p186
aaaa.