(lp0
(lp1
S'_4482954376'
p2
a(lp3
(lp4
I1
aI1
aI1
aI1
aI1
aI1
aI0
aI1
aI0
aI21000000
ag2
aa(lp5
I1
aI1
aI1
aI0
aI1
aI1
aI0
aI1
aI0
aI20700000
aS'_4482954376'
p6
aa(lp7
I1
aI0
aI1
aI1
aI1
aI1
aI0
aI1
aI0
aI21900000
aS'_4482954376'
p8
aa(lp9
I1
aI0
aI1
aI1
aI1
aI1
aI1
aI1
aI0
aI20700000
aS'_4482954376'
p10
aa(lp11
I1
aI1
aI1
aI0
aI1
aI1
aI1
aI1
aI0
aI19200000
aS'_4482954376'
p12
aa(lp13
I1
aI0
aI1
aI0
aI1
aI1
aI0
aI1
aI0
aI21900000
aS'_4482954376'
p14
aa(lp15
I1
aI1
aI1
aI0
aI0
aI1
aI0
aI1
aI0
aI19800000
aS'_4482954376'
p16
aaaa(lp17
S'_4483922400'
p18
a(lp19
(lp20
I1
aI1
aI1
aI0
aI1
aI1
aI1
aI0
aI1
aI15000000
ag18
aa(lp21
I1
aI0
aI1
aI0
aI1
aI1
aI1
aI0
aI1
aI12300000
aS'_4483922400'
p22
aa(lp23
I1
aI1
aI1
aI0
aI1
aI0
aI1
aI0
aI1
aI11700000
aS'_4483922400'
p24
aa(lp25
I1
aI0
aI1
aI0
aI0
aI0
aI1
aI0
aI1
aI13500000
aS'_4483922400'
p26
aa(lp27
I1
aI0
aI1
aI1
aI1
aI0
aI1
aI0
aI1
aI11100000
aS'_4483922400'
p28
aa(lp29
I1
aI1
aI0
aI0
aI1
aI1
aI1
aI0
aI0
aI8400000
aS'_4483922400'
p30
aa(lp31
I1
aI0
aI1
aI0
aI1
aI0
aI1
aI0
aI1
aI11100000
aS'_4483922400'
p32
aaaa(lp33
S'_4483922472'
p34
a(lp35
(lp36
I1
aI1
aI1
aI0
aI0
aI0
aI1
aI0
aI1
aI10200000
ag34
aa(lp37
I1
aI1
aI0
aI1
aI1
aI0
aI1
aI0
aI0
aI9900000
aS'_4483922472'
p38
aa(lp39
I1
aI0
aI1
aI0
aI0
aI0
aI0
aI0
aI1
aI12000000
aS'_4483922472'
p40
aa(lp41
I1
aI1
aI1
aI0
aI0
aI0
aI0
aI0
aI0
aI19500000
aS'_4483922472'
p42
aa(lp43
I1
aI1
aI0
aI0
aI0
aI0
aI0
aI1
aI0
aI11100000
aS'_4483922472'
p44
aa(lp45
I1
aI1
aI1
aI0
aI1
aI0
aI1
aI0
aI0
aI18900000
aS'_4483922472'
p46
aa(lp47
I1
aI1
aI1
aI0
aI1
aI0
aI0
aI0
aI0
aI19500000
aS'_4483922472'
p48
aa(lp49
I1
aI0
aI1
aI0
aI1
aI0
aI0
aI1
aI0
aI24000000
aS'_4483922472'
p50
aaaa(lp51
S'_4483923912'
p52
a(lp53
(lp54
I1
aI0
aI1
aI0
aI1
aI0
aI0
aI0
aI1
aI13800000
ag52
aa(lp55
I1
aI1
aI1
aI0
aI1
aI0
aI0
aI0
aI1
aI13200000
aS'_4483923912'
p56
aa(lp57
I1
aI0
aI1
aI1
aI1
aI0
aI0
aI0
aI1
aI12000000
aS'_4483923912'
p58
aa(lp59
I1
aI1
aI1
aI1
aI1
aI0
aI1
aI0
aI1
aI12000000
aS'_4483923912'
p60
aa(lp61
I1
aI0
aI0
aI1
aI1
aI0
aI0
aI0
aI1
aI12000000
aS'_4483923912'
p62
aa(lp63
I1
aI1
aI1
aI1
aI1
aI0
aI0
aI0
aI1
aI10500000
aS'_4483923912'
p64
aa(lp65
I1
aI1
aI1
aI1
aI0
aI1
aI0
aI0
aI1
aI10800000
aS'_4483923912'
p66
aaaa(lp67
S'_4483920024'
p68
a(lp69
(lp70
I1
aI0
aI1
aI0
aI1
aI1
aI0
aI0
aI0
aI18300000
ag68
aa(lp71
I1
aI0
aI1
aI0
aI1
aI1
aI0
aI0
aI1
aI13500000
aS'_4483920024'
p72
aa(lp73
I1
aI0
aI0
aI0
aI1
aI1
aI1
aI0
aI0
aI9900000
aS'_4483920024'
p74
aa(lp75
I1
aI0
aI1
aI0
aI0
aI1
aI0
aI0
aI1
aI12300000
aS'_4483920024'
p76
aa(lp77
I1
aI0
aI0
aI0
aI0
aI1
aI0
aI0
aI0
aI10800000
aS'_4483920024'
p78
aa(lp79
I1
aI0
aI0
aI1
aI1
aI1
aI0
aI0
aI0
aI12000000
aS'_4483920024'
p80
aa(lp81
I1
aI1
aI0
aI0
aI1
aI1
aI0
aI0
aI1
aI9300000
aS'_4483920024'
p82
aaaa(lp83
S'_4483920384'
p84
a(lp85
(lp86
I1
aI1
aI0
aI1
aI0
aI1
aI1
aI0
aI0
aI9000000
ag84
aa(lp87
I1
aI1
aI0
aI1
aI0
aI0
aI1
aI0
aI0
aI9600000
aS'_4483920384'
p88
aa(lp89
I1
aI1
aI0
aI1
aI0
aI1
aI1
aI1
aI0
aI9600000
aS'_4483920384'
p90
aa(lp91
I1
aI1
aI1
aI1
aI0
aI1
aI1
aI0
aI0
aI17700000
aS'_4483920384'
p92
aa(lp93
I1
aI1
aI1
aI1
aI1
aI1
aI1
aI1
aI0
aI18600000
aS'_4483920384'
p94
aa(lp95
I1
aI1
aI1
aI0
aI0
aI1
aI1
aI1
aI0
aI18600000
aS'_4483920384'
p96
aa(lp97
I1
aI0
aI0
aI1
aI0
aI0
aI1
aI0
aI0
aI12300000
aS'_4483920384'
p98
aaaa(lp99
S'_4483922616'
p100
a(lp101
(lp102
I1
aI1
aI0
aI0
aI1
aI0
aI1
aI0
aI1
aI9600000
ag100
aa(lp103
I1
aI1
aI0
aI0
aI1
aI1
aI1
aI1
aI0
aI9600000
aS'_4483922616'
p104
aa(lp105
I1
aI1
aI1
aI0
aI1
aI0
aI1
aI1
aI0
aI21900000
aS'_4483922616'
p106
aa(lp107
I1
aI1
aI0
aI0
aI1
aI0
aI1
aI0
aI0
aI9300000
aS'_4483922616'
p108
aa(lp109
I1
aI1
aI0
aI0
aI1
aI0
aI1
aI1
aI0
aI10500000
aS'_4483922616'
p110
aa(lp111
I1
aI0
aI0
aI0
aI0
aI0
aI1
aI0
aI0
aI11100000
aS'_4483922616'
p112
aa(lp113
I1
aI0
aI0
aI0
aI1
aI0
aI1
aI1
aI0
aI13800000
aS'_4483922616'
p114
aaaa(lp115
S'_4483923768'
p116
a(lp117
(lp118
I1
aI1
aI1
aI1
aI1
aI1
aI0
aI0
aI1
aI11700000
ag116
aa(lp119
I1
aI1
aI0
aI1
aI1
aI0
aI0
aI0
aI1
aI10500000
aS'_4483923768'
p120
aa(lp121
I1
aI1
aI1
aI1
aI1
aI0
aI0
aI0
aI0
aI22200000
aS'_4483923768'
p122
aa(lp123
I1
aI1
aI1
aI0
aI1
aI1
aI0
aI0
aI0
aI17700000
aS'_4483923768'
p124
aa(lp125
I1
aI1
aI0
aI1
aI1
aI1
aI0
aI0
aI1
aI9300000
aS'_4483923768'
p126
aa(lp127
I1
aI1
aI1
aI1
aI1
aI1
aI0
aI0
aI0
aI19200000
aS'_4483923768'
p128
aa(lp129
I1
aI1
aI0
aI1
aI1
aI1
aI0
aI0
aI0
aI9600000
aS'_4483923768'
p130
aaaa(lp131
S'_4482954952'
p132
a(lp133
(lp134
I1
aI0
aI0
aI0
aI1
aI1
aI0
aI1
aI0
aI13200000
ag132
aa(lp135
I1
aI0
aI0
aI0
aI0
aI1
aI1
aI0
aI1
aI10800000
aS'_4482954952'
p136
aa(lp137
I1
aI0
aI0
aI1
aI0
aI0
aI1
aI1
aI0
aI13200000
aS'_4482954952'
p138
aa(lp139
I1
aI0
aI0
aI1
aI1
aI0
aI0
aI1
aI0
aI14700000
aS'_4482954952'
p140
aa(lp141
I1
aI0
aI0
aI1
aI0
aI1
aI1
aI1
aI0
aI11400000
aS'_4482954952'
p142
aa(lp143
I1
aI0
aI0
aI1
aI0
aI1
aI0
aI0
aI0
aI11700000
aS'_4482954952'
p144
aa(lp145
I1
aI0
aI0
aI1
aI1
aI1
aI1
aI0
aI0
aI11100000
aS'_4482954952'
p146
aaaa(lp147
S'_4483923048'
p148
a(lp149
(lp150
I1
aI0
aI0
aI0
aI1
aI0
aI0
aI0
aI1
aI12600000
ag148
aa(lp151
I1
aI0
aI0
aI0
aI1
aI1
aI1
aI0
aI1
aI10500000
aS'_4483923048'
p152
aa(lp153
I1
aI0
aI0
aI0
aI0
aI1
aI0
aI0
aI1
aI10500000
aS'_4483923048'
p154
aa(lp155
I1
aI1
aI0
aI0
aI0
aI1
aI0
aI0
aI1
aI9300000
aS'_4483923048'
p156
aa(lp157
I1
aI0
aI0
aI1
aI1
aI1
aI1
aI0
aI1
aI11100000
aS'_4483923048'
p158
aa(lp159
I1
aI0
aI0
aI0
aI0
aI0
aI0
aI0
aI1
aI12300000
aS'_4483923048'
p160
aa(lp161
I1
aI0
aI0
aI1
aI1
aI0
aI1
aI0
aI1
aI12300000
aS'_4483923048'
p162
aa(lp163
I1
aI0
aI0
aI1
aI0
aI0
aI1
aI0
aI1
aI11400000
aS'_4483923048'
p164
aaaa(lp165
S'_4483922256'
p166
a(lp167
(lp168
I1
aI0
aI1
aI1
aI0
aI1
aI1
aI0
aI0
aI18300000
ag166
aa(lp169
I1
aI0
aI1
aI1
aI0
aI0
aI1
aI0
aI1
aI13200000
aS'_4483922256'
p170
aa(lp171
I1
aI1
aI1
aI1
aI1
aI1
aI1
aI0
aI1
aI8700000
aS'_4483922256'
p172
aa(lp173
I1
aI0
aI1
aI1
aI1
aI1
aI1
aI0
aI0
aI18900000
aS'_4483922256'
p174
aa(lp175
I1
aI0
aI1
aI1
aI0
aI1
aI1
aI0
aI1
aI12300000
aS'_4483922256'
p176
aa(lp177
I1
aI0
aI1
aI1
aI0
aI1
aI0
aI0
aI1
aI10200000
aS'_4483922256'
p178
aa(lp179
I1
aI0
aI1
aI1
aI1
aI1
aI0
aI0
aI1
aI12000000
aS'_4483922256'
p180
aaaa(lp181
S'_4483920456'
p182
a(lp183
(lp184
I1
aI1
aI0
aI1
aI0
aI0
aI0
aI0
aI1
aI9900000
ag182
aa(lp185
I1
aI1
aI0
aI1
aI0
aI0
aI0
aI0
aI0
aI10500000
aS'_4483920456'
p186
aa(lp187
I1
aI1
aI0
aI0
aI1
aI0
aI0
aI0
aI1
aI10200000
aS'_4483920456'
p188
aa(lp189
I1
aI1
aI1
aI1
aI0
aI0
aI0
aI0
aI0
aI21300000
aS'_4483920456'
p190
aa(lp191
I1
aI0
aI0
aI1
aI0
aI0
aI0
aI0
aI0
aI13200000
aS'_4483920456'
p192
aa(lp193
I1
aI1
aI1
aI0
aI0
aI0
aI0
aI0
aI1
aI11400000
aS'_4483920456'
p194
aa(lp195
I1
aI1
aI0
aI0
aI0
aI0
aI1
aI0
aI0
aI9000000
aS'_4483920456'
p196
aaaa(lp197
S'_4482954880'
p198
a(lp199
(lp200
I1
aI0
aI1
aI1
aI1
aI0
aI0
aI1
aI0
aI26400000
ag198
aa(lp201
I1
aI1
aI0
aI1
aI1
aI0
aI1
aI1
aI0
aI10800000
aS'_4482954880'
p202
aa(lp203
I1
aI0
aI1
aI0
aI1
aI1
aI1
aI1
aI0
aI21000000
aS'_4482954880'
p204
aa(lp205
I1
aI0
aI0
aI1
aI1
aI1
aI1
aI1
aI0
aI12300000
aS'_4482954880'
p206
aa(lp207
I1
aI0
aI1
aI0
aI1
aI1
aI1
aI0
aI0
aI17400000
aS'_4482954880'
p208
aa(lp209
I1
aI0
aI0
aI1
aI1
aI0
aI1
aI1
aI0
aI13800000
aS'_4482954880'
p210
aa(lp211
I1
aI0
aI1
aI0
aI0
aI0
aI0
aI1
aI0
aI24900000
aS'_4482954880'
p212
aa(lp213
I1
aI0
aI0
aI0
aI0
aI0
aI1
aI1
aI0
aI12900000
aS'_4482954880'
p214
aaaa(lp215
S'_4482955312'
p216
a(lp217
(lp218
I1
aI1
aI0
aI0
aI0
aI1
aI0
aI1
aI0
aI10200000
ag216
aa(lp219
I1
aI0
aI0
aI0
aI0
aI1
aI0
aI1
aI0
aI12600000
aS'_4482955312'
p220
aa(lp221
I1
aI0
aI1
aI0
aI0
aI1
aI0
aI1
aI0
aI21300000
aS'_4482955312'
p222
aa(lp223
I1
aI0
aI1
aI1
aI0
aI1
aI0
aI1
aI0
aI21000000
aS'_4482955312'
p224
aa(lp225
I1
aI0
aI1
aI0
aI0
aI1
aI0
aI0
aI0
aI17700000
aS'_4482955312'
p226
aa(lp227
I1
aI0
aI0
aI1
aI0
aI0
aI0
aI1
aI0
aI14100000
aS'_4482955312'
p228
aa(lp229
I1
aI1
aI0
aI0
aI0
aI1
aI1
aI0
aI0
aI8400000
aS'_4482955312'
p230
aaaa(lp231
S'_4483923552'
p232
a(lp233
(lp234
I1
aI1
aI1
aI1
aI1
aI0
aI1
aI1
aI0
aI21900000
ag232
aa(lp235
I1
aI1
aI1
aI0
aI0
aI0
aI1
aI1
aI0
aI21600000
aS'_4483923552'
p236
aa(lp237
I1
aI1
aI0
aI1
aI0
aI0
aI0
aI1
aI0
aI11100000
aS'_4483923552'
p238
aa(lp239
I1
aI1
aI1
aI1
aI0
aI0
aI1
aI1
aI0
aI21600000
aS'_4483923552'
p240
aa(lp241
I1
aI0
aI1
aI1
aI0
aI1
aI0
aI0
aI0
aI19800000
aS'_4483923552'
p242
aa(lp243
I1
aI0
aI1
aI1
aI0
aI0
aI1
aI1
aI0
aI23100000
aS'_4483923552'
p244
aa(lp245
I1
aI0
aI1
aI1
aI0
aI0
aI0
aI0
aI0
aI22200000
aS'_4483923552'
p246
aa(lp247
I1
aI0
aI1
aI1
aI0
aI0
aI0
aI1
aI0
aI24600000
aS'_4483923552'
p248
aaaa(lp249
S'_4482955456'
p250
a(lp251
(lp252
I1
aI1
aI1
aI0
aI0
aI1
aI1
aI0
aI0
aI16200000
ag250
aa(lp253
I1
aI1
aI1
aI0
aI1
aI1
aI1
aI0
aI0
aI16800000
aS'_4482955456'
p254
aa(lp255
I1
aI1
aI1
aI0
aI0
aI1
aI1
aI0
aI1
aI11400000
aS'_4482955456'
p256
aa(lp257
I1
aI0
aI1
aI0
aI0
aI1
aI1
aI0
aI0
aI16800000
aS'_4482955456'
p258
aa(lp259
I1
aI1
aI1
aI1
aI0
aI0
aI1
aI0
aI1
aI11700000
aS'_4482955456'
p260
aa(lp261
I1
aI0
aI1
aI1
aI0
aI1
aI1
aI1
aI0
aI19800000
aS'_4482955456'
p262
aa(lp263
I1
aI0
aI1
aI0
aI0
aI1
aI1
aI0
aI1
aI12600000
aS'_4482955456'
p264
aaaa.