(lp0
(lp1
S'_4445348712'
p2
a(lp3
(lp4
I1
aI1
aI1
aI1
aI0
aI0
aI0
aI0
aI0
aI0
aI1
aI1
aI0
aI1
aI1
aI0
aI1
aI1
aI1
aI0
aI1
aI1
aI1
aI1
aI0
aI0
aI32690000
ag2
aa(lp5
I1
aI1
aI1
aI1
aI0
aI0
aI0
aI0
aI0
aI0
aI1
aI1
aI0
aI1
aI1
aI0
aI1
aI1
aI1
aI0
aI1
aI1
aI1
aI0
aI1
aI0
aI47140000
aS'_4445348712'
p6
aa(lp7
I1
aI1
aI1
aI1
aI0
aI0
aI0
aI0
aI0
aI0
aI1
aI1
aI0
aI1
aI1
aI0
aI1
aI1
aI1
aI0
aI1
aI1
aI1
aI1
aI0
aI1
aI31390000
aS'_4445348712'
p8
aa(lp9
I1
aI1
aI1
aI1
aI0
aI0
aI0
aI0
aI0
aI0
aI1
aI1
aI0
aI1
aI1
aI1
aI1
aI1
aI1
aI0
aI1
aI1
aI1
aI1
aI0
aI0
aI32640000
aS'_4445348712'
p10
aa(lp11
I1
aI1
aI1
aI1
aI0
aI0
aI0
aI0
aI0
aI0
aI1
aI1
aI0
aI1
aI1
aI1
aI1
aI1
aI1
aI1
aI1
aI1
aI1
aI1
aI0
aI0
aI31610000
aS'_4445348712'
p12
aa(lp13
I1
aI1
aI1
aI1
aI0
aI0
aI0
aI0
aI0
aI0
aI1
aI0
aI1
aI1
aI1
aI0
aI1
aI1
aI1
aI0
aI1
aI1
aI1
aI1
aI0
aI0
aI52280000
aS'_4445348712'
p14
aaaa(lp15
S'_4445351592'
p16
a(lp17
(lp18
I1
aI1
aI1
aI0
aI1
aI1
aI1
aI1
aI0
aI1
aI1
aI1
aI0
aI1
aI1
aI0
aI1
aI1
aI1
aI0
aI0
aI0
aI0
aI0
aI0
aI0
aI32990000
ag16
aa(lp19
I1
aI1
aI1
aI0
aI1
aI1
aI1
aI1
aI0
aI0
aI1
aI1
aI0
aI1
aI1
aI1
aI1
aI1
aI1
aI1
aI0
aI0
aI0
aI0
aI0
aI1
aI30530000
aS'_4445351592'
p20
aa(lp21
I1
aI1
aI1
aI0
aI1
aI1
aI1
aI0
aI1
aI1
aI1
aI1
aI0
aI1
aI1
aI1
aI1
aI1
aI1
aI0
aI0
aI0
aI0
aI0
aI0
aI1
aI30580000
aS'_4445351592'
p22
aa(lp23
I1
aI1
aI1
aI0
aI1
aI1
aI1
aI1
aI0
aI0
aI1
aI0
aI1
aI1
aI1
aI1
aI1
aI1
aI1
aI1
aI0
aI0
aI0
aI0
aI0
aI1
aI53160000
aS'_4445351592'
p24
aa(lp25
I1
aI1
aI1
aI0
aI1
aI1
aI1
aI0
aI1
aI0
aI1
aI1
aI0
aI1
aI1
aI1
aI1
aI1
aI1
aI1
aI0
aI0
aI0
aI0
aI0
aI0
aI32160000
aS'_4445351592'
p26
aa(lp27
I1
aI1
aI1
aI0
aI1
aI1
aI1
aI1
aI0
aI0
aI1
aI0
aI1
aI1
aI1
aI1
aI1
aI1
aI1
aI1
aI0
aI0
aI0
aI0
aI0
aI0
aI52630000
aS'_4445351592'
p28
aa(lp29
I1
aI1
aI1
aI0
aI1
aI1
aI1
aI0
aI1
aI0
aI1
aI0
aI1
aI1
aI1
aI1
aI1
aI1
aI1
aI1
aI0
aI0
aI0
aI0
aI0
aI0
aI52350000
aS'_4445351592'
p30
aaaa(lp31
S'_4445349720'
p32
a(lp33
(lp34
I1
aI1
aI1
aI1
aI0
aI0
aI0
aI0
aI0
aI0
aI1
aI0
aI1
aI1
aI1
aI0
aI1
aI1
aI1
aI0
aI1
aI1
aI1
aI1
aI0
aI1
aI53280000
ag32
aa(lp35
I1
aI1
aI1
aI1
aI0
aI0
aI0
aI0
aI0
aI0
aI1
aI0
aI1
aI1
aI1
aI1
aI1
aI1
aI1
aI0
aI1
aI1
aI1
aI1
aI0
aI1
aI53100000
aS'_4445349720'
p36
aa(lp37
I1
aI1
aI1
aI1
aI0
aI0
aI0
aI0
aI0
aI0
aI1
aI0
aI1
aI1
aI1
aI1
aI1
aI1
aI1
aI0
aI1
aI1
aI1
aI1
aI0
aI0
aI52200000
aS'_4445349720'
p38
aa(lp39
I1
aI1
aI1
aI1
aI0
aI0
aI0
aI0
aI0
aI0
aI1
aI0
aI1
aI1
aI1
aI1
aI1
aI1
aI1
aI1
aI1
aI1
aI1
aI1
aI0
aI0
aI53090000
aS'_4445349720'
p40
aa(lp41
I1
aI1
aI1
aI1
aI0
aI0
aI0
aI0
aI0
aI0
aI1
aI0
aI1
aI1
aI1
aI1
aI1
aI1
aI1
aI1
aI1
aI1
aI1
aI1
aI0
aI1
aI53280000
aS'_4445349720'
p42
aa(lp43
I1
aI1
aI1
aI1
aI0
aI0
aI0
aI0
aI0
aI0
aI1
aI0
aI1
aI1
aI1
aI1
aI1
aI1
aI1
aI0
aI1
aI1
aI1
aI0
aI1
aI0
aI145620000
aS'_4445349720'
p44
aa(lp45
I1
aI1
aI1
aI1
aI0
aI0
aI0
aI0
aI0
aI0
aI1
aI1
aI0
aI1
aI1
aI1
aI1
aI1
aI1
aI0
aI1
aI1
aI1
aI1
aI0
aI1
aI31530000
aS'_4445349720'
p46
aaaa(lp47
S'_4445349936'
p48
a(lp49
(lp50
I1
aI1
aI1
aI0
aI1
aI1
aI1
aI0
aI1
aI1
aI1
aI0
aI1
aI1
aI1
aI1
aI1
aI1
aI1
aI0
aI0
aI0
aI0
aI0
aI0
aI0
aI54490000
ag48
aa(lp51
I1
aI1
aI1
aI0
aI1
aI1
aI1
aI0
aI1
aI0
aI1
aI0
aI1
aI1
aI1
aI0
aI1
aI1
aI1
aI0
aI0
aI0
aI0
aI0
aI0
aI0
aI52070000
aS'_4445349936'
p52
aa(lp53
I1
aI1
aI1
aI0
aI1
aI1
aI1
aI0
aI1
aI1
aI1
aI0
aI1
aI1
aI1
aI0
aI1
aI1
aI1
aI0
aI1
aI1
aI1
aI0
aI1
aI0
aI164270000
aS'_4445349936'
p54
aa(lp55
I1
aI1
aI1
aI0
aI1
aI1
aI1
aI0
aI1
aI1
aI1
aI0
aI1
aI1
aI1
aI1
aI1
aI1
aI1
aI0
aI1
aI1
aI1
aI0
aI1
aI0
aI164010000
aS'_4445349936'
p56
aa(lp57
I1
aI1
aI1
aI0
aI1
aI1
aI1
aI0
aI1
aI0
aI1
aI0
aI1
aI1
aI1
aI0
aI1
aI1
aI1
aI0
aI1
aI1
aI1
aI0
aI1
aI1
aI148520000
aS'_4445349936'
p58
aa(lp59
I1
aI1
aI1
aI0
aI1
aI1
aI1
aI0
aI1
aI0
aI1
aI0
aI1
aI1
aI1
aI0
aI1
aI1
aI1
aI0
aI1
aI1
aI1
aI0
aI1
aI0
aI146530000
aS'_4445349936'
p60
aa(lp61
I1
aI1
aI1
aI0
aI1
aI1
aI1
aI0
aI1
aI1
aI1
aI0
aI1
aI1
aI1
aI1
aI1
aI1
aI1
aI1
aI1
aI1
aI1
aI1
aI0
aI0
aI54200000
aS'_4445349936'
p62
aaaa(lp63
S'_4445351016'
p64
a(lp65
(lp66
I1
aI1
aI1
aI0
aI1
aI1
aI1
aI0
aI1
aI1
aI1
aI1
aI0
aI1
aI1
aI1
aI1
aI1
aI1
aI1
aI1
aI1
aI1
aI1
aI0
aI0
aI33580000
ag64
aa(lp67
I1
aI1
aI1
aI0
aI1
aI1
aI1
aI0
aI1
aI1
aI1
aI1
aI0
aI1
aI1
aI1
aI1
aI1
aI1
aI0
aI1
aI1
aI1
aI0
aI1
aI1
aI50480000
aS'_4445351016'
p68
aa(lp69
I1
aI1
aI1
aI0
aI1
aI1
aI1
aI0
aI1
aI1
aI1
aI1
aI0
aI1
aI1
aI0
aI1
aI1
aI1
aI0
aI1
aI1
aI1
aI1
aI0
aI0
aI31610000
aS'_4445351016'
p70
aa(lp71
I1
aI1
aI1
aI0
aI1
aI1
aI1
aI0
aI1
aI0
aI1
aI1
aI0
aI1
aI1
aI0
aI1
aI1
aI1
aI0
aI1
aI1
aI1
aI1
aI0
aI0
aI31650000
aS'_4445351016'
p72
aa(lp73
I1
aI1
aI1
aI0
aI1
aI1
aI1
aI0
aI1
aI1
aI1
aI1
aI0
aI1
aI1
aI0
aI1
aI1
aI1
aI0
aI1
aI1
aI1
aI0
aI1
aI1
aI50450000
aS'_4445351016'
p74
aa(lp75
I1
aI1
aI1
aI0
aI1
aI1
aI1
aI0
aI1
aI0
aI1
aI1
aI0
aI1
aI1
aI0
aI1
aI1
aI1
aI0
aI1
aI1
aI1
aI0
aI1
aI1
aI48940000
aS'_4445351016'
p76
aa(lp77
I1
aI1
aI1
aI0
aI1
aI1
aI1
aI0
aI1
aI0
aI1
aI1
aI0
aI1
aI1
aI0
aI1
aI1
aI1
aI0
aI1
aI1
aI1
aI0
aI1
aI0
aI47050000
aS'_4445351016'
p78
aaaa(lp79
S'_4445350800'
p80
a(lp81
(lp82
I1
aI1
aI1
aI0
aI1
aI1
aI1
aI1
aI0
aI0
aI1
aI1
aI0
aI1
aI1
aI1
aI1
aI1
aI1
aI0
aI1
aI1
aI1
aI1
aI0
aI0
aI31570000
ag80
aa(lp83
I1
aI1
aI1
aI0
aI1
aI1
aI1
aI1
aI0
aI1
aI1
aI0
aI1
aI1
aI1
aI0
aI1
aI1
aI1
aI0
aI1
aI1
aI1
aI0
aI1
aI1
aI164790000
aS'_4445350800'
p84
aa(lp85
I1
aI1
aI1
aI0
aI1
aI1
aI1
aI1
aI0
aI1
aI1
aI0
aI1
aI1
aI1
aI0
aI1
aI1
aI1
aI0
aI1
aI1
aI1
aI0
aI1
aI0
aI163420000
aS'_4445350800'
p86
aa(lp87
I1
aI1
aI1
aI0
aI1
aI1
aI1
aI1
aI0
aI1
aI1
aI1
aI0
aI1
aI1
aI1
aI1
aI1
aI1
aI0
aI1
aI1
aI1
aI0
aI1
aI0
aI49430000
aS'_4445350800'
p88
aa(lp89
I1
aI1
aI1
aI0
aI1
aI1
aI1
aI0
aI1
aI0
aI1
aI1
aI0
aI1
aI1
aI1
aI1
aI1
aI1
aI0
aI1
aI1
aI1
aI0
aI1
aI0
aI47590000
aS'_4445350800'
p90
aa(lp91
I1
aI1
aI1
aI0
aI1
aI1
aI1
aI1
aI0
aI1
aI1
aI1
aI0
aI1
aI1
aI0
aI1
aI1
aI1
aI0
aI1
aI1
aI1
aI0
aI1
aI0
aI48980000
aS'_4445350800'
p92
aa(lp93
I1
aI1
aI1
aI0
aI1
aI1
aI1
aI1
aI0
aI0
aI1
aI1
aI0
aI1
aI1
aI0
aI1
aI1
aI1
aI0
aI1
aI1
aI1
aI0
aI1
aI0
aI46690000
aS'_4445350800'
p94
aaaa(lp95
S'_4445347992'
p96
a(lp97
(lp98
I1
aI1
aI1
aI0
aI1
aI1
aI1
aI0
aI1
aI0
aI1
aI0
aI1
aI1
aI1
aI1
aI1
aI1
aI1
aI1
aI1
aI1
aI1
aI0
aI1
aI0
aI146670000
ag96
aa(lp99
I1
aI1
aI1
aI0
aI1
aI1
aI1
aI0
aI1
aI0
aI1
aI0
aI1
aI1
aI1
aI1
aI1
aI1
aI1
aI1
aI1
aI1
aI1
aI1
aI0
aI0
aI52410000
aS'_4445347992'
p100
aa(lp101
I1
aI1
aI1
aI0
aI1
aI1
aI1
aI0
aI1
aI0
aI1
aI0
aI1
aI1
aI1
aI1
aI1
aI1
aI1
aI1
aI1
aI1
aI1
aI1
aI0
aI1
aI53390000
aS'_4445347992'
p102
aa(lp103
I1
aI1
aI1
aI0
aI1
aI1
aI1
aI1
aI0
aI0
aI1
aI0
aI1
aI1
aI1
aI1
aI1
aI1
aI1
aI0
aI1
aI1
aI1
aI1
aI0
aI1
aI53430000
aS'_4445347992'
p104
aa(lp105
I1
aI1
aI1
aI0
aI1
aI1
aI1
aI1
aI0
aI0
aI1
aI0
aI1
aI1
aI1
aI0
aI1
aI1
aI1
aI0
aI1
aI1
aI1
aI1
aI0
aI1
aI53560000
aS'_4445347992'
p106
aa(lp107
I1
aI1
aI1
aI0
aI1
aI1
aI1
aI1
aI0
aI0
aI1
aI0
aI1
aI1
aI1
aI1
aI1
aI1
aI1
aI1
aI1
aI1
aI1
aI1
aI0
aI0
aI52740000
aS'_4445347992'
p108
aa(lp109
I1
aI1
aI1
aI0
aI1
aI1
aI1
aI1
aI0
aI0
aI1
aI0
aI1
aI1
aI1
aI1
aI1
aI1
aI1
aI1
aI1
aI1
aI1
aI1
aI0
aI1
aI53140000
aS'_4445347992'
p110
aaaa(lp111
S'_4445350368'
p112
a(lp113
(lp114
I1
aI1
aI1
aI0
aI1
aI1
aI1
aI0
aI1
aI0
aI1
aI1
aI0
aI1
aI1
aI1
aI1
aI1
aI1
aI1
aI1
aI1
aI1
aI1
aI0
aI0
aI35320000
ag112
aa(lp115
I1
aI1
aI1
aI0
aI1
aI1
aI1
aI0
aI1
aI0
aI1
aI1
aI0
aI1
aI1
aI1
aI1
aI1
aI1
aI0
aI1
aI1
aI1
aI1
aI0
aI0
aI31780000
aS'_4445350368'
p116
aa(lp117
I1
aI1
aI1
aI0
aI1
aI1
aI1
aI0
aI1
aI0
aI1
aI1
aI0
aI1
aI1
aI1
aI1
aI1
aI1
aI0
aI1
aI1
aI1
aI1
aI0
aI1
aI31850000
aS'_4445350368'
p118
aa(lp119
I1
aI1
aI1
aI0
aI1
aI1
aI1
aI0
aI1
aI1
aI1
aI1
aI0
aI1
aI1
aI1
aI1
aI1
aI1
aI0
aI1
aI1
aI1
aI1
aI0
aI0
aI31270000
aS'_4445350368'
p120
aa(lp121
I1
aI1
aI1
aI0
aI1
aI1
aI1
aI0
aI1
aI1
aI1
aI1
aI0
aI1
aI1
aI1
aI1
aI1
aI1
aI1
aI1
aI1
aI1
aI1
aI0
aI1
aI32300000
aS'_4445350368'
p122
aa(lp123
I1
aI1
aI1
aI0
aI1
aI1
aI1
aI1
aI0
aI1
aI1
aI1
aI0
aI1
aI1
aI1
aI1
aI1
aI1
aI0
aI1
aI1
aI1
aI1
aI0
aI0
aI31540000
aS'_4445350368'
p124
aaaa(lp125
S'_4445349864'
p126
a(lp127
(lp128
I1
aI1
aI1
aI1
aI0
aI0
aI0
aI0
aI0
aI0
aI1
aI1
aI0
aI1
aI1
aI1
aI1
aI1
aI1
aI1
aI1
aI1
aI1
aI1
aI0
aI1
aI35120000
ag126
aa(lp129
I1
aI1
aI1
aI1
aI0
aI0
aI0
aI0
aI0
aI0
aI1
aI0
aI1
aI1
aI1
aI1
aI1
aI1
aI1
aI1
aI1
aI1
aI1
aI0
aI1
aI1
aI149050000
aS'_4445349864'
p130
aa(lp131
I1
aI1
aI1
aI1
aI0
aI0
aI0
aI0
aI0
aI0
aI1
aI1
aI0
aI1
aI1
aI1
aI1
aI1
aI1
aI1
aI1
aI1
aI1
aI0
aI1
aI0
aI47870000
aS'_4445349864'
p132
aa(lp133
I1
aI1
aI1
aI0
aI1
aI1
aI1
aI1
aI0
aI0
aI1
aI1
aI0
aI1
aI1
aI1
aI1
aI1
aI1
aI1
aI1
aI1
aI1
aI1
aI0
aI0
aI31950000
aS'_4445349864'
p134
aa(lp135
I1
aI1
aI1
aI0
aI1
aI1
aI1
aI1
aI0
aI0
aI1
aI0
aI1
aI1
aI1
aI1
aI1
aI1
aI1
aI1
aI1
aI1
aI1
aI0
aI1
aI1
aI146560000
aS'_4445349864'
p136
aa(lp137
I1
aI1
aI1
aI0
aI1
aI1
aI1
aI0
aI1
aI0
aI1
aI1
aI0
aI1
aI1
aI1
aI1
aI1
aI1
aI1
aI1
aI1
aI1
aI0
aI1
aI0
aI46680000
aS'_4445349864'
p138
aa(lp139
I1
aI1
aI1
aI0
aI1
aI1
aI1
aI0
aI1
aI0
aI1
aI1
aI0
aI1
aI1
aI1
aI1
aI1
aI1
aI1
aI1
aI1
aI1
aI0
aI1
aI1
aI48970000
aS'_4445349864'
p140
aaaa(lp141
S'_4445351880'
p142
a(lp143
(lp144
I1
aI1
aI1
aI0
aI1
aI1
aI1
aI0
aI1
aI1
aI1
aI0
aI1
aI1
aI1
aI1
aI1
aI1
aI1
aI0
aI1
aI1
aI1
aI1
aI0
aI1
aI54570000
ag142
aa(lp145
I1
aI1
aI1
aI0
aI1
aI1
aI1
aI0
aI1
aI0
aI1
aI0
aI1
aI1
aI1
aI1
aI1
aI1
aI1
aI0
aI1
aI1
aI1
aI1
aI0
aI1
aI53140000
aS'_4445351880'
p146
aa(lp147
I1
aI1
aI1
aI0
aI1
aI1
aI1
aI0
aI1
aI1
aI1
aI0
aI1
aI1
aI1
aI0
aI1
aI1
aI1
aI0
aI1
aI1
aI1
aI1
aI0
aI1
aI54990000
aS'_4445351880'
p148
aa(lp149
I1
aI1
aI1
aI0
aI1
aI1
aI1
aI0
aI1
aI0
aI1
aI0
aI1
aI1
aI1
aI0
aI1
aI1
aI1
aI0
aI1
aI1
aI1
aI1
aI0
aI1
aI53420000
aS'_4445351880'
p150
aa(lp151
I1
aI1
aI1
aI0
aI1
aI1
aI1
aI0
aI1
aI1
aI1
aI0
aI1
aI1
aI1
aI0
aI1
aI1
aI1
aI0
aI1
aI1
aI1
aI1
aI0
aI0
aI53540000
aS'_4445351880'
p152
aa(lp153
I1
aI1
aI1
aI0
aI1
aI1
aI1
aI0
aI1
aI1
aI1
aI0
aI1
aI1
aI1
aI0
aI1
aI1
aI1
aI0
aI0
aI0
aI0
aI0
aI0
aI0
aI53650000
aS'_4445351880'
p154
aa(lp155
I1
aI1
aI1
aI0
aI1
aI1
aI1
aI0
aI1
aI1
aI1
aI0
aI1
aI1
aI1
aI0
aI1
aI1
aI1
aI0
aI1
aI1
aI1
aI0
aI1
aI1
aI164460000
aS'_4445351880'
p156
aaaa(lp157
S'_4445350440'
p158
a(lp159
(lp160
I1
aI1
aI1
aI0
aI1
aI1
aI1
aI1
aI0
aI1
aI1
aI0
aI1
aI1
aI1
aI1
aI1
aI1
aI1
aI1
aI1
aI1
aI1
aI1
aI0
aI1
aI55080000
ag158
aa(lp161
I1
aI1
aI1
aI0
aI1
aI1
aI1
aI1
aI0
aI1
aI1
aI0
aI1
aI1
aI1
aI1
aI1
aI1
aI1
aI1
aI1
aI1
aI1
aI1
aI0
aI0
aI54190000
aS'_4445350440'
p162
aa(lp163
I1
aI1
aI1
aI0
aI1
aI1
aI1
aI1
aI0
aI1
aI1
aI0
aI1
aI1
aI1
aI1
aI1
aI1
aI1
aI0
aI1
aI1
aI1
aI1
aI0
aI0
aI53900000
aS'_4445350440'
p164
aa(lp165
I1
aI1
aI1
aI0
aI1
aI1
aI1
aI1
aI0
aI1
aI1
aI0
aI1
aI1
aI1
aI1
aI1
aI1
aI1
aI1
aI1
aI1
aI1
aI0
aI1
aI0
aI163990000
aS'_4445350440'
p166
aa(lp167
I1
aI1
aI1
aI0
aI1
aI1
aI1
aI1
aI0
aI0
aI1
aI0
aI1
aI1
aI1
aI1
aI1
aI1
aI1
aI1
aI1
aI1
aI1
aI0
aI1
aI0
aI147850000
aS'_4445350440'
p168
aa(lp169
I1
aI1
aI1
aI0
aI1
aI1
aI1
aI1
aI0
aI0
aI1
aI0
aI1
aI1
aI1
aI1
aI1
aI1
aI1
aI0
aI1
aI1
aI1
aI0
aI1
aI0
aI145940000
aS'_4445350440'
p170
aaaa(lp171
S'_4445351160'
p172
a(lp173
(lp174
I1
aI1
aI1
aI0
aI1
aI1
aI1
aI1
aI0
aI0
aI1
aI1
aI0
aI1
aI1
aI0
aI1
aI1
aI1
aI0
aI1
aI1
aI1
aI0
aI1
aI1
aI49070000
ag172
aa(lp175
I1
aI1
aI1
aI0
aI1
aI1
aI1
aI1
aI0
aI0
aI1
aI1
aI0
aI1
aI1
aI1
aI1
aI1
aI1
aI0
aI1
aI1
aI1
aI0
aI1
aI1
aI49130000
aS'_4445351160'
p176
aa(lp177
I1
aI1
aI1
aI0
aI1
aI1
aI1
aI1
aI0
aI0
aI1
aI1
aI0
aI1
aI1
aI1
aI1
aI1
aI1
aI0
aI1
aI1
aI1
aI1
aI0
aI1
aI29600000
aS'_4445351160'
p178
aa(lp179
I1
aI1
aI1
aI0
aI1
aI1
aI1
aI1
aI0
aI0
aI1
aI1
aI0
aI1
aI1
aI1
aI1
aI1
aI1
aI0
aI1
aI1
aI1
aI0
aI1
aI0
aI46980000
aS'_4445351160'
p180
aa(lp181
I1
aI1
aI1
aI0
aI1
aI1
aI1
aI1
aI0
aI1
aI1
aI1
aI0
aI1
aI1
aI1
aI1
aI1
aI1
aI1
aI1
aI1
aI1
aI0
aI1
aI1
aI50620000
aS'_4445351160'
p182
aa(lp183
I1
aI1
aI1
aI0
aI1
aI1
aI1
aI1
aI0
aI1
aI1
aI1
aI0
aI1
aI1
aI1
aI1
aI1
aI1
aI1
aI1
aI1
aI1
aI0
aI1
aI0
aI49530000
aS'_4445351160'
p184
aa(lp185
I1
aI1
aI1
aI0
aI1
aI1
aI1
aI0
aI1
aI0
aI1
aI1
aI0
aI1
aI1
aI1
aI1
aI1
aI1
aI0
aI1
aI1
aI1
aI0
aI1
aI1
aI49150000
aS'_4445351160'
p186
aaaa(lp187
S'_4445350296'
p188
a(lp189
(lp190
I1
aI1
aI1
aI0
aI1
aI1
aI1
aI0
aI1
aI0
aI1
aI0
aI1
aI1
aI1
aI1
aI1
aI1
aI1
aI0
aI0
aI0
aI0
aI0
aI0
aI1
aI53280000
ag188
aa(lp191
I1
aI1
aI1
aI0
aI1
aI1
aI1
aI1
aI0
aI0
aI1
aI0
aI1
aI1
aI1
aI1
aI1
aI1
aI1
aI0
aI0
aI0
aI0
aI0
aI0
aI1
aI53080000
aS'_4445350296'
p192
aa(lp193
I1
aI1
aI1
aI0
aI1
aI1
aI1
aI0
aI1
aI0
aI1
aI1
aI0
aI1
aI1
aI1
aI1
aI1
aI1
aI1
aI0
aI0
aI0
aI0
aI0
aI1
aI33470000
aS'_4445350296'
p194
aa(lp195
I1
aI1
aI1
aI0
aI1
aI1
aI1
aI0
aI1
aI0
aI1
aI1
aI0
aI1
aI1
aI1
aI1
aI1
aI1
aI0
aI0
aI0
aI0
aI0
aI0
aI0
aI32630000
aS'_4445350296'
p196
aa(lp197
I1
aI1
aI1
aI0
aI1
aI1
aI1
aI1
aI0
aI0
aI1
aI0
aI1
aI1
aI1
aI0
aI1
aI1
aI1
aI0
aI0
aI0
aI0
aI0
aI0
aI0
aI51940000
aS'_4445350296'
p198
aa(lp199
I1
aI1
aI1
aI0
aI1
aI1
aI1
aI0
aI1
aI0
aI1
aI1
aI0
aI1
aI1
aI1
aI1
aI1
aI1
aI0
aI0
aI0
aI0
aI0
aI0
aI1
aI31430000
aS'_4445350296'
p200
aaaa(lp201
S'_4445348856'
p202
a(lp203
(lp204
I1
aI1
aI1
aI0
aI1
aI1
aI1
aI0
aI1
aI0
aI1
aI1
aI0
aI1
aI1
aI0
aI1
aI1
aI1
aI0
aI0
aI0
aI0
aI0
aI0
aI0
aI32490000
ag202
aa(lp205
I1
aI1
aI1
aI0
aI1
aI1
aI1
aI0
aI1
aI0
aI1
aI1
aI0
aI1
aI1
aI0
aI1
aI1
aI1
aI0
aI0
aI0
aI0
aI0
aI0
aI1
aI31770000
aS'_4445348856'
p206
aa(lp207
I1
aI1
aI1
aI0
aI1
aI1
aI1
aI1
aI0
aI0
aI1
aI1
aI0
aI1
aI1
aI1
aI1
aI1
aI1
aI0
aI0
aI0
aI0
aI0
aI0
aI1
aI34120000
aS'_4445348856'
p208
aa(lp209
I1
aI1
aI1
aI0
aI1
aI1
aI1
aI1
aI0
aI0
aI1
aI1
aI0
aI1
aI1
aI0
aI1
aI1
aI1
aI0
aI0
aI0
aI0
aI0
aI0
aI0
aI31820000
aS'_4445348856'
p210
aa(lp211
I1
aI1
aI1
aI0
aI1
aI1
aI1
aI1
aI0
aI0
aI1
aI1
aI0
aI1
aI1
aI0
aI1
aI1
aI1
aI0
aI0
aI0
aI0
aI0
aI0
aI1
aI32320000
aS'_4445348856'
p212
aa(lp213
I1
aI1
aI1
aI0
aI1
aI1
aI1
aI1
aI0
aI1
aI1
aI1
aI0
aI1
aI1
aI0
aI1
aI1
aI1
aI0
aI0
aI0
aI0
aI0
aI0
aI1
aI34280000
aS'_4445348856'
p214
aa(lp215
I1
aI1
aI1
aI1
aI0
aI0
aI0
aI0
aI0
aI0
aI1
aI1
aI0
aI1
aI1
aI0
aI1
aI1
aI1
aI0
aI0
aI0
aI0
aI0
aI0
aI1
aI31380000
aS'_4445348856'
p216
aaaa(lp217
S'_4445351304'
p218
a(lp219
(lp220
I1
aI1
aI1
aI1
aI0
aI0
aI0
aI0
aI0
aI0
aI1
aI1
aI0
aI1
aI1
aI0
aI1
aI1
aI1
aI0
aI0
aI0
aI0
aI0
aI0
aI0
aI34510000
ag218
aa(lp221
I1
aI1
aI1
aI1
aI0
aI0
aI0
aI0
aI0
aI0
aI1
aI1
aI0
aI1
aI1
aI1
aI1
aI1
aI1
aI0
aI0
aI0
aI0
aI0
aI0
aI1
aI33980000
aS'_4445351304'
p222
aa(lp223
I1
aI1
aI1
aI1
aI0
aI0
aI0
aI0
aI0
aI0
aI1
aI0
aI1
aI1
aI1
aI0
aI1
aI1
aI1
aI0
aI0
aI0
aI0
aI0
aI0
aI0
aI52310000
aS'_4445351304'
p224
aa(lp225
I1
aI1
aI1
aI1
aI0
aI0
aI0
aI0
aI0
aI0
aI1
aI1
aI0
aI1
aI1
aI1
aI1
aI1
aI1
aI1
aI0
aI0
aI0
aI0
aI0
aI1
aI33330000
aS'_4445351304'
p226
aa(lp227
I1
aI1
aI1
aI1
aI0
aI0
aI0
aI0
aI0
aI0
aI1
aI0
aI1
aI1
aI1
aI0
aI1
aI1
aI1
aI0
aI0
aI0
aI0
aI0
aI0
aI1
aI52890000
aS'_4445351304'
p228
aa(lp229
I1
aI1
aI1
aI1
aI0
aI0
aI0
aI0
aI0
aI0
aI1
aI0
aI1
aI1
aI1
aI1
aI1
aI1
aI1
aI1
aI0
aI0
aI0
aI0
aI0
aI0
aI52410000
aS'_4445351304'
p230
aa(lp231
I1
aI1
aI1
aI1
aI0
aI0
aI0
aI0
aI0
aI0
aI1
aI0
aI1
aI1
aI1
aI1
aI1
aI1
aI1
aI1
aI0
aI0
aI0
aI0
aI0
aI1
aI53380000
aS'_4445351304'
p232
aaaa(lp233
S'_4445350080'
p234
a(lp235
(lp236
I1
aI1
aI1
aI0
aI1
aI1
aI1
aI1
aI0
aI0
aI1
aI1
aI0
aI1
aI1
aI0
aI1
aI1
aI1
aI0
aI1
aI1
aI1
aI1
aI0
aI0
aI29860000
ag234
aa(lp237
I1
aI1
aI1
aI0
aI1
aI1
aI1
aI0
aI1
aI1
aI1
aI1
aI0
aI1
aI1
aI0
aI1
aI1
aI1
aI0
aI1
aI1
aI1
aI1
aI0
aI1
aI33030000
aS'_4445350080'
p238
aa(lp239
I1
aI1
aI1
aI0
aI1
aI1
aI1
aI1
aI0
aI1
aI1
aI1
aI0
aI1
aI1
aI1
aI1
aI1
aI1
aI0
aI1
aI1
aI1
aI1
aI0
aI1
aI34240000
aS'_4445350080'
p240
aa(lp241
I1
aI1
aI1
aI0
aI1
aI1
aI1
aI1
aI0
aI1
aI1
aI1
aI0
aI1
aI1
aI0
aI1
aI1
aI1
aI0
aI1
aI1
aI1
aI1
aI0
aI0
aI31710000
aS'_4445350080'
p242
aa(lp243
I1
aI1
aI1
aI0
aI1
aI1
aI1
aI1
aI0
aI1
aI1
aI0
aI1
aI1
aI1
aI0
aI1
aI1
aI1
aI0
aI1
aI1
aI1
aI1
aI0
aI1
aI54620000
aS'_4445350080'
p244
aa(lp245
I1
aI1
aI1
aI0
aI1
aI1
aI1
aI1
aI0
aI1
aI1
aI1
aI0
aI1
aI1
aI0
aI1
aI1
aI1
aI0
aI1
aI1
aI1
aI1
aI0
aI1
aI33250000
aS'_4445350080'
p246
aa(lp247
I1
aI1
aI1
aI0
aI1
aI1
aI1
aI1
aI0
aI1
aI1
aI1
aI0
aI1
aI1
aI0
aI1
aI1
aI1
aI0
aI1
aI1
aI1
aI0
aI1
aI1
aI50440000
aS'_4445350080'
p248
aaaa.