(lp0
(lp1
S'_4445314368'
p2
a(lp3
(lp4
I1
aI0
aI0
aI1
aI0
aI0
aI0
aI1
aI1
aI0
aI0
aI1
aI1
aI0
aI0
aI1
aI6169600
ag2
aa(lp5
I1
aI1
aI1
aI1
aI0
aI0
aI0
aI1
aI1
aI0
aI0
aI1
aI1
aI0
aI0
aI1
aI5838470
aS'_4445314368'
p6
aa(lp7
I1
aI0
aI1
aI1
aI1
aI0
aI0
aI1
aI1
aI0
aI0
aI1
aI1
aI0
aI0
aI1
aI7337630
aS'_4445314368'
p8
aa(lp9
I1
aI0
aI0
aI1
aI0
aI1
aI0
aI0
aI1
aI0
aI1
aI0
aI1
aI0
aI0
aI1
aI7267900
aS'_4445314368'
p10
aa(lp11
I1
aI0
aI0
aI1
aI0
aI1
aI1
aI1
aI1
aI0
aI1
aI0
aI1
aI0
aI0
aI1
aI5805770
aS'_4445314368'
p12
aa(lp13
I1
aI0
aI0
aI1
aI1
aI0
aI0
aI0
aI1
aI1
aI0
aI0
aI1
aI0
aI0
aI1
aI7431630
aS'_4445314368'
p14
aa(lp15
I1
aI0
aI1
aI1
aI0
aI1
aI0
aI1
aI1
aI0
aI1
aI0
aI1
aI0
aI0
aI1
aI7159070
aS'_4445314368'
p16
aaaa(lp17
S'_4445311128'
p18
a(lp19
(lp20
I1
aI0
aI1
aI1
aI1
aI1
aI1
aI1
aI1
aI0
aI1
aI0
aI1
aI1
aI0
aI0
aI2997330
ag18
aa(lp21
I1
aI0
aI0
aI1
aI1
aI1
aI0
aI1
aI1
aI0
aI1
aI0
aI1
aI1
aI0
aI0
aI3103170
aS'_4445311128'
p22
aa(lp23
I1
aI1
aI1
aI1
aI1
aI1
aI0
aI0
aI1
aI0
aI1
aI0
aI1
aI0
aI0
aI1
aI7756630
aS'_4445311128'
p24
aa(lp25
I1
aI0
aI0
aI0
aI1
aI1
aI0
aI1
aI1
aI0
aI1
aI0
aI1
aI0
aI1
aI0
aI5713099
aS'_4445311128'
p26
aa(lp27
I1
aI1
aI1
aI1
aI1
aI0
aI1
aI0
aI1
aI0
aI1
aI0
aI1
aI0
aI1
aI0
aI4272430
aS'_4445311128'
p28
aa(lp29
I1
aI0
aI0
aI1
aI0
aI1
aI0
aI1
aI1
aI0
aI1
aI0
aI1
aI0
aI1
aI0
aI5216070
aS'_4445311128'
p30
aa(lp31
I1
aI1
aI0
aI1
aI1
aI1
aI1
aI0
aI1
aI0
aI1
aI0
aI1
aI0
aI1
aI0
aI4625700
aS'_4445311128'
p32
aaaa(lp33
S'_4445312208'
p34
a(lp35
(lp36
I1
aI0
aI1
aI0
aI1
aI1
aI0
aI1
aI1
aI0
aI0
aI1
aI1
aI0
aI1
aI0
aI5621870
ag34
aa(lp37
I1
aI0
aI0
aI1
aI1
aI1
aI0
aI0
aI1
aI0
aI0
aI1
aI1
aI1
aI0
aI0
aI3102269
aS'_4445312208'
p38
aa(lp39
I1
aI0
aI0
aI1
aI1
aI1
aI0
aI0
aI1
aI1
aI0
aI0
aI1
aI0
aI0
aI1
aI8215200
aS'_4445312208'
p40
aa(lp41
I1
aI0
aI0
aI0
aI1
aI1
aI0
aI1
aI1
aI0
aI1
aI0
aI1
aI1
aI0
aI0
aI3107770
aS'_4445312208'
p42
aa(lp43
I1
aI1
aI0
aI1
aI0
aI0
aI0
aI0
aI1
aI1
aI0
aI0
aI1
aI1
aI0
aI0
aI2541770
aS'_4445312208'
p44
aa(lp45
I1
aI1
aI1
aI1
aI1
aI1
aI0
aI1
aI1
aI1
aI0
aI0
aI1
aI1
aI0
aI0
aI2791500
aS'_4445312208'
p46
aa(lp47
I1
aI1
aI1
aI0
aI1
aI1
aI0
aI0
aI1
aI1
aI0
aI0
aI1
aI1
aI0
aI0
aI2797900
aS'_4445312208'
p48
aaaa(lp49
S'_4445312712'
p50
a(lp51
(lp52
I1
aI1
aI0
aI1
aI0
aI0
aI1
aI1
aI1
aI0
aI1
aI0
aI1
aI1
aI0
aI0
aI2563200
ag50
aa(lp53
I1
aI1
aI0
aI0
aI0
aI0
aI1
aI0
aI1
aI1
aI0
aI0
aI1
aI1
aI0
aI0
aI2548200
aS'_4445312712'
p54
aa(lp55
I1
aI0
aI1
aI0
aI0
aI1
aI1
aI0
aI1
aI0
aI0
aI1
aI1
aI0
aI0
aI1
aI5764800
aS'_4445312712'
p56
aa(lp57
I1
aI1
aI1
aI0
aI0
aI1
aI1
aI0
aI1
aI0
aI1
aI0
aI1
aI0
aI0
aI1
aI5565130
aS'_4445312712'
p58
aa(lp59
I1
aI1
aI1
aI0
aI0
aI1
aI1
aI1
aI1
aI1
aI0
aI0
aI1
aI0
aI1
aI0
aI4086270
aS'_4445312712'
p60
aa(lp61
I1
aI1
aI1
aI0
aI0
aI0
aI0
aI0
aI1
aI0
aI1
aI0
aI1
aI0
aI1
aI0
aI4185630
aS'_4445312712'
p62
aa(lp63
I1
aI1
aI1
aI1
aI0
aI1
aI1
aI1
aI1
aI0
aI1
aI0
aI1
aI0
aI1
aI0
aI4076870
aS'_4445312712'
p64
aa(lp65
I1
aI0
aI1
aI0
aI1
aI1
aI1
aI0
aI1
aI0
aI1
aI0
aI1
aI0
aI1
aI0
aI4769130
aS'_4445312712'
p66
aaaa(lp67
S'_4445312352'
p68
a(lp69
(lp70
I1
aI0
aI0
aI1
aI1
aI0
aI1
aI0
aI1
aI0
aI0
aI1
aI1
aI1
aI0
aI0
aI2790970
ag68
aa(lp71
I1
aI0
aI1
aI1
aI1
aI0
aI1
aI1
aI1
aI0
aI0
aI1
aI1
aI1
aI0
aI0
aI2694930
aS'_4445312352'
p72
aa(lp73
I1
aI1
aI1
aI1
aI1
aI1
aI1
aI1
aI1
aI0
aI0
aI1
aI1
aI1
aI0
aI0
aI2792470
aS'_4445312352'
p74
aa(lp75
I1
aI1
aI0
aI1
aI1
aI1
aI0
aI0
aI1
aI0
aI0
aI1
aI1
aI1
aI0
aI0
aI2911400
aS'_4445312352'
p76
aa(lp77
I1
aI0
aI1
aI1
aI1
aI0
aI0
aI0
aI1
aI0
aI0
aI1
aI1
aI1
aI0
aI0
aI2697330
aS'_4445312352'
p78
aa(lp79
I1
aI1
aI1
aI0
aI1
aI1
aI1
aI0
aI1
aI0
aI0
aI1
aI1
aI1
aI0
aI0
aI2798530
aS'_4445312352'
p80
aa(lp81
I1
aI1
aI1
aI1
aI0
aI0
aI1
aI0
aI1
aI0
aI0
aI1
aI1
aI1
aI0
aI0
aI2476670
aS'_4445312352'
p82
aaaa(lp83
S'_4445311488'
p84
a(lp85
(lp86
I1
aI0
aI0
aI1
aI0
aI1
aI1
aI1
aI1
aI0
aI0
aI1
aI1
aI0
aI1
aI0
aI4326770
ag84
aa(lp87
I1
aI1
aI0
aI1
aI0
aI0
aI1
aI1
aI1
aI0
aI0
aI1
aI1
aI0
aI1
aI0
aI3696170
aS'_4445311488'
p88
aa(lp89
I1
aI1
aI0
aI0
aI0
aI0
aI0
aI1
aI1
aI0
aI0
aI1
aI1
aI0
aI1
aI0
aI4258730
aS'_4445311488'
p90
aa(lp91
I1
aI0
aI0
aI0
aI0
aI1
aI1
aI0
aI1
aI0
aI0
aI1
aI1
aI0
aI1
aI0
aI4332230
aS'_4445311488'
p92
aa(lp93
I1
aI1
aI0
aI0
aI0
aI0
aI1
aI1
aI1
aI0
aI0
aI1
aI1
aI0
aI0
aI1
aI4988270
aS'_4445311488'
p94
aa(lp95
I1
aI1
aI0
aI0
aI0
aI0
aI1
aI0
aI1
aI0
aI0
aI1
aI1
aI0
aI1
aI0
aI3707700
aS'_4445311488'
p96
aa(lp97
I1
aI0
aI1
aI0
aI1
aI0
aI1
aI1
aI1
aI0
aI0
aI1
aI1
aI0
aI1
aI0
aI4466300
aS'_4445311488'
p98
aaaa(lp99
S'_4445311776'
p100
a(lp101
(lp102
I1
aI0
aI1
aI0
aI0
aI0
aI1
aI1
aI1
aI1
aI0
aI0
aI1
aI0
aI1
aI0
aI3782830
ag100
aa(lp103
I1
aI0
aI0
aI0
aI0
aI0
aI1
aI0
aI1
aI0
aI1
aI0
aI1
aI0
aI1
aI0
aI3830530
aS'_4445311776'
p104
aa(lp105
I1
aI1
aI0
aI0
aI1
aI1
aI0
aI1
aI1
aI1
aI0
aI0
aI1
aI0
aI1
aI0
aI5430300
aS'_4445311776'
p106
aa(lp107
I1
aI0
aI1
aI0
aI0
aI0
aI1
aI0
aI1
aI0
aI0
aI1
aI1
aI1
aI0
aI0
aI2638870
aS'_4445311776'
p108
aa(lp109
I1
aI0
aI0
aI0
aI1
aI1
aI0
aI0
aI1
aI1
aI0
aI0
aI1
aI0
aI1
aI0
aI5715670
aS'_4445311776'
p110
aa(lp111
I1
aI0
aI0
aI0
aI1
aI0
aI1
aI0
aI1
aI0
aI1
aI0
aI1
aI0
aI1
aI0
aI4492800
aS'_4445311776'
p112
aa(lp113
I1
aI0
aI0
aI0
aI1
aI0
aI1
aI0
aI1
aI1
aI0
aI0
aI1
aI1
aI0
aI0
aI2760299
aS'_4445311776'
p114
aaaa(lp115
S'_4445311920'
p116
a(lp117
(lp118
I1
aI1
aI0
aI1
aI0
aI1
aI1
aI1
aI1
aI0
aI1
aI0
aI1
aI1
aI0
aI0
aI2863370
ag116
aa(lp119
I1
aI1
aI1
aI1
aI0
aI1
aI0
aI1
aI1
aI0
aI1
aI0
aI1
aI0
aI0
aI1
aI6832569
aS'_4445311920'
p120
aa(lp121
I1
aI1
aI0
aI0
aI0
aI1
aI1
aI0
aI1
aI0
aI0
aI1
aI1
aI0
aI1
aI0
aI4149970
aS'_4445311920'
p122
aa(lp123
I1
aI1
aI0
aI1
aI0
aI1
aI1
aI1
aI1
aI1
aI0
aI0
aI1
aI1
aI0
aI0
aI2864400
aS'_4445311920'
p124
aa(lp125
I1
aI1
aI1
aI1
aI1
aI1
aI1
aI1
aI1
aI1
aI0
aI0
aI1
aI1
aI0
aI0
aI2792670
aS'_4445311920'
p126
aa(lp127
I1
aI1
aI0
aI1
aI1
aI0
aI1
aI1
aI1
aI1
aI0
aI0
aI1
aI1
aI0
aI0
aI2605500
aS'_4445311920'
p128
aa(lp129
I1
aI1
aI0
aI1
aI0
aI1
aI0
aI0
aI1
aI0
aI0
aI1
aI1
aI0
aI1
aI0
aI4943400
aS'_4445311920'
p130
aa(lp131
I1
aI1
aI0
aI1
aI1
aI1
aI0
aI1
aI1
aI1
aI0
aI0
aI1
aI0
aI1
aI0
aI5445069
aS'_4445311920'
p132
aaaa(lp133
S'_4445314440'
p134
a(lp135
(lp136
I1
aI0
aI0
aI0
aI0
aI0
aI0
aI1
aI1
aI0
aI1
aI0
aI1
aI0
aI0
aI1
aI6126430
ag134
aa(lp137
I1
aI0
aI1
aI1
aI1
aI0
aI0
aI1
aI1
aI0
aI1
aI0
aI1
aI0
aI0
aI1
aI7332170
aS'_4445314440'
p138
aa(lp139
I1
aI0
aI0
aI0
aI1
aI0
aI1
aI1
aI1
aI0
aI1
aI0
aI1
aI0
aI0
aI1
aI6320630
aS'_4445314440'
p140
aa(lp141
I1
aI1
aI1
aI0
aI0
aI1
aI0
aI1
aI1
aI0
aI1
aI0
aI1
aI0
aI0
aI1
aI6804770
aS'_4445314440'
p142
aa(lp143
I1
aI0
aI1
aI1
aI0
aI0
aI1
aI0
aI1
aI0
aI1
aI0
aI1
aI0
aI1
aI0
aI3794570
aS'_4445314440'
p144
aa(lp145
I1
aI0
aI1
aI0
aI1
aI0
aI0
aI0
aI1
aI0
aI1
aI0
aI1
aI0
aI0
aI1
aI7313529
aS'_4445314440'
p146
aa(lp147
I1
aI1
aI1
aI0
aI0
aI1
aI1
aI1
aI1
aI0
aI1
aI0
aI1
aI0
aI0
aI1
aI5563070
aS'_4445314440'
p148
aa(lp149
I1
aI1
aI1
aI0
aI1
aI0
aI1
aI0
aI1
aI0
aI1
aI0
aI1
aI0
aI0
aI1
aI6109570
aS'_4445314440'
p150
aaaa(lp151
S'_4445311416'
p152
a(lp153
(lp154
I1
aI0
aI0
aI0
aI1
aI1
aI1
aI0
aI1
aI0
aI0
aI1
aI1
aI0
aI0
aI1
aI6726000
ag152
aa(lp155
I1
aI0
aI0
aI0
aI0
aI1
aI0
aI0
aI1
aI0
aI1
aI0
aI1
aI0
aI1
aI0
aI5195830
aS'_4445311416'
p156
aa(lp157
I1
aI0
aI1
aI1
aI1
aI1
aI1
aI1
aI1
aI0
aI0
aI1
aI1
aI0
aI1
aI0
aI4760930
aS'_4445311416'
p158
aa(lp159
I1
aI1
aI0
aI1
aI1
aI1
aI0
aI0
aI1
aI0
aI1
aI0
aI1
aI0
aI0
aI1
aI7838769
aS'_4445311416'
p160
aa(lp161
I1
aI1
aI1
aI1
aI1
aI1
aI0
aI1
aI1
aI1
aI0
aI0
aI1
aI0
aI1
aI0
aI5369500
aS'_4445311416'
p162
aa(lp163
I1
aI1
aI0
aI1
aI1
aI1
aI0
aI1
aI1
aI0
aI0
aI1
aI1
aI0
aI1
aI0
aI5445800
aS'_4445311416'
p164
aa(lp165
I1
aI1
aI0
aI1
aI1
aI0
aI0
aI1
aI1
aI0
aI0
aI1
aI1
aI0
aI1
aI0
aI4954500
aS'_4445311416'
p166
aaaa(lp167
S'_4445312280'
p168
a(lp169
(lp170
I1
aI1
aI0
aI0
aI0
aI0
aI1
aI0
aI1
aI0
aI0
aI1
aI1
aI1
aI0
aI0
aI2581130
ag168
aa(lp171
I1
aI1
aI0
aI0
aI0
aI1
aI0
aI0
aI1
aI0
aI0
aI1
aI1
aI1
aI0
aI0
aI2871130
aS'_4445312280'
p172
aa(lp173
I1
aI0
aI1
aI0
aI1
aI1
aI1
aI1
aI1
aI0
aI0
aI1
aI1
aI0
aI1
aI0
aI4769000
aS'_4445312280'
p174
aa(lp175
I1
aI1
aI1
aI1
aI1
aI0
aI0
aI0
aI1
aI0
aI0
aI1
aI1
aI0
aI1
aI0
aI4887730
aS'_4445312280'
p176
aa(lp177
I1
aI0
aI1
aI1
aI0
aI0
aI0
aI1
aI1
aI0
aI0
aI1
aI1
aI0
aI1
aI0
aI4404100
aS'_4445312280'
p178
aa(lp179
I1
aI1
aI0
aI0
aI0
aI1
aI0
aI1
aI1
aI0
aI0
aI1
aI1
aI0
aI0
aI1
aI6870330
aS'_4445312280'
p180
aa(lp181
I1
aI1
aI1
aI1
aI0
aI1
aI0
aI1
aI1
aI0
aI0
aI1
aI1
aI0
aI1
aI0
aI4871170
aS'_4445312280'
p182
aa(lp183
I1
aI1
aI1
aI0
aI0
aI0
aI0
aI0
aI1
aI0
aI0
aI1
aI1
aI0
aI1
aI0
aI4197000
aS'_4445312280'
p184
aaaa(lp185
S'_4445311992'
p186
a(lp187
(lp188
I1
aI0
aI0
aI1
aI0
aI1
aI0
aI1
aI1
aI0
aI0
aI1
aI1
aI0
aI0
aI1
aI7266000
ag186
aa(lp189
I1
aI0
aI0
aI1
aI1
aI0
aI0
aI1
aI1
aI0
aI0
aI1
aI1
aI0
aI1
aI0
aI5185670
aS'_4445311992'
p190
aa(lp191
I1
aI1
aI1
aI1
aI0
aI0
aI0
aI0
aI1
aI0
aI0
aI1
aI1
aI0
aI0
aI1
aI5849770
aS'_4445311992'
p192
aa(lp193
I1
aI1
aI1
aI1
aI1
aI0
aI0
aI1
aI1
aI0
aI0
aI1
aI1
aI0
aI0
aI1
aI7074930
aS'_4445311992'
p194
aa(lp195
I1
aI1
aI1
aI1
aI1
aI1
aI0
aI1
aI1
aI0
aI0
aI1
aI1
aI0
aI0
aI1
aI7756799
aS'_4445311992'
p196
aa(lp197
I1
aI1
aI1
aI1
aI1
aI0
aI0
aI1
aI1
aI0
aI0
aI1
aI1
aI0
aI1
aI0
aI4882600
aS'_4445311992'
p198
aa(lp199
I1
aI1
aI1
aI1
aI0
aI0
aI0
aI0
aI1
aI0
aI1
aI0
aI1
aI0
aI0
aI1
aI5835270
aS'_4445311992'
p200
aaaa(lp201
S'_4445314656'
p202
a(lp203
(lp204
I1
aI0
aI1
aI1
aI0
aI1
aI0
aI1
aI1
aI1
aI0
aI0
aI1
aI0
aI1
aI0
aI5128700
ag202
aa(lp205
I1
aI1
aI1
aI0
aI0
aI1
aI0
aI0
aI1
aI1
aI0
aI0
aI1
aI0
aI0
aI1
aI6806470
aS'_4445314656'
p206
aa(lp207
I1
aI0
aI1
aI1
aI0
aI1
aI1
aI1
aI1
aI1
aI0
aI0
aI1
aI0
aI0
aI1
aI5754770
aS'_4445314656'
p208
aa(lp209
I1
aI0
aI1
aI0
aI0
aI0
aI1
aI1
aI1
aI1
aI0
aI0
aI1
aI1
aI0
aI0
aI2603800
aS'_4445314656'
p210
aa(lp211
I1
aI1
aI1
aI1
aI1
aI0
aI0
aI1
aI1
aI1
aI0
aI0
aI1
aI0
aI0
aI1
aI7048070
aS'_4445314656'
p212
aa(lp213
I1
aI0
aI1
aI1
aI1
aI0
aI1
aI1
aI1
aI0
aI1
aI0
aI1
aI0
aI1
aI0
aI4443800
aS'_4445314656'
p214
aa(lp215
I1
aI0
aI1
aI1
aI0
aI0
aI1
aI1
aI1
aI0
aI1
aI0
aI1
aI1
aI0
aI0
aI2622770
aS'_4445314656'
p216
aaaa(lp217
S'_4445311056'
p218
a(lp219
(lp220
I1
aI0
aI0
aI0
aI0
aI0
aI0
aI0
aI1
aI0
aI1
aI0
aI1
aI1
aI0
aI0
aI2706570
ag218
aa(lp221
I1
aI1
aI0
aI0
aI1
aI1
aI1
aI1
aI1
aI1
aI0
aI0
aI1
aI0
aI0
aI1
aI6525500
aS'_4445311056'
p222
aa(lp223
I1
aI0
aI0
aI0
aI1
aI0
aI1
aI1
aI1
aI0
aI1
aI0
aI1
aI0
aI1
aI0
aI4491330
aS'_4445311056'
p224
aa(lp225
I1
aI1
aI1
aI1
aI1
aI0
aI1
aI0
aI1
aI1
aI0
aI0
aI1
aI0
aI0
aI1
aI6076269
aS'_4445311056'
p226
aa(lp227
I1
aI0
aI1
aI1
aI1
aI0
aI1
aI1
aI1
aI0
aI0
aI1
aI1
aI0
aI0
aI1
aI6278130
aS'_4445311056'
p228
aa(lp229
I1
aI0
aI1
aI0
aI0
aI0
aI1
aI1
aI1
aI0
aI0
aI1
aI1
aI0
aI0
aI1
aI5094730
aS'_4445311056'
p230
aa(lp231
I1
aI0
aI1
aI0
aI1
aI0
aI1
aI1
aI1
aI0
aI0
aI1
aI1
aI0
aI0
aI1
aI6293970
aS'_4445311056'
p232
aaaa(lp233
S'_4445312928'
p234
a(lp235
(lp236
I1
aI1
aI0
aI0
aI0
aI0
aI0
aI1
aI1
aI0
aI0
aI1
aI1
aI0
aI0
aI1
aI5882000
ag234
aa(lp237
I1
aI1
aI0
aI1
aI0
aI0
aI0
aI0
aI1
aI1
aI0
aI0
aI1
aI0
aI0
aI1
aI5886730
aS'_4445312928'
p238
aa(lp239
I1
aI0
aI0
aI1
aI0
aI0
aI1
aI0
aI1
aI0
aI0
aI1
aI1
aI0
aI0
aI1
aI5108370
aS'_4445312928'
p240
aa(lp241
I1
aI1
aI0
aI0
aI1
aI0
aI0
aI0
aI1
aI1
aI0
aI0
aI1
aI0
aI0
aI1
aI7112329
aS'_4445312928'
p242
aa(lp243
I1
aI0
aI0
aI0
aI0
aI0
aI1
aI1
aI1
aI1
aI0
aI0
aI1
aI0
aI0
aI1
aI5095230
aS'_4445312928'
p244
aa(lp245
I1
aI1
aI0
aI0
aI1
aI0
aI1
aI0
aI1
aI1
aI0
aI0
aI1
aI0
aI0
aI1
aI6153370
aS'_4445312928'
p246
aa(lp247
I1
aI1
aI1
aI1
aI0
aI0
aI1
aI0
aI1
aI1
aI0
aI0
aI1
aI0
aI0
aI1
aI4904730
aS'_4445312928'
p248
aaaa(lp249
S'_4445311704'
p250
a(lp251
(lp252
I1
aI1
aI1
aI0
aI0
aI0
aI1
aI0
aI1
aI0
aI1
aI0
aI1
aI1
aI0
aI0
aI2465430
ag250
aa(lp253
I1
aI1
aI0
aI1
aI0
aI0
aI1
aI0
aI1
aI0
aI1
aI0
aI1
aI1
aI0
aI0
aI2563399
aS'_4445311704'
p254
aa(lp255
I1
aI1
aI1
aI0
aI1
aI1
aI1
aI0
aI1
aI0
aI1
aI0
aI1
aI1
aI0
aI0
aI2797400
aS'_4445311704'
p256
aa(lp257
I1
aI1
aI1
aI1
aI0
aI1
aI1
aI0
aI1
aI0
aI1
aI0
aI1
aI0
aI0
aI1
aI5556130
aS'_4445311704'
p258
aa(lp259
I1
aI1
aI1
aI1
aI0
aI1
aI0
aI0
aI1
aI0
aI1
aI0
aI1
aI1
aI0
aI0
aI2755600
aS'_4445311704'
p260
aa(lp261
I1
aI1
aI0
aI0
aI1
aI1
aI1
aI0
aI1
aI0
aI0
aI1
aI1
aI1
aI0
aI0
aI2914830
aS'_4445311704'
p262
aa(lp263
I1
aI1
aI0
aI1
aI0
aI1
aI0
aI0
aI1
aI0
aI1
aI0
aI1
aI1
aI0
aI0
aI2864270
aS'_4445311704'
p264
aaaa.