(lp0
(lp1
S'_4518455200'
p2
a(lp3
(lp4
I1
aI0
aI0
aI1
aI0
aI0
aI0
aI1
aI0
aI1
aI1
aI2473700
ag2
aa(lp5
I1
aI0
aI0
aI0
aI1
aI1
aI0
aI1
aI0
aI0
aI1
aI2150200
aS'_4518455200'
p6
aa(lp7
I1
aI0
aI0
aI0
aI0
aI1
aI0
aI0
aI1
aI1
aI1
aI2167166
aS'_4518455200'
p8
aa(lp9
I1
aI0
aI0
aI0
aI1
aI1
aI0
aI0
aI0
aI1
aI1
aI2142433
aS'_4518455200'
p10
aa(lp11
I1
aI0
aI0
aI1
aI1
aI1
aI0
aI1
aI0
aI1
aI1
aI2607700
aS'_4518455200'
p12
aa(lp13
I1
aI1
aI0
aI0
aI1
aI1
aI0
aI0
aI0
aI1
aI1
aI2322166
aS'_4518455200'
p14
aa(lp15
I1
aI0
aI0
aI0
aI1
aI0
aI0
aI1
aI0
aI1
aI0
aI2040500
aS'_4518455200'
p16
aa(lp17
I1
aI0
aI0
aI0
aI1
aI1
aI0
aI0
aI0
aI1
aI0
aI2009233
aS'_4518455200'
p18
aa(lp19
I1
aI0
aI0
aI0
aI1
aI0
aI0
aI1
aI0
aI1
aI1
aI2171866
aS'_4518455200'
p20
aa(lp21
I1
aI0
aI0
aI0
aI1
aI1
aI0
aI1
aI1
aI1
aI1
aI2185033
aS'_4518455200'
p22
aa(lp23
I1
aI0
aI0
aI0
aI0
aI1
aI0
aI0
aI0
aI1
aI1
aI2134800
aS'_4518455200'
p24
aa(lp25
I1
aI1
aI0
aI0
aI0
aI0
aI0
aI1
aI0
aI1
aI1
aI2333266
aS'_4518455200'
p26
aa(lp27
I1
aI0
aI0
aI0
aI0
aI1
aI0
aI1
aI0
aI1
aI1
aI2146533
aS'_4518455200'
p28
aaaa(lp29
S'_4518456064'
p30
a(lp31
(lp32
I1
aI1
aI0
aI1
aI0
aI0
aI1
aI1
aI0
aI1
aI0
aI2334333
ag30
aa(lp33
I1
aI1
aI0
aI1
aI0
aI0
aI1
aI1
aI0
aI1
aI1
aI2460866
aS'_4518456064'
p34
aa(lp35
I1
aI1
aI0
aI1
aI0
aI0
aI1
aI1
aI0
aI0
aI0
aI2387800
aS'_4518456064'
p36
aa(lp37
I1
aI0
aI0
aI1
aI0
aI1
aI1
aI1
aI0
aI0
aI0
aI2182333
aS'_4518456064'
p38
aa(lp39
I1
aI1
aI0
aI0
aI0
aI0
aI1
aI1
aI0
aI1
aI1
aI2320266
aS'_4518456064'
p40
aa(lp41
I1
aI1
aI0
aI1
aI0
aI1
aI1
aI1
aI0
aI0
aI0
aI2376900
aS'_4518456064'
p42
aa(lp43
I1
aI1
aI1
aI1
aI0
aI1
aI1
aI1
aI0
aI0
aI0
aI2526833
aS'_4518456064'
p44
aa(lp45
I1
aI0
aI0
aI1
aI0
aI1
aI0
aI1
aI0
aI1
aI1
aI2637466
aS'_4518456064'
p46
aa(lp47
I1
aI1
aI0
aI0
aI0
aI0
aI1
aI1
aI1
aI0
aI1
aI2340533
aS'_4518456064'
p48
aa(lp49
I1
aI1
aI1
aI1
aI0
aI1
aI0
aI1
aI1
aI1
aI1
aI2665166
aS'_4518456064'
p50
aa(lp51
I1
aI1
aI1
aI0
aI0
aI1
aI1
aI1
aI1
aI1
aI1
aI2527700
aS'_4518456064'
p52
aa(lp53
I1
aI1
aI0
aI0
aI0
aI1
aI1
aI0
aI0
aI0
aI1
aI2378900
aS'_4518456064'
p54
aa(lp55
I1
aI1
aI0
aI0
aI0
aI1
aI0
aI0
aI0
aI1
aI1
aI2312166
aS'_4518456064'
p56
aaaa(lp57
S'_4518456136'
p58
a(lp59
(lp60
I1
aI1
aI0
aI0
aI0
aI1
aI1
aI1
aI1
aI0
aI1
aI2349500
ag58
aa(lp61
I1
aI1
aI1
aI1
aI0
aI1
aI0
aI0
aI0
aI1
aI1
aI2604966
aS'_4518456136'
p62
aa(lp63
I1
aI1
aI0
aI0
aI0
aI1
aI0
aI1
aI0
aI1
aI1
aI2318866
aS'_4518456136'
p64
aa(lp65
I1
aI1
aI0
aI0
aI1
aI1
aI1
aI1
aI0
aI0
aI0
aI2285633
aS'_4518456136'
p66
aa(lp67
I1
aI1
aI1
aI0
aI0
aI1
aI1
aI1
aI0
aI1
aI1
aI2494600
aS'_4518456136'
p68
aa(lp69
I1
aI1
aI1
aI1
aI0
aI1
aI1
aI1
aI0
aI0
aI1
aI2649266
aS'_4518456136'
p70
aa(lp71
I1
aI0
aI0
aI0
aI0
aI1
aI1
aI1
aI1
aI0
aI1
aI2176533
aS'_4518456136'
p72
aa(lp73
I1
aI1
aI1
aI0
aI1
aI0
aI1
aI1
aI0
aI1
aI1
aI2494100
aS'_4518456136'
p74
aa(lp75
I1
aI1
aI0
aI0
aI1
aI1
aI1
aI1
aI0
aI0
aI1
aI2562266
aS'_4518456136'
p76
aa(lp77
I1
aI1
aI0
aI0
aI0
aI1
aI0
aI1
aI0
aI0
aI1
aI2395933
aS'_4518456136'
p78
aa(lp79
I1
aI1
aI0
aI0
aI0
aI1
aI0
aI1
aI1
aI0
aI1
aI2374700
aS'_4518456136'
p80
aa(lp81
I1
aI1
aI1
aI0
aI1
aI1
aI0
aI1
aI0
aI1
aI1
aI2489033
aS'_4518456136'
p82
aa(lp83
I1
aI1
aI1
aI0
aI1
aI1
aI0
aI1
aI0
aI0
aI1
aI2528200
aS'_4518456136'
p84
aaaa(lp85
S'_4518814784'
p86
a(lp87
(lp88
I1
aI0
aI0
aI0
aI0
aI0
aI1
aI1
aI0
aI1
aI1
aI2152933
ag86
aa(lp89
I1
aI0
aI1
aI1
aI0
aI0
aI0
aI1
aI1
aI1
aI1
aI2463200
aS'_4518814784'
p90
aa(lp91
I1
aI0
aI1
aI1
aI1
aI0
aI1
aI1
aI1
aI1
aI0
aI2312066
aS'_4518814784'
p92
aa(lp93
I1
aI0
aI0
aI0
aI1
aI0
aI1
aI1
aI1
aI1
aI0
aI2071000
aS'_4518814784'
p94
aa(lp95
I1
aI1
aI0
aI0
aI0
aI0
aI1
aI0
aI1
aI1
aI1
aI2351200
aS'_4518814784'
p96
aa(lp97
I1
aI0
aI1
aI1
aI0
aI0
aI1
aI1
aI1
aI1
aI1
aI2512366
aS'_4518814784'
p98
aa(lp99
I1
aI0
aI0
aI1
aI0
aI0
aI1
aI0
aI1
aI1
aI0
aI2158533
aS'_4518814784'
p100
aa(lp101
I1
aI0
aI0
aI0
aI1
aI0
aI1
aI1
aI1
aI1
aI1
aI2198733
aS'_4518814784'
p102
aa(lp103
I1
aI0
aI0
aI0
aI1
aI1
aI1
aI0
aI1
aI1
aI0
aI2049600
aS'_4518814784'
p104
aa(lp105
I1
aI0
aI0
aI0
aI0
aI1
aI1
aI0
aI1
aI1
aI1
aI2162300
aS'_4518814784'
p106
aa(lp107
I1
aI0
aI0
aI1
aI1
aI0
aI1
aI0
aI1
aI1
aI0
aI2138466
aS'_4518814784'
p108
aa(lp109
I1
aI0
aI0
aI1
aI0
aI0
aI0
aI0
aI1
aI1
aI1
aI2461266
aS'_4518814784'
p110
aa(lp111
I1
aI0
aI0
aI1
aI1
aI0
aI1
aI0
aI1
aI1
aI1
aI2595000
aS'_4518814784'
p112
aaaa(lp113
S'_4518817088'
p114
a(lp115
(lp116
I1
aI0
aI1
aI0
aI0
aI1
aI0
aI0
aI1
aI1
aI1
aI2334300
ag114
aa(lp117
I1
aI0
aI1
aI0
aI0
aI0
aI0
aI0
aI1
aI1
aI0
aI2192833
aS'_4518817088'
p118
aa(lp119
I1
aI0
aI1
aI0
aI1
aI0
aI0
aI0
aI1
aI1
aI1
aI2332300
aS'_4518817088'
p120
aa(lp121
I1
aI0
aI0
aI0
aI0
aI0
aI1
aI0
aI1
aI1
aI1
aI2184333
aS'_4518817088'
p122
aa(lp123
I1
aI0
aI1
aI0
aI1
aI1
aI0
aI0
aI0
aI1
aI0
aI2181233
aS'_4518817088'
p124
aa(lp125
I1
aI0
aI1
aI0
aI1
aI0
aI1
aI1
aI1
aI1
aI1
aI2372266
aS'_4518817088'
p126
aa(lp127
I1
aI0
aI1
aI1
aI1
aI0
aI0
aI0
aI1
aI1
aI0
aI2282566
aS'_4518817088'
p128
aa(lp129
I1
aI0
aI1
aI0
aI1
aI0
aI0
aI1
aI1
aI0
aI1
aI2317566
aS'_4518817088'
p130
aa(lp131
I1
aI1
aI1
aI0
aI1
aI0
aI1
aI0
aI1
aI1
aI1
aI2534900
aS'_4518817088'
p132
aa(lp133
I1
aI0
aI1
aI0
aI1
aI1
aI1
aI1
aI1
aI0
aI1
aI2363066
aS'_4518817088'
p134
aa(lp135
I1
aI1
aI1
aI0
aI1
aI1
aI0
aI0
aI1
aI0
aI0
aI2439633
aS'_4518817088'
p136
aa(lp137
I1
aI1
aI1
aI0
aI1
aI0
aI0
aI0
aI0
aI1
aI0
aI2380966
aS'_4518817088'
p138
aa(lp139
I1
aI0
aI1
aI0
aI1
aI0
aI1
aI0
aI1
aI1
aI0
aI2223666
aS'_4518817088'
p140
aaaa(lp141
S'_4445225832'
p142
a(lp143
(lp144
I1
aI0
aI1
aI0
aI0
aI1
aI0
aI0
aI1
aI0
aI1
aI2326366
ag142
aa(lp145
I1
aI0
aI1
aI1
aI0
aI0
aI1
aI0
aI0
aI0
aI1
aI2501633
aS'_4445225832'
p146
aa(lp147
I1
aI0
aI1
aI0
aI0
aI0
aI0
aI0
aI0
aI0
aI0
aI2196366
aS'_4445225832'
p148
aa(lp149
I1
aI0
aI1
aI1
aI1
aI1
aI0
aI0
aI0
aI0
aI1
aI2693800
aS'_4445225832'
p150
aa(lp151
I1
aI0
aI1
aI1
aI0
aI1
aI0
aI0
aI1
aI0
aI1
aI2492533
aS'_4445225832'
p152
aa(lp153
I1
aI0
aI1
aI1
aI0
aI1
aI1
aI0
aI1
aI0
aI0
aI2282666
aS'_4445225832'
p154
aa(lp155
I1
aI0
aI1
aI0
aI0
aI1
aI0
aI0
aI0
aI0
aI1
aI2371033
aS'_4445225832'
p156
aa(lp157
I1
aI0
aI1
aI1
aI0
aI0
aI0
aI1
aI0
aI1
aI1
aI2490533
aS'_4445225832'
p158
aa(lp159
I1
aI0
aI0
aI1
aI0
aI1
aI1
aI0
aI1
aI0
aI0
aI2143800
aS'_4445225832'
p160
aa(lp161
I1
aI0
aI1
aI1
aI0
aI1
aI0
aI0
aI1
aI1
aI1
aI2490133
aS'_4445225832'
p162
aa(lp163
I1
aI0
aI1
aI1
aI0
aI1
aI0
aI0
aI0
aI0
aI1
aI2522666
aS'_4445225832'
p164
aa(lp165
I1
aI0
aI1
aI1
aI0
aI1
aI0
aI0
aI0
aI1
aI1
aI2466100
aS'_4445225832'
p166
aa(lp167
I1
aI0
aI1
aI1
aI0
aI1
aI0
aI0
aI0
aI0
aI0
aI2305366
aS'_4445225832'
p168
aaaa(lp169
S'_4518454264'
p170
a(lp171
(lp172
I1
aI0
aI1
aI0
aI0
aI1
aI1
aI1
aI1
aI1
aI0
aI2232866
ag170
aa(lp173
I1
aI0
aI0
aI0
aI0
aI0
aI1
aI1
aI1
aI1
aI0
aI2059900
aS'_4518454264'
p174
aa(lp175
I1
aI0
aI0
aI0
aI1
aI0
aI0
aI1
aI0
aI0
aI0
aI2046866
aS'_4518454264'
p176
aa(lp177
I1
aI0
aI1
aI0
aI1
aI1
aI1
aI1
aI0
aI1
aI0
aI2208200
aS'_4518454264'
p178
aa(lp179
I1
aI0
aI1
aI0
aI1
aI0
aI1
aI1
aI0
aI0
aI0
aI2210566
aS'_4518454264'
p180
aa(lp181
I1
aI0
aI0
aI0
aI0
aI1
aI1
aI1
aI0
aI1
aI0
aI2031900
aS'_4518454264'
p182
aa(lp183
I1
aI0
aI1
aI0
aI1
aI1
aI0
aI1
aI1
aI0
aI0
aI2190766
aS'_4518454264'
p184
aa(lp185
I1
aI0
aI0
aI0
aI1
aI0
aI1
aI1
aI0
aI0
aI0
aI2078899
aS'_4518454264'
p186
aa(lp187
I1
aI0
aI0
aI0
aI0
aI1
aI1
aI1
aI1
aI1
aI0
aI2063500
aS'_4518454264'
p188
aa(lp189
I1
aI1
aI0
aI0
aI1
aI0
aI1
aI1
aI0
aI0
aI0
aI2317966
aS'_4518454264'
p190
aa(lp191
I1
aI0
aI0
aI0
aI1
aI1
aI1
aI0
aI0
aI1
aI0
aI2061166
aS'_4518454264'
p192
aa(lp193
I1
aI0
aI0
aI0
aI1
aI1
aI1
aI1
aI1
aI0
aI1
aI2190500
aS'_4518454264'
p194
aa(lp195
I1
aI0
aI0
aI0
aI1
aI1
aI1
aI1
aI1
aI0
aI0
aI2057066
aS'_4518454264'
p196
aaaa(lp197
S'_4518817664'
p198
a(lp199
(lp200
I1
aI0
aI1
aI0
aI0
aI0
aI0
aI0
aI1
aI0
aI0
aI2188166
ag198
aa(lp201
I1
aI1
aI1
aI0
aI0
aI0
aI0
aI1
aI1
aI0
aI0
aI2368866
aS'_4518817664'
p202
aa(lp203
I1
aI0
aI0
aI1
aI0
aI0
aI0
aI1
aI0
aI0
aI0
aI2131833
aS'_4518817664'
p204
aa(lp205
I1
aI1
aI0
aI0
aI0
aI0
aI1
aI1
aI1
aI0
aI0
aI2255033
aS'_4518817664'
p206
aa(lp207
I1
aI0
aI1
aI0
aI1
aI1
aI0
aI0
aI1
aI0
aI0
aI2203700
aS'_4518817664'
p208
aa(lp209
I1
aI0
aI0
aI1
aI1
aI1
aI0
aI0
aI1
aI0
aI0
aI2130966
aS'_4518817664'
p210
aa(lp211
I1
aI0
aI0
aI1
aI0
aI0
aI1
aI1
aI1
aI1
aI0
aI2158833
aS'_4518817664'
p212
aa(lp213
I1
aI0
aI0
aI1
aI0
aI0
aI0
aI1
aI1
aI0
aI0
aI2083700
aS'_4518817664'
p214
aa(lp215
I1
aI0
aI1
aI0
aI0
aI0
aI0
aI1
aI1
aI0
aI1
aI2310000
aS'_4518817664'
p216
aa(lp217
I1
aI0
aI0
aI1
aI1
aI1
aI1
aI0
aI1
aI0
aI0
aI2134066
aS'_4518817664'
p218
aa(lp219
I1
aI0
aI1
aI0
aI0
aI0
aI1
aI1
aI1
aI0
aI0
aI2210100
aS'_4518817664'
p220
aa(lp221
I1
aI0
aI0
aI1
aI0
aI0
aI1
aI1
aI1
aI0
aI0
aI2142500
aS'_4518817664'
p222
aa(lp223
I1
aI0
aI1
aI1
aI0
aI0
aI1
aI1
aI1
aI0
aI0
aI2306866
aS'_4518817664'
p224
aaaa(lp225
S'_4518456280'
p226
a(lp227
(lp228
I1
aI0
aI0
aI1
aI0
aI0
aI1
aI1
aI0
aI1
aI1
aI2610133
ag226
aa(lp229
I1
aI0
aI0
aI1
aI0
aI0
aI1
aI0
aI0
aI1
aI1
aI2569400
aS'_4518456280'
p230
aa(lp231
I1
aI0
aI0
aI1
aI0
aI0
aI1
aI0
aI1
aI1
aI1
aI2653800
aS'_4518456280'
p232
aa(lp233
I1
aI1
aI0
aI1
aI0
aI0
aI1
aI0
aI0
aI1
aI1
aI2463766
aS'_4518456280'
p234
aa(lp235
I1
aI0
aI0
aI1
aI1
aI0
aI1
aI0
aI0
aI0
aI1
aI2633100
aS'_4518456280'
p236
aa(lp237
I1
aI1
aI0
aI1
aI1
aI0
aI1
aI1
aI0
aI0
aI1
aI2495633
aS'_4518456280'
p238
aa(lp239
I1
aI1
aI0
aI1
aI0
aI0
aI0
aI0
aI0
aI1
aI1
aI2439333
aS'_4518456280'
p240
aa(lp241
I1
aI1
aI0
aI0
aI0
aI0
aI1
aI0
aI0
aI1
aI1
aI2304666
aS'_4518456280'
p242
aa(lp243
I1
aI1
aI0
aI0
aI0
aI0
aI1
aI1
aI0
aI0
aI1
aI2346966
aS'_4518456280'
p244
aa(lp245
I1
aI0
aI0
aI0
aI0
aI1
aI1
aI1
aI0
aI0
aI1
aI2154833
aS'_4518456280'
p246
aa(lp247
I1
aI0
aI0
aI1
aI0
aI1
aI1
aI1
aI1
aI0
aI1
aI2635700
aS'_4518456280'
p248
aa(lp249
I1
aI1
aI1
aI1
aI1
aI0
aI1
aI1
aI0
aI0
aI1
aI2641666
aS'_4518456280'
p250
aa(lp251
I1
aI1
aI0
aI1
aI0
aI0
aI1
aI0
aI1
aI0
aI1
aI2521266
aS'_4518456280'
p252
aaaa(lp253
S'_4518455488'
p254
a(lp255
(lp256
I1
aI1
aI1
aI1
aI0
aI1
aI0
aI1
aI0
aI1
aI0
aI2472666
ag254
aa(lp257
I1
aI1
aI1
aI1
aI0
aI1
aI1
aI1
aI0
aI1
aI0
aI2493433
aS'_4518455488'
p258
aa(lp259
I1
aI1
aI0
aI1
aI1
aI1
aI1
aI1
aI0
aI1
aI0
aI2368933
aS'_4518455488'
p260
aa(lp261
I1
aI1
aI1
aI1
aI1
aI1
aI1
aI1
aI0
aI0
aI0
aI2416933
aS'_4518455488'
p262
aa(lp263
I1
aI1
aI0
aI1
aI0
aI1
aI1
aI1
aI1
aI1
aI0
aI2415700
aS'_4518455488'
p264
aa(lp265
I1
aI0
aI0
aI1
aI0
aI1
aI1
aI1
aI0
aI1
aI0
aI2130000
aS'_4518455488'
p266
aa(lp267
I1
aI1
aI0
aI1
aI0
aI1
aI0
aI0
aI1
aI1
aI0
aI2353466
aS'_4518455488'
p268
aa(lp269
I1
aI1
aI0
aI1
aI0
aI1
aI1
aI0
aI0
aI1
aI0
aI2378666
aS'_4518455488'
p270
aa(lp271
I1
aI1
aI1
aI0
aI0
aI1
aI1
aI1
aI0
aI1
aI0
aI2409833
aS'_4518455488'
p272
aa(lp273
I1
aI1
aI1
aI1
aI1
aI1
aI1
aI1
aI0
aI1
aI0
aI2508633
aS'_4518455488'
p274
aa(lp275
I1
aI1
aI1
aI1
aI0
aI1
aI0
aI0
aI1
aI1
aI1
aI2629500
aS'_4518455488'
p276
aa(lp277
I1
aI0
aI1
aI1
aI0
aI1
aI0
aI1
aI1
aI1
aI1
aI2519133
aS'_4518455488'
p278
aaaa(lp279
S'_4518456568'
p280
a(lp281
(lp282
I1
aI0
aI0
aI1
aI0
aI1
aI0
aI0
aI1
aI1
aI1
aI2631300
ag280
aa(lp283
I1
aI0
aI0
aI1
aI0
aI1
aI1
aI0
aI1
aI1
aI1
aI2654000
aS'_4518456568'
p284
aa(lp285
I1
aI1
aI0
aI1
aI0
aI1
aI0
aI0
aI1
aI1
aI1
aI2493000
aS'_4518456568'
p286
aa(lp287
I1
aI1
aI0
aI1
aI1
aI1
aI0
aI0
aI1
aI1
aI1
aI2502300
aS'_4518456568'
p288
aa(lp289
I1
aI1
aI0
aI1
aI0
aI1
aI0
aI0
aI0
aI1
aI1
aI2457900
aS'_4518456568'
p290
aa(lp291
I1
aI0
aI0
aI1
aI0
aI1
aI1
aI0
aI0
aI1
aI1
aI2589000
aS'_4518456568'
p292
aa(lp293
I1
aI1
aI1
aI1
aI1
aI1
aI0
aI0
aI1
aI0
aI1
aI2654233
aS'_4518456568'
p294
aa(lp295
I1
aI0
aI1
aI1
aI1
aI1
aI1
aI0
aI1
aI0
aI1
aI2517866
aS'_4518456568'
p296
aa(lp297
I1
aI1
aI1
aI1
aI1
aI1
aI0
aI0
aI1
aI1
aI1
aI2638200
aS'_4518456568'
p298
aa(lp299
I1
aI0
aI0
aI1
aI1
aI1
aI0
aI0
aI0
aI0
aI1
aI2645100
aS'_4518456568'
p300
aa(lp301
I1
aI1
aI0
aI1
aI1
aI1
aI0
aI0
aI1
aI0
aI1
aI2510333
aS'_4518456568'
p302
aa(lp303
I1
aI0
aI0
aI1
aI1
aI1
aI1
aI0
aI0
aI0
aI1
aI2660266
aS'_4518456568'
p304
aa(lp305
I1
aI0
aI1
aI1
aI1
aI1
aI1
aI0
aI0
aI1
aI1
aI2493433
aS'_4518456568'
p306
aaaa(lp307
S'_4518816080'
p308
a(lp309
(lp310
I1
aI1
aI0
aI0
aI0
aI0
aI0
aI0
aI0
aI1
aI0
aI2191533
ag308
aa(lp311
I1
aI0
aI0
aI0
aI0
aI1
aI0
aI0
aI1
aI1
aI0
aI2035300
aS'_4518816080'
p312
aa(lp313
I1
aI1
aI0
aI0
aI0
aI0
aI0
aI1
aI1
aI1
aI0
aI2256200
aS'_4518816080'
p314
aa(lp315
I1
aI0
aI0
aI0
aI0
aI0
aI0
aI1
aI0
aI1
aI0
aI2031800
aS'_4518816080'
p316
aa(lp317
I1
aI0
aI0
aI1
aI0
aI0
aI0
aI0
aI0
aI1
aI0
aI2077466
aS'_4518816080'
p318
aa(lp319
I1
aI1
aI0
aI1
aI0
aI0
aI0
aI0
aI1
aI0
aI0
aI2362433
aS'_4518816080'
p320
aa(lp321
I1
aI0
aI0
aI0
aI1
aI1
aI0
aI0
aI1
aI0
aI0
aI2039333
aS'_4518816080'
p322
aa(lp323
I1
aI0
aI0
aI0
aI0
aI0
aI0
aI0
aI1
aI0
aI1
aI2132666
aS'_4518816080'
p324
aa(lp325
I1
aI0
aI0
aI0
aI0
aI1
aI1
aI0
aI1
aI1
aI0
aI2039766
aS'_4518816080'
p326
aa(lp327
I1
aI1
aI1
aI0
aI1
aI0
aI0
aI1
aI0
aI0
aI0
aI2460266
aS'_4518816080'
p328
aa(lp329
I1
aI0
aI0
aI1
aI1
aI0
aI0
aI0
aI0
aI0
aI0
aI2172900
aS'_4518816080'
p330
aa(lp331
I1
aI0
aI0
aI0
aI0
aI1
aI0
aI0
aI1
aI0
aI0
aI2018333
aS'_4518816080'
p332
aa(lp333
I1
aI0
aI0
aI0
aI0
aI0
aI0
aI1
aI1
aI0
aI1
aI2135333
aS'_4518816080'
p334
aaaa(lp335
S'_4445226336'
p336
a(lp337
(lp338
I1
aI1
aI1
aI0
aI0
aI1
aI0
aI1
aI1
aI0
aI1
aI2480633
ag336
aa(lp339
I1
aI1
aI1
aI0
aI0
aI0
aI1
aI1
aI1
aI0
aI1
aI2500500
aS'_4445226336'
p340
aa(lp341
I1
aI0
aI1
aI1
aI0
aI1
aI0
aI1
aI1
aI0
aI1
aI2498333
aS'_4445226336'
p342
aa(lp343
I1
aI1
aI1
aI0
aI0
aI1
aI0
aI0
aI1
aI0
aI1
aI2519333
aS'_4445226336'
p344
aa(lp345
I1
aI1
aI1
aI0
aI0
aI0
aI0
aI0
aI1
aI0
aI1
aI2499900
aS'_4445226336'
p346
aa(lp347
I1
aI1
aI1
aI1
aI0
aI1
aI0
aI1
aI0
aI0
aI1
aI2664500
aS'_4445226336'
p348
aa(lp349
I1
aI1
aI1
aI1
aI0
aI0
aI0
aI1
aI1
aI0
aI1
aI2580233
aS'_4445226336'
p350
aa(lp351
I1
aI0
aI1
aI1
aI0
aI0
aI1
aI1
aI1
aI0
aI1
aI2501200
aS'_4445226336'
p352
aa(lp353
I1
aI0
aI1
aI1
aI1
aI1
aI0
aI0
aI1
aI0
aI1
aI2497400
aS'_4445226336'
p354
aa(lp355
I1
aI0
aI1
aI1
aI0
aI0
aI0
aI1
aI1
aI0
aI1
aI2454966
aS'_4445226336'
p356
aa(lp357
I1
aI0
aI1
aI1
aI0
aI1
aI0
aI1
aI1
aI0
aI0
aI2290700
aS'_4445226336'
p358
aa(lp359
I1
aI0
aI1
aI1
aI0
aI1
aI0
aI1
aI0
aI0
aI1
aI2520933
aS'_4445226336'
p360
aaaa(lp361
S'_4518455704'
p362
a(lp363
(lp364
I1
aI0
aI0
aI1
aI1
aI0
aI0
aI0
aI1
aI0
aI1
aI2571700
ag362
aa(lp365
I1
aI0
aI0
aI1
aI1
aI0
aI0
aI0
aI1
aI1
aI1
aI2618366
aS'_4518455704'
p366
aa(lp367
I1
aI0
aI0
aI1
aI1
aI0
aI0
aI0
aI0
aI1
aI0
aI2089866
aS'_4518455704'
p368
aa(lp369
I1
aI1
aI0
aI0
aI1
aI0
aI0
aI0
aI0
aI0
aI1
aI2562233
aS'_4518455704'
p370
aa(lp371
I1
aI1
aI0
aI0
aI0
aI0
aI0
aI0
aI1
aI1
aI1
aI2321800
aS'_4518455704'
p372
aa(lp373
I1
aI0
aI1
aI0
aI1
aI0
aI0
aI1
aI1
aI1
aI1
aI2329833
aS'_4518455704'
p374
aa(lp375
I1
aI0
aI1
aI0
aI1
aI1
aI0
aI0
aI1
aI1
aI1
aI2357933
aS'_4518455704'
p376
aa(lp377
I1
aI1
aI0
aI0
aI1
aI0
aI0
aI1
aI0
aI0
aI1
aI2373333
aS'_4518455704'
p378
aa(lp379
I1
aI1
aI0
aI0
aI1
aI1
aI0
aI0
aI1
aI1
aI1
aI2347733
aS'_4518455704'
p380
aa(lp381
I1
aI0
aI0
aI1
aI1
aI1
aI0
aI0
aI0
aI1
aI0
aI2105066
aS'_4518455704'
p382
aa(lp383
I1
aI0
aI0
aI0
aI1
aI0
aI0
aI0
aI0
aI1
aI1
aI2129200
aS'_4518455704'
p384
aa(lp385
I1
aI0
aI0
aI0
aI1
aI0
aI0
aI1
aI0
aI0
aI1
aI2170633
aS'_4518455704'
p386
aa(lp387
I1
aI0
aI0
aI0
aI1
aI0
aI0
aI1
aI1
aI1
aI1
aI2150266
aS'_4518455704'
p388
aaaa(lp389
S'_4518453688'
p390
a(lp391
(lp392
I1
aI0
aI1
aI0
aI0
aI1
aI1
aI0
aI0
aI1
aI0
aI2221866
ag390
aa(lp393
I1
aI0
aI1
aI0
aI0
aI1
aI1
aI0
aI0
aI0
aI1
aI2344200
aS'_4518453688'
p394
aa(lp395
I1
aI0
aI0
aI0
aI0
aI1
aI1
aI1
aI0
aI0
aI0
aI2031900
aS'_4518453688'
p396
aa(lp397
I1
aI0
aI0
aI0
aI0
aI1
aI0
aI1
aI0
aI0
aI1
aI2193066
aS'_4518453688'
p398
aa(lp399
I1
aI1
aI1
aI0
aI1
aI1
aI0
aI0
aI0
aI0
aI1
aI2540733
aS'_4518453688'
p400
aa(lp401
I1
aI1
aI1
aI1
aI0
aI1
aI0
aI1
aI0
aI0
aI0
aI2532566
aS'_4518453688'
p402
aa(lp403
I1
aI1
aI0
aI1
aI0
aI1
aI0
aI1
aI0
aI0
aI0
aI2425466
aS'_4518453688'
p404
aa(lp405
I1
aI0
aI0
aI1
aI0
aI1
aI0
aI1
aI0
aI0
aI0
aI2148866
aS'_4518453688'
p406
aa(lp407
I1
aI0
aI0
aI1
aI0
aI1
aI1
aI0
aI0
aI0
aI0
aI2172366
aS'_4518453688'
p408
aa(lp409
I1
aI0
aI0
aI0
aI0
aI1
aI0
aI0
aI0
aI0
aI0
aI2069000
aS'_4518453688'
p410
aa(lp411
I1
aI1
aI0
aI1
aI0
aI1
aI0
aI0
aI0
aI0
aI0
aI2421566
aS'_4518453688'
p412
aa(lp413
I1
aI1
aI0
aI0
aI0
aI1
aI0
aI0
aI0
aI0
aI0
aI2307400
aS'_4518453688'
p414
aa(lp415
I1
aI1
aI0
aI0
aI0
aI1
aI0
aI0
aI1
aI0
aI0
aI2273933
aS'_4518453688'
p416
aaaa(lp417
S'_4518456424'
p418
a(lp419
(lp420
I1
aI1
aI1
aI0
aI1
aI0
aI0
aI0
aI0
aI0
aI1
aI2543400
ag418
aa(lp421
I1
aI1
aI1
aI0
aI1
aI0
aI1
aI1
aI0
aI0
aI0
aI2425600
aS'_4518456424'
p422
aa(lp423
I1
aI1
aI1
aI0
aI0
aI1
aI0
aI0
aI1
aI1
aI0
aI2409833
aS'_4518456424'
p424
aa(lp425
I1
aI1
aI1
aI0
aI0
aI1
aI1
aI0
aI0
aI1
aI0
aI2403400
aS'_4518456424'
p426
aa(lp427
I1
aI1
aI1
aI0
aI1
aI1
aI1
aI1
aI0
aI0
aI0
aI2446066
aS'_4518456424'
p428
aa(lp429
I1
aI1
aI1
aI0
aI0
aI0
aI1
aI0
aI1
aI0
aI0
aI2433666
aS'_4518456424'
p430
aa(lp431
I1
aI1
aI1
aI1
aI0
aI1
aI1
aI0
aI1
aI0
aI0
aI2491166
aS'_4518456424'
p432
aa(lp433
I1
aI1
aI1
aI1
aI1
aI0
aI1
aI0
aI1
aI0
aI0
aI2488933
aS'_4518456424'
p434
aa(lp435
I1
aI1
aI1
aI0
aI1
aI0
aI1
aI0
aI0
aI0
aI0
aI2444900
aS'_4518456424'
p436
aa(lp437
I1
aI0
aI1
aI1
aI1
aI1
aI1
aI0
aI0
aI0
aI0
aI2245066
aS'_4518456424'
p438
aa(lp439
I1
aI1
aI0
aI0
aI0
aI1
aI1
aI0
aI1
aI0
aI0
aI2243366
aS'_4518456424'
p440
aa(lp441
I1
aI0
aI1
aI0
aI0
aI1
aI1
aI0
aI1
aI0
aI0
aI2193333
aS'_4518456424'
p442
aa(lp443
I1
aI1
aI1
aI0
aI1
aI1
aI1
aI0
aI1
aI0
aI0
aI2412333
aS'_4518456424'
p444
aaaa(lp445
S'_4445228568'
p446
a(lp447
(lp448
I1
aI1
aI1
aI0
aI1
aI0
aI1
aI0
aI1
aI0
aI1
aI2494366
ag446
aa(lp449
I1
aI1
aI1
aI0
aI0
aI0
aI1
aI0
aI1
aI1
aI1
aI2508666
aS'_4445228568'
p450
aa(lp451
I1
aI0
aI1
aI0
aI1
aI0
aI1
aI0
aI1
aI0
aI1
aI2344666
aS'_4445228568'
p452
aa(lp453
I1
aI0
aI1
aI0
aI0
aI0
aI1
aI0
aI1
aI1
aI1
aI2360600
aS'_4445228568'
p454
aa(lp455
I1
aI0
aI1
aI0
aI0
aI0
aI1
aI0
aI1
aI0
aI1
aI2338500
aS'_4445228568'
p456
aa(lp457
I1
aI1
aI1
aI0
aI0
aI1
aI1
aI0
aI1
aI0
aI1
aI2537433
aS'_4445228568'
p458
aa(lp459
I1
aI0
aI0
aI0
aI0
aI0
aI1
aI0
aI0
aI1
aI1
aI2143700
aS'_4445228568'
p460
aa(lp461
I1
aI0
aI0
aI0
aI0
aI0
aI1
aI0
aI0
aI0
aI1
aI2173966
aS'_4445228568'
p462
aa(lp463
I1
aI0
aI0
aI0
aI0
aI1
aI1
aI0
aI0
aI0
aI1
aI2176800
aS'_4445228568'
p464
aa(lp465
I1
aI1
aI0
aI1
aI0
aI0
aI0
aI0
aI0
aI0
aI1
aI2403466
aS'_4445228568'
p466
aa(lp467
I1
aI0
aI1
aI1
aI0
aI0
aI1
aI0
aI0
aI1
aI1
aI2472533
aS'_4445228568'
p468
aa(lp469
I1
aI0
aI0
aI0
aI0
aI0
aI0
aI0
aI0
aI0
aI1
aI2588266
aS'_4445228568'
p470
aa(lp471
I1
aI1
aI1
aI1
aI0
aI0
aI0
aI0
aI0
aI1
aI1
aI2585566
aS'_4445228568'
p472
aaaa(lp473
S'_4518456208'
p474
a(lp475
(lp476
I1
aI1
aI0
aI0
aI1
aI0
aI1
aI1
aI0
aI0
aI1
aI2370633
ag474
aa(lp477
I1
aI1
aI0
aI1
aI0
aI1
aI1
aI0
aI0
aI0
aI1
aI2533933
aS'_4518456208'
p478
aa(lp479
I1
aI1
aI0
aI1
aI0
aI1
aI0
aI1
aI0
aI0
aI1
aI2519066
aS'_4518456208'
p480
aa(lp481
I1
aI1
aI0
aI1
aI0
aI1
aI0
aI1
aI1
aI0
aI1
aI2480700
aS'_4518456208'
p482
aa(lp483
I1
aI1
aI0
aI1
aI0
aI1
aI1
aI0
aI1
aI0
aI1
aI2486033
aS'_4518456208'
p484
aa(lp485
I1
aI1
aI0
aI1
aI1
aI1
aI0
aI1
aI0
aI0
aI1
aI2528933
aS'_4518456208'
p486
aa(lp487
I1
aI1
aI0
aI1
aI1
aI0
aI1
aI0
aI1
aI0
aI1
aI2477900
aS'_4518456208'
p488
aa(lp489
I1
aI1
aI0
aI1
aI1
aI0
aI0
aI0
aI0
aI0
aI1
aI2399633
aS'_4518456208'
p490
aa(lp491
I1
aI1
aI0
aI0
aI1
aI0
aI1
aI0
aI0
aI0
aI1
aI2382033
aS'_4518456208'
p492
aa(lp493
I1
aI1
aI0
aI0
aI1
aI0
aI1
aI0
aI1
aI0
aI1
aI2369766
aS'_4518456208'
p494
aa(lp495
I1
aI1
aI0
aI0
aI1
aI1
aI1
aI0
aI1
aI0
aI1
aI2385566
aS'_4518456208'
p496
aa(lp497
I1
aI1
aI0
aI0
aI1
aI1
aI0
aI0
aI0
aI0
aI1
aI2556433
aS'_4518456208'
p498
aa(lp499
I1
aI1
aI0
aI0
aI1
aI1
aI0
aI0
aI1
aI0
aI1
aI2366400
aS'_4518456208'
p500
aaaa(lp501
S'_4518456784'
p502
a(lp503
(lp504
I1
aI0
aI1
aI1
aI1
aI0
aI1
aI1
aI1
aI1
aI1
aI2512466
ag502
aa(lp505
I1
aI0
aI0
aI1
aI1
aI1
aI1
aI1
aI1
aI1
aI1
aI2665400
aS'_4518456784'
p506
aa(lp507
I1
aI0
aI1
aI1
aI1
aI1
aI1
aI1
aI1
aI1
aI0
aI2251566
aS'_4518456784'
p508
aa(lp509
I1
aI0
aI1
aI1
aI1
aI1
aI0
aI1
aI1
aI1
aI1
aI2485833
aS'_4518456784'
p510
aa(lp511
I1
aI0
aI0
aI1
aI1
aI0
aI1
aI1
aI0
aI1
aI1
aI2608233
aS'_4518456784'
p512
aa(lp513
I1
aI1
aI1
aI1
aI1
aI0
aI1
aI1
aI1
aI1
aI0
aI2553633
aS'_4518456784'
p514
aa(lp515
I1
aI0
aI1
aI1
aI1
aI0
aI0
aI1
aI1
aI1
aI0
aI2316866
aS'_4518456784'
p516
aa(lp517
I1
aI1
aI1
aI0
aI1
aI1
aI1
aI1
aI1
aI1
aI0
aI2471666
aS'_4518456784'
p518
aa(lp519
I1
aI0
aI1
aI1
aI0
aI1
aI0
aI1
aI1
aI1
aI0
aI2307933
aS'_4518456784'
p520
aa(lp521
I1
aI1
aI0
aI0
aI1
aI1
aI1
aI1
aI1
aI1
aI1
aI2526233
aS'_4518456784'
p522
aa(lp523
I1
aI0
aI0
aI1
aI1
aI1
aI1
aI1
aI1
aI1
aI0
aI2186233
aS'_4518456784'
p524
aa(lp525
I1
aI0
aI0
aI1
aI1
aI0
aI1
aI1
aI0
aI1
aI0
aI2124500
aS'_4518456784'
p526
aa(lp527
I1
aI1
aI0
aI1
aI1
aI1
aI1
aI1
aI1
aI1
aI0
aI2542433
aS'_4518456784'
p528
aaaa(lp529
S'_4518457072'
p530
a(lp531
(lp532
I1
aI1
aI0
aI1
aI1
aI1
aI0
aI1
aI1
aI1
aI1
aI2537400
ag530
aa(lp533
I1
aI0
aI0
aI0
aI1
aI0
aI0
aI1
aI1
aI1
aI0
aI2026900
aS'_4518457072'
p534
aa(lp535
I1
aI0
aI0
aI1
aI1
aI1
aI0
aI1
aI1
aI1
aI0
aI2159466
aS'_4518457072'
p536
aa(lp537
I1
aI1
aI0
aI1
aI1
aI0
aI1
aI1
aI0
aI1
aI0
aI2350300
aS'_4518457072'
p538
aa(lp539
I1
aI1
aI0
aI0
aI1
aI1
aI1
aI1
aI1
aI0
aI1
aI2534700
aS'_4518457072'
p540
aa(lp541
I1
aI1
aI0
aI1
aI1
aI0
aI1
aI1
aI1
aI1
aI0
aI2425000
aS'_4518457072'
p542
aa(lp543
I1
aI0
aI0
aI1
aI1
aI0
aI0
aI1
aI1
aI1
aI0
aI2169133
aS'_4518457072'
p544
aa(lp545
I1
aI0
aI0
aI1
aI1
aI0
aI0
aI0
aI1
aI1
aI0
aI2129266
aS'_4518457072'
p546
aa(lp547
I1
aI1
aI0
aI1
aI1
aI0
aI1
aI1
aI1
aI0
aI0
aI2375233
aS'_4518457072'
p548
aa(lp549
I1
aI1
aI0
aI0
aI1
aI1
aI1
aI1
aI1
aI0
aI0
aI2271200
aS'_4518457072'
p550
aa(lp551
I1
aI1
aI0
aI1
aI1
aI1
aI0
aI1
aI1
aI1
aI0
aI2392433
aS'_4518457072'
p552
aa(lp553
I1
aI1
aI0
aI1
aI1
aI0
aI0
aI1
aI1
aI1
aI0
aI2368400
aS'_4518457072'
p554
aa(lp555
I1
aI1
aI0
aI1
aI1
aI0
aI0
aI0
aI1
aI0
aI0
aI2374966
aS'_4518457072'
p556
aaaa(lp557
S'_4518817376'
p558
a(lp559
(lp560
I1
aI1
aI1
aI0
aI1
aI0
aI0
aI1
aI1
aI0
aI0
aI2442600
ag558
aa(lp561
I1
aI0
aI0
aI0
aI1
aI0
aI1
aI0
aI1
aI1
aI1
aI2180200
aS'_4518817376'
p562
aa(lp563
I1
aI0
aI1
aI0
aI1
aI1
aI1
aI0
aI1
aI0
aI0
aI2221633
aS'_4518817376'
p564
aa(lp565
I1
aI0
aI1
aI0
aI1
aI0
aI0
aI0
aI0
aI0
aI1
aI2376966
aS'_4518817376'
p566
aa(lp567
I1
aI0
aI0
aI0
aI1
aI0
aI1
aI0
aI1
aI0
aI1
aI2158533
aS'_4518817376'
p568
aa(lp569
I1
aI0
aI0
aI0
aI1
aI0
aI1
aI0
aI0
aI1
aI1
aI2148866
aS'_4518817376'
p570
aa(lp571
I1
aI0
aI0
aI0
aI1
aI0
aI1
aI0
aI1
aI1
aI0
aI2050866
aS'_4518817376'
p572
aa(lp573
I1
aI0
aI0
aI0
aI1
aI1
aI1
aI0
aI1
aI0
aI0
aI2028100
aS'_4518817376'
p574
aa(lp575
I1
aI0
aI1
aI0
aI1
aI0
aI1
aI0
aI1
aI0
aI0
aI2216233
aS'_4518817376'
p576
aa(lp577
I1
aI1
aI1
aI0
aI1
aI0
aI0
aI0
aI0
aI0
aI0
aI2459366
aS'_4518817376'
p578
aa(lp579
I1
aI0
aI0
aI0
aI1
aI0
aI1
aI0
aI0
aI1
aI0
aI2017033
aS'_4518817376'
p580
aa(lp581
I1
aI0
aI0
aI1
aI1
aI0
aI1
aI0
aI0
aI1
aI0
aI2153133
aS'_4518817376'
p582
aa(lp583
I1
aI0
aI0
aI0
aI1
aI0
aI1
aI0
aI0
aI0
aI0
aI2072333
aS'_4518817376'
p584
aaaa(lp585
S'_4518456640'
p586
a(lp587
(lp588
I1
aI1
aI0
aI0
aI1
aI1
aI0
aI1
aI1
aI0
aI0
aI2260866
ag586
aa(lp589
I1
aI1
aI0
aI0
aI1
aI0
aI0
aI1
aI1
aI0
aI1
aI2314433
aS'_4518456640'
p590
aa(lp591
I1
aI1
aI1
aI0
aI1
aI1
aI0
aI1
aI0
aI0
aI0
aI2442833
aS'_4518456640'
p592
aa(lp593
I1
aI1
aI1
aI0
aI1
aI1
aI0
aI1
aI0
aI1
aI0
aI2402100
aS'_4518456640'
p594
aa(lp595
I1
aI1
aI0
aI0
aI1
aI0
aI0
aI1
aI1
aI1
aI1
aI2353133
aS'_4518456640'
p596
aa(lp597
I1
aI1
aI0
aI1
aI1
aI0
aI0
aI1
aI0
aI0
aI0
aI2395633
aS'_4518456640'
p598
aa(lp599
I1
aI1
aI0
aI0
aI1
aI0
aI0
aI1
aI0
aI1
aI0
aI2256866
aS'_4518456640'
p600
aa(lp601
I1
aI1
aI0
aI0
aI1
aI0
aI1
aI1
aI0
aI1
aI0
aI2242966
aS'_4518456640'
p602
aa(lp603
I1
aI1
aI0
aI1
aI1
aI0
aI1
aI1
aI1
aI0
aI1
aI2490866
aS'_4518456640'
p604
aa(lp605
I1
aI1
aI1
aI0
aI1
aI1
aI1
aI1
aI0
aI1
aI0
aI2417800
aS'_4518456640'
p606
aa(lp607
I1
aI1
aI0
aI1
aI0
aI0
aI0
aI1
aI1
aI1
aI0
aI2359200
aS'_4518456640'
p608
aa(lp609
I1
aI1
aI1
aI1
aI0
aI1
aI0
aI1
aI1
aI1
aI0
aI2542566
aS'_4518456640'
p610
aaaa(lp611
S'_4518454120'
p612
a(lp613
(lp614
I1
aI0
aI1
aI0
aI0
aI0
aI0
aI1
aI0
aI1
aI1
aI2336600
ag612
aa(lp615
I1
aI0
aI1
aI0
aI0
aI0
aI0
aI1
aI0
aI0
aI1
aI2342666
aS'_4518454120'
p616
aa(lp617
I1
aI0
aI1
aI0
aI0
aI1
aI0
aI0
aI0
aI1
aI0
aI2176966
aS'_4518454120'
p618
aa(lp619
I1
aI0
aI1
aI1
aI0
aI0
aI1
aI1
aI0
aI1
aI0
aI2271900
aS'_4518454120'
p620
aa(lp621
I1
aI0
aI1
aI0
aI0
aI1
aI0
aI1
aI1
aI1
aI1
aI2365300
aS'_4518454120'
p622
aa(lp623
I1
aI0
aI0
aI0
aI0
aI0
aI1
aI1
aI0
aI1
aI0
aI2018966
aS'_4518454120'
p624
aa(lp625
I1
aI0
aI1
aI0
aI0
aI1
aI0
aI0
aI1
aI1
aI0
aI2203866
aS'_4518454120'
p626
aa(lp627
I1
aI0
aI1
aI1
aI1
aI0
aI0
aI1
aI0
aI0
aI0
aI2321433
aS'_4518454120'
p628
aa(lp629
I1
aI1
aI0
aI0
aI0
aI0
aI1
aI1
aI0
aI1
aI0
aI2234933
aS'_4518454120'
p630
aa(lp631
I1
aI0
aI1
aI1
aI1
aI0
aI1
aI1
aI0
aI0
aI0
aI2275300
aS'_4518454120'
p632
aa(lp633
I1
aI0
aI0
aI0
aI1
aI0
aI1
aI1
aI0
aI0
aI1
aI2198266
aS'_4518454120'
p634
aa(lp635
I1
aI0
aI0
aI0
aI0
aI1
aI0
aI1
aI0
aI0
aI0
aI2071200
aS'_4518454120'
p636
aaaa(lp637
S'_4518454984'
p638
a(lp639
(lp640
I1
aI0
aI0
aI1
aI1
aI1
aI0
aI1
aI1
aI1
aI1
aI2640400
ag638
aa(lp641
I1
aI0
aI0
aI1
aI0
aI0
aI1
aI1
aI1
aI1
aI1
aI2646400
aS'_4518454984'
p642
aa(lp643
I1
aI1
aI0
aI1
aI0
aI1
aI0
aI1
aI1
aI1
aI0
aI2393200
aS'_4518454984'
p644
aa(lp645
I1
aI0
aI0
aI0
aI1
aI1
aI0
aI1
aI1
aI0
aI1
aI2174033
aS'_4518454984'
p646
aa(lp647
I1
aI1
aI0
aI0
aI0
aI0
aI0
aI1
aI0
aI1
aI0
aI2247333
aS'_4518454984'
p648
aa(lp649
I1
aI0
aI1
aI0
aI1
aI1
aI0
aI1
aI1
aI1
aI1
aI2359600
aS'_4518454984'
p650
aa(lp651
I1
aI1
aI0
aI0
aI0
aI1
aI0
aI1
aI1
aI0
aI0
aI2293133
aS'_4518454984'
p652
aa(lp653
I1
aI1
aI0
aI1
aI0
aI0
aI0
aI1
aI0
aI1
aI1
aI2476266
aS'_4518454984'
p654
aa(lp655
I1
aI1
aI0
aI0
aI0
aI1
aI0
aI1
aI1
aI1
aI1
aI2365866
aS'_4518454984'
p656
aa(lp657
I1
aI1
aI0
aI0
aI0
aI0
aI0
aI1
aI1
aI1
aI1
aI2341000
aS'_4518454984'
p658
aa(lp659
I1
aI1
aI0
aI0
aI0
aI0
aI0
aI1
aI1
aI0
aI1
aI2302366
aS'_4518454984'
p660
aa(lp661
I1
aI1
aI1
aI0
aI0
aI1
aI0
aI1
aI1
aI1
aI1
aI2514333
aS'_4518454984'
p662
aa(lp663
I1
aI1
aI1
aI0
aI0
aI0
aI0
aI1
aI1
aI1
aI1
aI2502400
aS'_4518454984'
p664
aaaa(lp665
S'_4518455272'
p666
a(lp667
(lp668
I1
aI0
aI0
aI1
aI1
aI1
aI1
aI0
aI0
aI1
aI0
aI2169233
ag666
aa(lp669
I1
aI0
aI0
aI1
aI1
aI1
aI0
aI0
aI1
aI1
aI0
aI2157333
aS'_4518455272'
p670
aa(lp671
I1
aI0
aI0
aI1
aI1
aI1
aI0
aI1
aI0
aI0
aI0
aI2127133
aS'_4518455272'
p672
aa(lp673
I1
aI0
aI0
aI0
aI1
aI1
aI0
aI1
aI0
aI0
aI0
aI2029366
aS'_4518455272'
p674
aa(lp675
I1
aI1
aI0
aI0
aI1
aI1
aI1
aI1
aI0
aI1
aI0
aI2257733
aS'_4518455272'
p676
aa(lp677
I1
aI1
aI0
aI1
aI1
aI1
aI0
aI0
aI1
aI1
aI0
aI2369500
aS'_4518455272'
p678
aa(lp679
I1
aI0
aI0
aI1
aI0
aI1
aI0
aI1
aI1
aI0
aI0
aI2109966
aS'_4518455272'
p680
aa(lp681
I1
aI0
aI0
aI1
aI1
aI1
aI0
aI1
aI1
aI0
aI1
aI2635833
aS'_4518455272'
p682
aa(lp683
I1
aI0
aI0
aI0
aI0
aI1
aI0
aI1
aI0
aI1
aI0
aI2014700
aS'_4518455272'
p684
aa(lp685
I1
aI1
aI0
aI0
aI1
aI1
aI0
aI1
aI0
aI1
aI0
aI2239766
aS'_4518455272'
p686
aa(lp687
I1
aI0
aI0
aI0
aI1
aI1
aI0
aI1
aI1
aI1
aI0
aI2062266
aS'_4518455272'
p688
aa(lp689
I1
aI0
aI1
aI1
aI1
aI1
aI0
aI0
aI1
aI1
aI1
aI2496000
aS'_4518455272'
p690
aaaa(lp691
S'_4518453760'
p692
a(lp693
(lp694
I1
aI1
aI1
aI0
aI0
aI0
aI1
aI1
aI0
aI1
aI1
aI2483400
ag692
aa(lp695
I1
aI1
aI1
aI0
aI0
aI0
aI1
aI1
aI0
aI0
aI1
aI2517400
aS'_4518453760'
p696
aa(lp697
I1
aI0
aI1
aI0
aI1
aI1
aI1
aI1
aI0
aI0
aI1
aI2347466
aS'_4518453760'
p698
aa(lp699
I1
aI0
aI1
aI0
aI0
aI1
aI1
aI0
aI0
aI1
aI1
aI2348733
aS'_4518453760'
p700
aa(lp701
I1
aI1
aI1
aI0
aI0
aI1
aI1
aI1
aI0
aI0
aI0
aI2472766
aS'_4518453760'
p702
aa(lp703
I1
aI1
aI0
aI0
aI0
aI0
aI0
aI1
aI0
aI0
aI1
aI2362100
aS'_4518453760'
p704
aa(lp705
I1
aI1
aI0
aI0
aI0
aI0
aI1
aI0
aI0
aI0
aI1
aI2371333
aS'_4518453760'
p706
aa(lp707
I1
aI0
aI1
aI0
aI1
aI1
aI1
aI1
aI0
aI0
aI0
aI2332766
aS'_4518453760'
p708
aa(lp709
I1
aI0
aI1
aI0
aI1
aI1
aI0
aI1
aI0
aI0
aI1
aI2340633
aS'_4518453760'
p710
aa(lp711
I1
aI0
aI1
aI0
aI1
aI1
aI0
aI0
aI0
aI1
aI1
aI2330033
aS'_4518453760'
p712
aa(lp713
I1
aI0
aI1
aI1
aI0
aI1
aI1
aI1
aI0
aI0
aI0
aI2291233
aS'_4518453760'
p714
aa(lp715
I1
aI1
aI1
aI0
aI1
aI1
aI0
aI0
aI0
aI1
aI1
aI2490366
aS'_4518453760'
p716
aa(lp717
I1
aI0
aI1
aI0
aI0
aI1
aI0
aI1
aI0
aI0
aI1
aI2358533
aS'_4518453760'
p718
aaaa(lp719
S'_4445227056'
p720
a(lp721
(lp722
I1
aI0
aI1
aI1
aI0
aI1
aI0
aI0
aI1
aI0
aI0
aI2284666
ag720
aa(lp723
I1
aI0
aI1
aI1
aI0
aI0
aI0
aI0
aI1
aI0
aI1
aI2474666
aS'_4445227056'
p724
aa(lp725
I1
aI0
aI1
aI1
aI1
aI1
aI1
aI0
aI1
aI0
aI0
aI2292066
aS'_4445227056'
p726
aa(lp727
I1
aI1
aI1
aI1
aI0
aI0
aI0
aI1
aI1
aI0
aI0
aI2453166
aS'_4445227056'
p728
aa(lp729
I1
aI1
aI1
aI1
aI0
aI1
aI0
aI0
aI1
aI0
aI0
aI2521400
aS'_4445227056'
p730
aa(lp731
I1
aI1
aI1
aI1
aI1
aI0
aI0
aI0
aI0
aI0
aI1
aI2525000
aS'_4445227056'
p732
aa(lp733
I1
aI1
aI1
aI1
aI0
aI0
aI0
aI0
aI0
aI0
aI1
aI2531500
aS'_4445227056'
p734
aa(lp735
I1
aI0
aI1
aI1
aI1
aI0
aI1
aI0
aI1
aI0
aI0
aI2277333
aS'_4445227056'
p736
aa(lp737
I1
aI1
aI1
aI1
aI0
aI0
aI0
aI0
aI0
aI0
aI0
aI2440300
aS'_4445227056'
p738
aa(lp739
I1
aI1
aI0
aI1
aI0
aI0
aI1
aI0
aI1
aI0
aI0
aI2382533
aS'_4445227056'
p740
aa(lp741
I1
aI0
aI1
aI1
aI0
aI0
aI0
aI0
aI0
aI0
aI0
aI2249500
aS'_4445227056'
p742
aa(lp743
I1
aI0
aI1
aI1
aI1
aI0
aI0
aI0
aI0
aI0
aI0
aI2243266
aS'_4445227056'
p744
aa(lp745
I1
aI1
aI0
aI1
aI0
aI0
aI0
aI0
aI0
aI0
aI0
aI2480166
aS'_4445227056'
p746
aaaa(lp747
S'_4518454624'
p748
a(lp749
(lp750
I1
aI1
aI0
aI1
aI1
aI1
aI1
aI0
aI1
aI0
aI1
aI2496166
ag748
aa(lp751
I1
aI1
aI1
aI1
aI1
aI1
aI0
aI0
aI0
aI1
aI1
aI2615733
aS'_4518454624'
p752
aa(lp753
I1
aI1
aI1
aI1
aI0
aI1
aI1
aI0
aI0
aI0
aI1
aI2672799
aS'_4518454624'
p754
aa(lp755
I1
aI0
aI1
aI0
aI1
aI1
aI1
aI0
aI0
aI1
aI1
aI2363466
aS'_4518454624'
p756
aa(lp757
I1
aI1
aI0
aI1
aI1
aI1
aI0
aI0
aI0
aI1
aI1
aI2469433
aS'_4518454624'
p758
aa(lp759
I1
aI0
aI0
aI1
aI0
aI1
aI1
aI0
aI0
aI1
aI0
aI2124433
aS'_4518454624'
p760
aa(lp761
I1
aI1
aI1
aI1
aI1
aI1
aI1
aI0
aI0
aI0
aI1
aI2526833
aS'_4518454624'
p762
aa(lp763
I1
aI0
aI1
aI1
aI1
aI1
aI1
aI0
aI0
aI1
aI0
aI2317700
aS'_4518454624'
p764
aa(lp765
I1
aI1
aI0
aI0
aI1
aI1
aI1
aI0
aI0
aI1
aI1
aI2340533
aS'_4518454624'
p766
aa(lp767
I1
aI1
aI0
aI1
aI1
aI1
aI1
aI1
aI0
aI1
aI1
aI2487400
aS'_4518454624'
p768
aa(lp769
I1
aI0
aI1
aI1
aI1
aI0
aI1
aI0
aI0
aI1
aI1
aI2476733
aS'_4518454624'
p770
aa(lp771
I1
aI1
aI0
aI1
aI1
aI0
aI1
aI0
aI0
aI1
aI1
aI2496800
aS'_4518454624'
p772
aa(lp773
I1
aI1
aI0
aI1
aI1
aI0
aI1
aI0
aI0
aI1
aI0
aI2342500
aS'_4518454624'
p774
aaaa(lp775
S'_4518455632'
p776
a(lp777
(lp778
I1
aI1
aI1
aI1
aI0
aI1
aI1
aI1
aI1
aI1
aI1
aI2684166
ag776
aa(lp779
I1
aI0
aI1
aI1
aI0
aI1
aI1
aI1
aI0
aI1
aI1
aI2486500
aS'_4518455632'
p780
aa(lp781
I1
aI1
aI1
aI1
aI1
aI1
aI1
aI1
aI0
aI1
aI1
aI2621133
aS'_4518455632'
p782
aa(lp783
I1
aI1
aI0
aI1
aI0
aI1
aI1
aI0
aI1
aI0
aI0
aI2346533
aS'_4518455632'
p784
aa(lp785
I1
aI1
aI0
aI0
aI0
aI1
aI1
aI0
aI0
aI1
aI0
aI2271833
aS'_4518455632'
p786
aa(lp787
I1
aI0
aI1
aI1
aI0
aI1
aI1
aI1
aI0
aI0
aI1
aI2478733
aS'_4518455632'
p788
aa(lp789
I1
aI1
aI1
aI1
aI1
aI0
aI1
aI1
aI0
aI1
aI1
aI2613633
aS'_4518455632'
p790
aa(lp791
I1
aI1
aI1
aI1
aI1
aI1
aI1
aI1
aI1
aI0
aI1
aI2524466
aS'_4518455632'
p792
aa(lp793
I1
aI1
aI1
aI1
aI0
aI1
aI1
aI0
aI1
aI0
aI1
aI2626800
aS'_4518455632'
p794
aa(lp795
I1
aI1
aI1
aI0
aI0
aI1
aI1
aI0
aI0
aI1
aI1
aI2500666
aS'_4518455632'
p796
aa(lp797
I1
aI1
aI1
aI1
aI1
aI1
aI1
aI0
aI1
aI1
aI0
aI2571700
aS'_4518455632'
p798
aa(lp799
I1
aI0
aI1
aI1
aI1
aI1
aI1
aI0
aI1
aI1
aI0
aI2313266
aS'_4518455632'
p800
aa(lp801
I1
aI0
aI1
aI0
aI1
aI1
aI1
aI0
aI1
aI1
aI1
aI2357800
aS'_4518455632'
p802
aaaa(lp803
S'_4518816296'
p804
a(lp805
(lp806
I1
aI1
aI1
aI0
aI0
aI0
aI1
aI1
aI1
aI0
aI0
aI2410166
ag804
aa(lp807
I1
aI1
aI1
aI0
aI0
aI0
aI1
aI1
aI1
aI1
aI0
aI2451566
aS'_4518816296'
p808
aa(lp809
I1
aI1
aI0
aI0
aI0
aI0
aI1
aI1
aI1
aI1
aI0
aI2297900
aS'_4518816296'
p810
aa(lp811
I1
aI1
aI1
aI1
aI0
aI0
aI1
aI1
aI1
aI1
aI0
aI2525800
aS'_4518816296'
p812
aa(lp813
I1
aI0
aI1
aI0
aI0
aI0
aI1
aI0
aI1
aI0
aI0
aI2211666
aS'_4518816296'
p814
aa(lp815
I1
aI1
aI0
aI0
aI0
aI0
aI1
aI0
aI1
aI0
aI0
aI2277800
aS'_4518816296'
p816
aa(lp817
I1
aI0
aI1
aI1
aI0
aI0
aI1
aI1
aI1
aI1
aI0
aI2322900
aS'_4518816296'
p818
aa(lp819
I1
aI0
aI1
aI0
aI0
aI0
aI1
aI1
aI1
aI1
aI1
aI2363600
aS'_4518816296'
p820
aa(lp821
I1
aI0
aI1
aI1
aI1
aI0
aI1
aI1
aI1
aI0
aI0
aI2295600
aS'_4518816296'
p822
aa(lp823
I1
aI0
aI0
aI0
aI0
aI0
aI1
aI1
aI1
aI0
aI1
aI2175500
aS'_4518816296'
p824
aa(lp825
I1
aI0
aI1
aI0
aI0
aI1
aI1
aI1
aI1
aI1
aI1
aI2361700
aS'_4518816296'
p826
aa(lp827
I1
aI1
aI1
aI0
aI1
aI0
aI1
aI0
aI0
aI1
aI0
aI2420866
aS'_4518816296'
p828
aa(lp829
I1
aI1
aI0
aI0
aI0
aI0
aI0
aI0
aI1
aI1
aI0
aI2236833
aS'_4518816296'
p830
aaaa(lp831
S'_4518456712'
p832
a(lp833
(lp834
I1
aI1
aI1
aI1
aI0
aI0
aI0
aI1
aI0
aI1
aI0
aI2489700
ag832
aa(lp835
I1
aI0
aI1
aI1
aI0
aI0
aI1
aI1
aI0
aI0
aI0
aI2327600
aS'_4518456712'
p836
aa(lp837
I1
aI1
aI1
aI0
aI0
aI0
aI1
aI1
aI0
aI0
aI0
aI2427866
aS'_4518456712'
p838
aa(lp839
I1
aI1
aI1
aI1
aI0
aI0
aI1
aI1
aI1
aI0
aI0
aI2541433
aS'_4518456712'
p840
aa(lp841
I1
aI1
aI1
aI1
aI1
aI0
aI0
aI0
aI0
aI0
aI0
aI2437833
aS'_4518456712'
p842
aa(lp843
I1
aI1
aI1
aI1
aI0
aI0
aI1
aI0
aI0
aI0
aI0
aI2554733
aS'_4518456712'
p844
aa(lp845
I1
aI1
aI1
aI1
aI0
aI1
aI0
aI0
aI0
aI0
aI0
aI2539633
aS'_4518456712'
p846
aa(lp847
I1
aI1
aI1
aI0
aI0
aI0
aI1
aI0
aI0
aI1
aI0
aI2377500
aS'_4518456712'
p848
aa(lp849
I1
aI1
aI0
aI0
aI0
aI0
aI1
aI0
aI0
aI1
aI0
aI2212500
aS'_4518456712'
p850
aa(lp851
I1
aI1
aI0
aI0
aI0
aI0
aI1
aI0
aI0
aI0
aI0
aI2291666
aS'_4518456712'
p852
aa(lp853
I1
aI1
aI1
aI0
aI1
aI0
aI1
aI0
aI0
aI1
aI1
aI2510100
aS'_4518456712'
p854
aa(lp855
I1
aI1
aI1
aI0
aI0
aI0
aI1
aI0
aI0
aI0
aI1
aI2528366
aS'_4518456712'
p856
aaaa(lp857
S'_4518457000'
p858
a(lp859
(lp860
I1
aI1
aI1
aI0
aI1
aI0
aI0
aI0
aI1
aI1
aI1
aI2495766
ag858
aa(lp861
I1
aI1
aI0
aI1
aI0
aI0
aI0
aI1
aI1
aI1
aI1
aI2484033
aS'_4518457000'
p862
aa(lp863
I1
aI1
aI1
aI1
aI1
aI0
aI0
aI1
aI1
aI1
aI0
aI2525133
aS'_4518457000'
p864
aa(lp865
I1
aI1
aI0
aI1
aI1
aI0
aI0
aI1
aI1
aI1
aI1
aI2512500
aS'_4518457000'
p866
aa(lp867
I1
aI0
aI0
aI1
aI1
aI0
aI0
aI1
aI1
aI0
aI1
aI2615333
aS'_4518457000'
p868
aa(lp869
I1
aI0
aI1
aI1
aI1
aI1
aI0
aI1
aI1
aI0
aI1
aI2473100
aS'_4518457000'
p870
aa(lp871
I1
aI1
aI1
aI1
aI1
aI1
aI0
aI1
aI1
aI1
aI1
aI2675100
aS'_4518457000'
p872
aa(lp873
I1
aI1
aI1
aI1
aI1
aI0
aI0
aI1
aI1
aI1
aI1
aI2646000
aS'_4518457000'
p874
aa(lp875
I1
aI1
aI1
aI0
aI1
aI0
aI0
aI1
aI0
aI1
aI1
aI2476133
aS'_4518457000'
p876
aa(lp877
I1
aI1
aI1
aI1
aI1
aI0
aI0
aI0
aI0
aI1
aI0
aI2467333
aS'_4518457000'
p878
aa(lp879
I1
aI0
aI1
aI1
aI1
aI0
aI0
aI1
aI1
aI1
aI1
aI2472600
aS'_4518457000'
p880
aa(lp881
I1
aI0
aI1
aI1
aI1
aI0
aI0
aI1
aI0
aI1
aI0
aI2257966
aS'_4518457000'
p882
aa(lp883
I1
aI0
aI1
aI1
aI1
aI0
aI0
aI1
aI0
aI1
aI1
aI2495333
aS'_4518457000'
p884
aaaa.