(lp0
(lp1
S'_4484236568'
p2
a(lp3
(lp4
I1
aI0
aI0
aI0
aI1
aI0
aI1
aI0
aI1
aI12000000
ag2
aa(lp5
I1
aI0
aI1
aI0
aI1
aI1
aI1
aI0
aI1
aI12300000
aS'_4484236568'
p6
aa(lp7
I1
aI1
aI0
aI0
aI1
aI0
aI0
aI0
aI1
aI10200000
aS'_4484236568'
p8
aa(lp9
I1
aI0
aI0
aI1
aI1
aI0
aI0
aI0
aI1
aI12000000
aS'_4484236568'
p10
aa(lp11
I1
aI1
aI0
aI0
aI1
aI1
aI1
aI0
aI1
aI9000000
aS'_4484236568'
p12
aa(lp13
I1
aI1
aI0
aI0
aI0
aI0
aI1
aI0
aI1
aI9600000
aS'_4484236568'
p14
aa(lp15
I1
aI0
aI0
aI0
aI1
aI1
aI0
aI0
aI1
aI12000000
aS'_4484236568'
p16
aa(lp17
I1
aI1
aI0
aI1
aI1
aI0
aI0
aI0
aI1
aI10500000
aS'_4484236568'
p18
aa(lp19
I1
aI1
aI0
aI0
aI1
aI1
aI0
aI0
aI1
aI9300000
aS'_4484236568'
p20
aa(lp21
I1
aI1
aI0
aI0
aI0
aI0
aI0
aI0
aI1
aI9900000
aS'_4484236568'
p22
aa(lp23
I1
aI0
aI0
aI0
aI0
aI1
aI0
aI0
aI1
aI10500000
aS'_4484236568'
p24
aaaa(lp25
S'_4484237936'
p26
a(lp27
(lp28
I1
aI0
aI1
aI0
aI1
aI0
aI1
aI0
aI1
aI11100000
ag26
aa(lp29
I1
aI0
aI0
aI0
aI1
aI0
aI0
aI0
aI1
aI12600000
aS'_4484237936'
p30
aa(lp31
I1
aI0
aI1
aI0
aI1
aI0
aI1
aI0
aI0
aI19500000
aS'_4484237936'
p32
aa(lp33
I1
aI0
aI1
aI0
aI1
aI1
aI0
aI0
aI1
aI13500000
aS'_4484237936'
p34
aa(lp35
I1
aI0
aI1
aI0
aI0
aI0
aI1
aI0
aI0
aI19200000
aS'_4484237936'
p36
aa(lp37
I1
aI0
aI1
aI0
aI1
aI0
aI1
aI1
aI0
aI24300000
aS'_4484237936'
p38
aa(lp39
I1
aI0
aI1
aI0
aI1
aI0
aI0
aI0
aI0
aI21000000
aS'_4484237936'
p40
aa(lp41
I1
aI0
aI0
aI0
aI1
aI0
aI0
aI0
aI0
aI12000000
aS'_4484237936'
p42
aa(lp43
I1
aI0
aI1
aI0
aI0
aI0
aI0
aI0
aI0
aI20400000
aS'_4484237936'
p44
aa(lp45
I1
aI0
aI1
aI0
aI1
aI1
aI0
aI0
aI0
aI18300000
aS'_4484237936'
p46
aa(lp47
I1
aI0
aI0
aI1
aI1
aI0
aI0
aI0
aI0
aI13500000
aS'_4484237936'
p48
aaaa(lp49
S'_4484235632'
p50
a(lp51
(lp52
I1
aI1
aI1
aI1
aI0
aI1
aI0
aI1
aI0
aI18900000
ag50
aa(lp53
I1
aI1
aI1
aI1
aI0
aI1
aI1
aI1
aI0
aI18600000
aS'_4484235632'
p54
aa(lp55
I1
aI1
aI1
aI1
aI0
aI1
aI0
aI0
aI0
aI18900000
aS'_4484235632'
p56
aa(lp57
I1
aI1
aI1
aI1
aI0
aI0
aI1
aI1
aI0
aI21600000
aS'_4484235632'
p58
aa(lp59
I1
aI0
aI0
aI1
aI0
aI1
aI0
aI1
aI0
aI12600000
aS'_4484235632'
p60
aa(lp61
I1
aI0
aI1
aI0
aI0
aI1
aI0
aI1
aI0
aI21300000
aS'_4484235632'
p62
aa(lp63
I1
aI1
aI1
aI0
aI0
aI1
aI0
aI0
aI0
aI17100000
aS'_4484235632'
p64
aa(lp65
I1
aI0
aI1
aI1
aI0
aI1
aI1
aI1
aI0
aI19800000
aS'_4484235632'
p66
aa(lp67
I1
aI1
aI1
aI0
aI0
aI1
aI1
aI1
aI0
aI18600000
aS'_4484235632'
p68
aa(lp69
I1
aI0
aI1
aI1
aI0
aI1
aI1
aI0
aI0
aI18300000
aS'_4484235632'
p70
aa(lp71
I1
aI0
aI1
aI0
aI0
aI1
aI1
aI1
aI0
aI19800000
aS'_4484235632'
p72
aaaa(lp73
S'_4484236136'
p74
a(lp75
(lp76
I1
aI0
aI0
aI1
aI0
aI0
aI1
aI0
aI1
aI11400000
ag74
aa(lp77
I1
aI1
aI0
aI1
aI0
aI0
aI1
aI0
aI0
aI9600000
aS'_4484236136'
p78
aa(lp79
I1
aI1
aI0
aI1
aI0
aI1
aI0
aI0
aI1
aI9300000
aS'_4484236136'
p80
aa(lp81
I1
aI1
aI0
aI0
aI0
aI0
aI1
aI0
aI0
aI9000000
aS'_4484236136'
p82
aa(lp83
I1
aI0
aI0
aI1
aI0
aI1
aI0
aI0
aI0
aI11700000
aS'_4484236136'
p84
aa(lp85
I1
aI1
aI0
aI1
aI1
aI0
aI1
aI0
aI0
aI9900000
aS'_4484236136'
p86
aa(lp87
I1
aI1
aI1
aI1
aI0
aI1
aI1
aI0
aI1
aI14700000
aS'_4484236136'
p88
aa(lp89
I1
aI1
aI0
aI1
aI0
aI1
aI1
aI0
aI0
aI9000000
aS'_4484236136'
p90
aa(lp91
I1
aI1
aI1
aI1
aI0
aI0
aI1
aI0
aI0
aI20100000
aS'_4484236136'
p92
aa(lp93
I1
aI0
aI0
aI1
aI1
aI0
aI1
aI1
aI0
aI13800000
aS'_4484236136'
p94
aa(lp95
I1
aI0
aI0
aI1
aI0
aI1
aI1
aI1
aI0
aI11400000
aS'_4484236136'
p96
aaaa(lp97
S'_4484235488'
p98
a(lp99
(lp100
I1
aI0
aI0
aI1
aI0
aI0
aI1
aI0
aI0
aI12300000
ag98
aa(lp101
I1
aI0
aI0
aI0
aI0
aI0
aI0
aI0
aI0
aI12000000
aS'_4484235488'
p102
aa(lp103
I1
aI0
aI0
aI0
aI1
aI1
aI0
aI0
aI0
aI10200000
aS'_4484235488'
p104
aa(lp105
I1
aI0
aI0
aI0
aI1
aI0
aI0
aI1
aI0
aI14100000
aS'_4484235488'
p106
aa(lp107
I1
aI0
aI0
aI1
aI1
aI0
aI0
aI1
aI0
aI14700000
aS'_4484235488'
p108
aa(lp109
I1
aI0
aI1
aI0
aI0
aI0
aI0
aI1
aI0
aI24900000
aS'_4484235488'
p110
aa(lp111
I1
aI0
aI1
aI0
aI1
aI1
aI0
aI1
aI0
aI21900000
aS'_4484235488'
p112
aa(lp113
I1
aI0
aI1
aI1
aI1
aI0
aI0
aI1
aI0
aI26400000
aS'_4484235488'
p114
aa(lp115
I1
aI0
aI0
aI1
aI0
aI0
aI0
aI1
aI0
aI14100000
aS'_4484235488'
p116
aa(lp117
I1
aI0
aI1
aI1
aI1
aI1
aI0
aI1
aI0
aI21900000
aS'_4484235488'
p118
aa(lp119
I1
aI0
aI1
aI1
aI0
aI1
aI0
aI1
aI0
aI21000000
aS'_4484235488'
p120
aaaa(lp121
S'_4484238224'
p122
a(lp123
(lp124
I1
aI0
aI0
aI1
aI1
aI0
aI1
aI0
aI0
aI11700000
ag122
aa(lp125
I1
aI0
aI0
aI1
aI1
aI0
aI1
aI0
aI1
aI12300000
aS'_4484238224'
p126
aa(lp127
I1
aI0
aI0
aI0
aI0
aI0
aI1
aI0
aI1
aI10800000
aS'_4484238224'
p128
aa(lp129
I1
aI0
aI0
aI1
aI0
aI1
aI1
aI0
aI0
aI10800000
aS'_4484238224'
p130
aa(lp131
I1
aI1
aI0
aI1
aI0
aI1
aI1
aI0
aI1
aI8700000
aS'_4484238224'
p132
aa(lp133
I1
aI0
aI1
aI1
aI1
aI1
aI1
aI0
aI0
aI18900000
aS'_4484238224'
p134
aa(lp135
I1
aI0
aI0
aI1
aI1
aI1
aI1
aI0
aI1
aI11100000
aS'_4484238224'
p136
aa(lp137
I1
aI0
aI0
aI0
aI0
aI1
aI1
aI0
aI1
aI10800000
aS'_4484238224'
p138
aa(lp139
I1
aI0
aI0
aI1
aI0
aI1
aI0
aI0
aI1
aI11100000
aS'_4484238224'
p140
aa(lp141
I1
aI0
aI0
aI1
aI0
aI1
aI1
aI0
aI1
aI10500000
aS'_4484238224'
p142
aa(lp143
I1
aI0
aI1
aI1
aI0
aI1
aI1
aI0
aI1
aI12300000
aS'_4484238224'
p144
aaaa(lp145
S'_4484235848'
p146
a(lp147
(lp148
I1
aI1
aI1
aI1
aI1
aI1
aI0
aI0
aI0
aI19200000
ag146
aa(lp149
I1
aI1
aI1
aI1
aI1
aI1
aI1
aI0
aI0
aI18000000
aS'_4484235848'
p150
aa(lp151
I1
aI1
aI0
aI1
aI1
aI1
aI0
aI0
aI0
aI9600000
aS'_4484235848'
p152
aa(lp153
I1
aI1
aI1
aI1
aI1
aI0
aI1
aI1
aI0
aI21900000
aS'_4484235848'
p154
aa(lp155
I1
aI0
aI1
aI1
aI1
aI1
aI1
aI0
aI1
aI11700000
aS'_4484235848'
p156
aa(lp157
I1
aI1
aI1
aI1
aI1
aI0
aI1
aI0
aI0
aI20700000
aS'_4484235848'
p158
aa(lp159
I1
aI1
aI1
aI0
aI1
aI1
aI1
aI0
aI0
aI16800000
aS'_4484235848'
p160
aa(lp161
I1
aI1
aI1
aI1
aI1
aI1
aI1
aI0
aI1
aI8700000
aS'_4484235848'
p162
aa(lp163
I1
aI1
aI0
aI1
aI1
aI0
aI0
aI0
aI0
aI10800000
aS'_4484235848'
p164
aa(lp165
I1
aI0
aI1
aI1
aI1
aI0
aI1
aI0
aI1
aI11100000
aS'_4484235848'
p166
aa(lp167
I1
aI1
aI1
aI1
aI0
aI0
aI1
aI0
aI1
aI11700000
aS'_4484235848'
p168
aaaa(lp169
S'_4484238008'
p170
a(lp171
(lp172
I1
aI0
aI0
aI1
aI1
aI1
aI0
aI0
aI1
aI11400000
ag170
aa(lp173
I1
aI1
aI0
aI0
aI1
aI1
aI0
aI0
aI0
aI9000000
aS'_4484238008'
p174
aa(lp175
I1
aI1
aI1
aI0
aI1
aI1
aI0
aI0
aI0
aI17700000
aS'_4484238008'
p176
aa(lp177
I1
aI1
aI0
aI0
aI0
aI1
aI0
aI0
aI0
aI9000000
aS'_4484238008'
p178
aa(lp179
I1
aI1
aI0
aI1
aI1
aI1
aI0
aI0
aI1
aI9300000
aS'_4484238008'
p180
aa(lp181
I1
aI1
aI0
aI0
aI0
aI1
aI0
aI0
aI1
aI9300000
aS'_4484238008'
p182
aa(lp183
I1
aI0
aI1
aI1
aI1
aI1
aI0
aI0
aI1
aI12000000
aS'_4484238008'
p184
aa(lp185
I1
aI1
aI1
aI0
aI1
aI1
aI0
aI0
aI1
aI10800000
aS'_4484238008'
p186
aa(lp187
I1
aI1
aI1
aI0
aI0
aI1
aI1
aI0
aI1
aI11400000
aS'_4484238008'
p188
aa(lp189
I1
aI1
aI1
aI0
aI0
aI1
aI0
aI0
aI1
aI12000000
aS'_4484238008'
p190
aa(lp191
I1
aI1
aI1
aI1
aI0
aI1
aI0
aI0
aI1
aI10800000
aS'_4484238008'
p192
aaaa(lp193
S'_4484237216'
p194
a(lp195
(lp196
I1
aI1
aI0
aI0
aI1
aI1
aI1
aI1
aI0
aI9600000
ag194
aa(lp197
I1
aI1
aI0
aI0
aI1
aI1
aI1
aI0
aI0
aI8400000
aS'_4484237216'
p198
aa(lp199
I1
aI0
aI0
aI1
aI1
aI1
aI1
aI1
aI0
aI12300000
aS'_4484237216'
p200
aa(lp201
I1
aI1
aI0
aI1
aI1
aI1
aI1
aI0
aI0
aI9000000
aS'_4484237216'
p202
aa(lp203
I1
aI1
aI0
aI0
aI0
aI1
aI1
aI0
aI0
aI8400000
aS'_4484237216'
p204
aa(lp205
I1
aI0
aI0
aI0
aI1
aI1
aI1
aI0
aI0
aI9900000
aS'_4484237216'
p206
aa(lp207
I1
aI0
aI0
aI0
aI1
aI0
aI1
aI0
aI0
aI11400000
aS'_4484237216'
p208
aa(lp209
I1
aI0
aI0
aI1
aI1
aI1
aI1
aI0
aI0
aI11100000
aS'_4484237216'
p210
aa(lp211
I1
aI0
aI0
aI0
aI0
aI1
aI1
aI0
aI0
aI10200000
aS'_4484237216'
p212
aa(lp213
I1
aI0
aI0
aI0
aI1
aI1
aI1
aI0
aI1
aI10500000
aS'_4484237216'
p214
aaaa(lp215
S'_4484238512'
p216
a(lp217
(lp218
I1
aI1
aI1
aI0
aI0
aI0
aI0
aI0
aI1
aI11400000
ag216
aa(lp219
I1
aI1
aI1
aI1
aI0
aI0
aI0
aI0
aI1
aI11700000
aS'_4484238512'
p220
aa(lp221
I1
aI1
aI1
aI0
aI0
aI0
aI1
aI0
aI1
aI10200000
aS'_4484238512'
p222
aa(lp223
I1
aI0
aI0
aI0
aI0
aI0
aI0
aI0
aI1
aI12300000
aS'_4484238512'
p224
aa(lp225
I1
aI0
aI1
aI0
aI0
aI0
aI0
aI0
aI1
aI12000000
aS'_4484238512'
p226
aa(lp227
I1
aI0
aI1
aI0
aI0
aI1
aI0
aI0
aI1
aI12300000
aS'_4484238512'
p228
aa(lp229
I1
aI1
aI1
aI0
aI1
aI0
aI0
aI0
aI0
aI19500000
aS'_4484238512'
p230
aa(lp231
I1
aI0
aI1
aI0
aI1
aI0
aI0
aI0
aI1
aI13800000
aS'_4484238512'
p232
aa(lp233
I1
aI1
aI1
aI1
aI0
aI0
aI0
aI0
aI0
aI21300000
aS'_4484238512'
p234
aa(lp235
I1
aI0
aI1
aI0
aI0
aI0
aI1
aI0
aI1
aI13500000
aS'_4484238512'
p236
aaaa(lp237
S'_4484238296'
p238
a(lp239
(lp240
I1
aI1
aI1
aI0
aI0
aI1
aI1
aI0
aI0
aI16200000
ag238
aa(lp241
I1
aI0
aI1
aI0
aI0
aI1
aI0
aI0
aI0
aI17700000
aS'_4484238296'
p242
aa(lp243
I1
aI0
aI1
aI0
aI1
aI1
aI1
aI1
aI0
aI21000000
aS'_4484238296'
p244
aa(lp245
I1
aI0
aI1
aI0
aI0
aI1
aI1
aI0
aI1
aI12600000
aS'_4484238296'
p246
aa(lp247
I1
aI0
aI1
aI0
aI1
aI1
aI1
aI0
aI0
aI17400000
aS'_4484238296'
p248
aa(lp249
I1
aI0
aI1
aI0
aI0
aI0
aI1
aI1
aI0
aI22500000
aS'_4484238296'
p250
aa(lp251
I1
aI0
aI0
aI0
aI0
aI1
aI1
aI1
aI0
aI11400000
aS'_4484238296'
p252
aa(lp253
I1
aI0
aI0
aI1
aI0
aI0
aI1
aI1
aI0
aI13200000
aS'_4484238296'
p254
aa(lp255
I1
aI0
aI1
aI0
aI0
aI1
aI1
aI0
aI0
aI16800000
aS'_4484238296'
p256
aa(lp257
I1
aI1
aI1
aI0
aI0
aI0
aI1
aI0
aI0
aI18300000
aS'_4484238296'
p258
aa(lp259
I1
aI0
aI0
aI0
aI0
aI0
aI1
aI0
aI0
aI11100000
aS'_4484238296'
p260
aaaa(lp261
S'_4484238440'
p262
a(lp263
(lp264
I1
aI1
aI1
aI0
aI1
aI1
aI1
aI0
aI1
aI15000000
ag262
aa(lp265
I1
aI1
aI1
aI0
aI1
aI0
aI1
aI0
aI0
aI18900000
aS'_4484238440'
p266
aa(lp267
I1
aI1
aI0
aI0
aI1
aI0
aI0
aI0
aI0
aI9600000
aS'_4484238440'
p268
aa(lp269
I1
aI1
aI1
aI0
aI1
aI0
aI0
aI0
aI1
aI13200000
aS'_4484238440'
p270
aa(lp271
I1
aI0
aI1
aI1
aI0
aI0
aI1
aI0
aI1
aI13200000
aS'_4484238440'
p272
aa(lp273
I1
aI1
aI0
aI1
aI1
aI1
aI1
aI0
aI1
aI8700000
aS'_4484238440'
p274
aa(lp275
I1
aI1
aI1
aI0
aI1
aI0
aI1
aI0
aI1
aI11700000
aS'_4484238440'
p276
aa(lp277
I1
aI1
aI0
aI0
aI1
aI0
aI1
aI0
aI0
aI9300000
aS'_4484238440'
p278
aa(lp279
I1
aI1
aI0
aI1
aI0
aI0
aI1
aI0
aI1
aI9600000
aS'_4484238440'
p280
aa(lp281
I1
aI1
aI0
aI0
aI1
aI0
aI1
aI1
aI0
aI10500000
aS'_4484238440'
p282
aa(lp283
I1
aI1
aI0
aI0
aI1
aI0
aI1
aI0
aI1
aI9600000
aS'_4484238440'
p284
aaaa(lp285
S'_4484238584'
p286
a(lp287
(lp288
I1
aI0
aI1
aI1
aI0
aI0
aI0
aI0
aI1
aI12900000
ag286
aa(lp289
I1
aI1
aI0
aI1
aI0
aI0
aI0
aI0
aI0
aI10500000
aS'_4484238584'
p290
aa(lp291
I1
aI0
aI0
aI1
aI0
aI0
aI0
aI0
aI1
aI12000000
aS'_4484238584'
p292
aa(lp293
I1
aI0
aI1
aI1
aI1
aI0
aI0
aI0
aI1
aI12000000
aS'_4484238584'
p294
aa(lp295
I1
aI1
aI1
aI1
aI1
aI0
aI0
aI0
aI0
aI22200000
aS'_4484238584'
p296
aa(lp297
I1
aI0
aI1
aI1
aI0
aI0
aI0
aI0
aI0
aI22200000
aS'_4484238584'
p298
aa(lp299
I1
aI0
aI0
aI1
aI0
aI0
aI0
aI0
aI0
aI13200000
aS'_4484238584'
p300
aa(lp301
I1
aI0
aI1
aI1
aI0
aI0
aI1
aI0
aI0
aI21300000
aS'_4484238584'
p302
aa(lp303
I1
aI0
aI1
aI1
aI1
aI0
aI0
aI0
aI0
aI23700000
aS'_4484238584'
p304
aa(lp305
I1
aI0
aI1
aI1
aI0
aI0
aI1
aI1
aI0
aI23100000
aS'_4484238584'
p306
aa(lp307
I1
aI0
aI1
aI1
aI1
aI0
aI1
aI1
aI0
aI24300000
aS'_4484238584'
p308
aaaa(lp309
S'_4484239304'
p310
a(lp311
(lp312
I1
aI1
aI1
aI1
aI1
aI1
aI0
aI1
aI0
aI21000000
ag310
aa(lp313
I1
aI1
aI1
aI0
aI1
aI1
aI0
aI1
aI0
aI20700000
aS'_4484239304'
p314
aa(lp315
I1
aI1
aI1
aI0
aI1
aI1
aI1
aI1
aI0
aI19200000
aS'_4484239304'
p316
aa(lp317
I1
aI1
aI0
aI1
aI0
aI1
aI0
aI1
aI0
aI9900000
aS'_4484239304'
p318
aa(lp319
I1
aI1
aI0
aI0
aI1
aI1
aI0
aI1
aI0
aI10200000
aS'_4484239304'
p320
aa(lp321
I1
aI1
aI1
aI1
aI0
aI0
aI0
aI1
aI0
aI21600000
aS'_4484239304'
p322
aa(lp323
I1
aI1
aI1
aI0
aI1
aI0
aI0
aI1
aI0
aI22800000
aS'_4484239304'
p324
aa(lp325
I1
aI1
aI1
aI0
aI0
aI0
aI0
aI1
aI0
aI22800000
aS'_4484239304'
p326
aa(lp327
I1
aI1
aI0
aI0
aI1
aI0
aI0
aI1
aI0
aI11400000
aS'_4484239304'
p328
aa(lp329
I1
aI1
aI0
aI1
aI0
aI0
aI0
aI1
aI0
aI11100000
aS'_4484239304'
p330
aaaa(lp331
S'_4484237072'
p332
a(lp333
(lp334
I1
aI1
aI0
aI0
aI0
aI1
aI0
aI1
aI0
aI10200000
ag332
aa(lp335
I1
aI1
aI1
aI0
aI0
aI0
aI0
aI0
aI0
aI19500000
aS'_4484237072'
p336
aa(lp337
I1
aI1
aI0
aI0
aI0
aI0
aI0
aI0
aI0
aI9900000
aS'_4484237072'
p338
aa(lp339
I1
aI0
aI0
aI0
aI1
aI1
aI1
aI1
aI0
aI12300000
aS'_4484237072'
p340
aa(lp341
I1
aI1
aI0
aI0
aI0
aI1
aI1
aI1
aI0
aI9300000
aS'_4484237072'
p342
aa(lp343
I1
aI1
aI0
aI0
aI0
aI0
aI0
aI1
aI0
aI11100000
aS'_4484237072'
p344
aa(lp345
I1
aI0
aI0
aI0
aI0
aI1
aI0
aI1
aI0
aI12600000
aS'_4484237072'
p346
aa(lp347
I1
aI0
aI0
aI0
aI0
aI0
aI0
aI1
aI0
aI14100000
aS'_4484237072'
p348
aa(lp349
I1
aI0
aI0
aI0
aI1
aI0
aI1
aI1
aI0
aI13800000
aS'_4484237072'
p350
aa(lp351
I1
aI1
aI0
aI0
aI0
aI0
aI1
aI1
aI0
aI10200000
aS'_4484237072'
p352
aa(lp353
I1
aI0
aI0
aI0
aI0
aI0
aI1
aI1
aI0
aI12900000
aS'_4484237072'
p354
aaaa(lp355
S'_4484239160'
p356
a(lp357
(lp358
I1
aI1
aI0
aI1
aI0
aI0
aI1
aI1
aI0
aI10200000
ag356
aa(lp359
I1
aI1
aI0
aI1
aI0
aI1
aI0
aI0
aI0
aI9300000
aS'_4484239160'
p360
aa(lp361
I1
aI1
aI0
aI1
aI1
aI0
aI0
aI1
aI0
aI11400000
aS'_4484239160'
p362
aa(lp363
I1
aI0
aI0
aI1
aI1
aI1
aI0
aI1
aI0
aI12600000
aS'_4484239160'
p364
aa(lp365
I1
aI1
aI1
aI1
aI0
aI1
aI1
aI0
aI0
aI17700000
aS'_4484239160'
p366
aa(lp367
I1
aI1
aI0
aI1
aI1
aI0
aI1
aI1
aI0
aI10800000
aS'_4484239160'
p368
aa(lp369
I1
aI1
aI0
aI1
aI0
aI1
aI1
aI1
aI0
aI9600000
aS'_4484239160'
p370
aa(lp371
I1
aI1
aI0
aI1
aI1
aI1
aI0
aI1
aI0
aI10200000
aS'_4484239160'
p372
aa(lp373
I1
aI0
aI1
aI1
aI1
aI1
aI1
aI1
aI0
aI20700000
aS'_4484239160'
p374
aa(lp375
I1
aI1
aI0
aI1
aI1
aI1
aI1
aI1
aI0
aI9900000
aS'_4484239160'
p376
aa(lp377
I1
aI1
aI1
aI1
aI1
aI1
aI1
aI1
aI0
aI18600000
aS'_4484239160'
p378
aaaa.