(lp0
(lp1
S'_4445954560'
p2
a(lp3
(lp4
I1
aI0
aI0
aI0
aI0
aI0
aI0
aI1
aI0
aI14100000
ag2
aa(lp5
I1
aI0
aI0
aI1
aI0
aI0
aI1
aI1
aI0
aI13200000
aS'_4445954560'
p6
aa(lp7
I1
aI0
aI1
aI1
aI1
aI0
aI0
aI1
aI0
aI26400000
aS'_4445954560'
p8
aa(lp9
I1
aI0
aI1
aI1
aI0
aI0
aI0
aI1
aI0
aI24600000
aS'_4445954560'
p10
aaaa(lp11
S'_4483092992'
p12
a(lp13
(lp14
I1
aI0
aI0
aI1
aI1
aI0
aI1
aI0
aI1
aI12300000
ag12
aa(lp15
I1
aI0
aI0
aI1
aI1
aI1
aI1
aI0
aI0
aI11100000
aS'_4483092992'
p16
aa(lp17
I1
aI0
aI0
aI1
aI0
aI0
aI0
aI0
aI0
aI13200000
aS'_4483092992'
p18
aa(lp19
I1
aI0
aI0
aI1
aI1
aI0
aI1
aI0
aI0
aI11700000
aS'_4483092992'
p20
aa(lp21
I1
aI0
aI0
aI1
aI0
aI0
aI1
aI0
aI0
aI12300000
aS'_4483092992'
p22
aaaa(lp23
S'_4483094000'
p24
a(lp25
(lp26
I1
aI1
aI1
aI0
aI0
aI0
aI1
aI1
aI0
aI21600000
ag24
aa(lp27
I1
aI1
aI1
aI0
aI1
aI0
aI1
aI1
aI0
aI21900000
aS'_4483094000'
p28
aa(lp29
I1
aI1
aI0
aI1
aI0
aI0
aI1
aI1
aI0
aI10200000
aS'_4483094000'
p30
aa(lp31
I1
aI1
aI0
aI0
aI1
aI1
aI1
aI1
aI0
aI9600000
aS'_4483094000'
p32
aa(lp33
I1
aI1
aI0
aI1
aI0
aI1
aI1
aI1
aI0
aI9600000
aS'_4483094000'
p34
aaaa(lp35
S'_4483093280'
p36
a(lp37
(lp38
I1
aI0
aI0
aI1
aI1
aI1
aI0
aI0
aI1
aI11400000
ag36
aa(lp39
I1
aI0
aI0
aI1
aI1
aI1
aI0
aI0
aI0
aI12000000
aS'_4483093280'
p40
aa(lp41
I1
aI0
aI0
aI0
aI1
aI0
aI0
aI0
aI1
aI12600000
aS'_4483093280'
p42
aa(lp43
I1
aI0
aI0
aI0
aI1
aI0
aI0
aI0
aI0
aI12000000
aS'_4483093280'
p44
aa(lp45
I1
aI0
aI1
aI1
aI1
aI0
aI0
aI0
aI0
aI23700000
aS'_4483093280'
p46
aaaa(lp47
S'_4483093784'
p48
a(lp49
(lp50
I1
aI1
aI0
aI1
aI1
aI0
aI1
aI0
aI1
aI9900000
ag48
aa(lp51
I1
aI1
aI1
aI1
aI1
aI0
aI1
aI0
aI1
aI12000000
aS'_4483093784'
p52
aa(lp53
I1
aI1
aI1
aI1
aI1
aI1
aI1
aI0
aI1
aI8700000
aS'_4483093784'
p54
aa(lp55
I1
aI0
aI1
aI0
aI1
aI0
aI1
aI0
aI1
aI11100000
aS'_4483093784'
p56
aa(lp57
I1
aI0
aI0
aI1
aI0
aI1
aI1
aI0
aI1
aI10500000
aS'_4483093784'
p58
aaaa(lp59
S'_4483093568'
p60
a(lp61
(lp62
I1
aI0
aI0
aI1
aI0
aI1
aI1
aI1
aI0
aI11400000
ag60
aa(lp63
I1
aI0
aI1
aI1
aI1
aI1
aI0
aI0
aI0
aI20400000
aS'_4483093568'
p64
aa(lp65
I1
aI1
aI0
aI1
aI1
aI1
aI0
aI1
aI0
aI10200000
aS'_4483093568'
p66
aa(lp67
I1
aI0
aI0
aI1
aI0
aI1
aI0
aI0
aI0
aI11700000
aS'_4483093568'
p68
aa(lp69
I1
aI1
aI0
aI1
aI1
aI1
aI0
aI0
aI0
aI9600000
aS'_4483093568'
p70
aaaa(lp71
S'_4483095224'
p72
a(lp73
(lp74
I1
aI0
aI0
aI0
aI1
aI0
aI0
aI1
aI0
aI14100000
ag72
aa(lp75
I1
aI0
aI0
aI1
aI1
aI0
aI0
aI1
aI0
aI14700000
aS'_4483095224'
p76
aa(lp77
I1
aI0
aI0
aI1
aI0
aI0
aI0
aI1
aI0
aI14100000
aS'_4483095224'
p78
aa(lp79
I1
aI0
aI1
aI1
aI1
aI1
aI1
aI1
aI0
aI20700000
aS'_4483095224'
p80
aaaa(lp81
S'_4483092704'
p82
a(lp83
(lp84
I1
aI0
aI1
aI0
aI1
aI0
aI0
aI1
aI0
aI24000000
ag82
aa(lp85
I1
aI0
aI1
aI1
aI1
aI0
aI1
aI0
aI0
aI21900000
aS'_4483092704'
p86
aa(lp87
I1
aI1
aI1
aI1
aI1
aI0
aI1
aI1
aI0
aI21900000
aS'_4483092704'
p88
aa(lp89
I1
aI1
aI1
aI1
aI1
aI0
aI1
aI0
aI0
aI20700000
aS'_4483092704'
p90
aa(lp91
I1
aI1
aI1
aI0
aI1
aI1
aI1
aI0
aI0
aI16800000
aS'_4483092704'
p92
aaaa(lp93
S'_4483093064'
p94
a(lp95
(lp96
I1
aI0
aI0
aI0
aI0
aI1
aI1
aI0
aI0
aI10200000
ag94
aa(lp97
I1
aI1
aI1
aI0
aI0
aI1
aI0
aI0
aI1
aI12000000
aS'_4483093064'
p98
aa(lp99
I1
aI1
aI0
aI0
aI1
aI1
aI0
aI0
aI1
aI9300000
aS'_4483093064'
p100
aa(lp101
I1
aI1
aI0
aI0
aI1
aI0
aI0
aI0
aI1
aI10200000
aS'_4483093064'
p102
aa(lp103
I1
aI1
aI0
aI0
aI0
aI0
aI0
aI0
aI1
aI9900000
aS'_4483093064'
p104
aaaa(lp105
S'_4445957944'
p106
a(lp107
(lp108
I1
aI1
aI1
aI0
aI1
aI1
aI0
aI1
aI0
aI20700000
ag106
aa(lp109
I1
aI1
aI1
aI1
aI0
aI0
aI0
aI1
aI0
aI21600000
aS'_4445957944'
p110
aa(lp111
I1
aI1
aI1
aI1
aI0
aI0
aI1
aI1
aI0
aI21600000
aS'_4445957944'
p112
aa(lp113
I1
aI1
aI1
aI1
aI0
aI1
aI0
aI1
aI0
aI18900000
aS'_4445957944'
p114
aa(lp115
I1
aI1
aI1
aI1
aI0
aI0
aI0
aI0
aI0
aI21300000
aS'_4445957944'
p116
aaaa(lp117
S'_4483093208'
p118
a(lp119
(lp120
I1
aI1
aI1
aI1
aI1
aI1
aI1
aI0
aI0
aI18000000
ag118
aa(lp121
I1
aI0
aI1
aI0
aI1
aI1
aI0
aI0
aI0
aI18300000
aS'_4483093208'
p122
aa(lp123
I1
aI1
aI0
aI0
aI1
aI1
aI1
aI0
aI1
aI9000000
aS'_4483093208'
p124
aa(lp125
I1
aI1
aI0
aI0
aI1
aI1
aI0
aI0
aI0
aI9000000
aS'_4483093208'
p126
aa(lp127
I1
aI0
aI0
aI0
aI1
aI1
aI1
aI0
aI1
aI10500000
aS'_4483093208'
p128
aaaa(lp129
S'_4483096304'
p130
a(lp131
(lp132
I1
aI1
aI0
aI0
aI0
aI0
aI0
aI0
aI0
aI9900000
ag130
aa(lp133
I1
aI1
aI0
aI0
aI0
aI0
aI1
aI0
aI0
aI9000000
aS'_4483096304'
p134
aa(lp135
I1
aI1
aI0
aI0
aI0
aI0
aI1
aI0
aI1
aI9600000
aS'_4483096304'
p136
aa(lp137
I1
aI1
aI0
aI0
aI1
aI0
aI1
aI1
aI0
aI10500000
aS'_4483096304'
p138
aaaa(lp139
S'_4483023432'
p140
a(lp141
(lp142
I1
aI0
aI0
aI0
aI0
aI1
aI1
aI1
aI0
aI11400000
ag140
aa(lp143
I1
aI0
aI1
aI0
aI1
aI1
aI0
aI1
aI0
aI21900000
aS'_4483023432'
p144
aa(lp145
I1
aI0
aI1
aI0
aI0
aI0
aI0
aI1
aI0
aI24900000
aS'_4483023432'
p146
aa(lp147
I1
aI1
aI0
aI0
aI0
aI1
aI0
aI1
aI0
aI10200000
aS'_4483023432'
p148
aa(lp149
I1
aI0
aI1
aI0
aI0
aI1
aI0
aI1
aI0
aI21300000
aS'_4483023432'
p150
aaaa(lp151
S'_4483093352'
p152
a(lp153
(lp154
I1
aI0
aI0
aI0
aI0
aI0
aI1
aI0
aI0
aI11100000
ag152
aa(lp155
I1
aI1
aI0
aI0
aI1
aI0
aI1
aI0
aI0
aI9300000
aS'_4483093352'
p156
aa(lp157
I1
aI0
aI1
aI0
aI0
aI0
aI1
aI0
aI0
aI19200000
aS'_4483093352'
p158
aa(lp159
I1
aI1
aI1
aI0
aI0
aI0
aI1
aI0
aI0
aI18300000
aS'_4483093352'
p160
aa(lp161
I1
aI1
aI1
aI0
aI0
aI0
aI1
aI0
aI1
aI10200000
aS'_4483093352'
p162
aaaa(lp163
S'_4483095080'
p164
a(lp165
(lp166
I1
aI1
aI1
aI0
aI0
aI1
aI1
aI1
aI0
aI18600000
ag164
aa(lp167
I1
aI0
aI1
aI0
aI0
aI1
aI1
aI0
aI0
aI16800000
aS'_4483095080'
p168
aa(lp169
I1
aI0
aI1
aI1
aI0
aI1
aI0
aI1
aI0
aI21000000
aS'_4483095080'
p170
aa(lp171
I1
aI1
aI1
aI1
aI0
aI1
aI1
aI1
aI0
aI18600000
aS'_4483095080'
p172
aa(lp173
I1
aI1
aI1
aI1
aI0
aI1
aI0
aI0
aI0
aI18900000
aS'_4483095080'
p174
aaaa(lp175
S'_4483093640'
p176
a(lp177
(lp178
I1
aI0
aI1
aI0
aI1
aI1
aI1
aI0
aI1
aI12300000
ag176
aa(lp179
I1
aI0
aI1
aI1
aI1
aI1
aI0
aI0
aI1
aI12000000
aS'_4483093640'
p180
aa(lp181
I1
aI0
aI1
aI1
aI0
aI1
aI1
aI0
aI1
aI12300000
aS'_4483093640'
p182
aa(lp183
I1
aI0
aI1
aI0
aI0
aI1
aI1
aI0
aI1
aI12600000
aS'_4483093640'
p184
aa(lp185
I1
aI0
aI1
aI0
aI0
aI1
aI0
aI0
aI1
aI12300000
aS'_4483093640'
p186
aaaa.