(lp0
(lp1
S'_4445037128'
p2
a(lp3
(lp4
I1
aI0
aI1
aI0
aI0
aI1
aI1
aI0
aI1
aI1
aI0
aI0
aI1
aI0
aI1
aI0
aI4284270
ag2
aa(lp5
I1
aI0
aI1
aI0
aI0
aI1
aI1
aI1
aI1
aI1
aI0
aI0
aI1
aI0
aI0
aI1
aI5762170
aS'_4445037128'
p6
aa(lp7
I1
aI0
aI1
aI0
aI1
aI1
aI1
aI0
aI1
aI0
aI1
aI0
aI1
aI0
aI1
aI0
aI4769130
aS'_4445037128'
p8
aa(lp9
I1
aI0
aI1
aI0
aI0
aI1
aI0
aI0
aI1
aI1
aI0
aI0
aI1
aI0
aI0
aI1
aI7127430
aS'_4445037128'
p10
aa(lp11
I1
aI0
aI1
aI1
aI1
aI1
aI1
aI0
aI1
aI1
aI0
aI0
aI1
aI0
aI1
aI0
aI4762230
aS'_4445037128'
p12
aa(lp13
I1
aI0
aI1
aI0
aI0
aI1
aI1
aI0
aI1
aI1
aI0
aI0
aI1
aI0
aI0
aI1
aI5765400
aS'_4445037128'
p14
aa(lp15
I1
aI0
aI1
aI0
aI0
aI0
aI1
aI1
aI1
aI1
aI0
aI0
aI1
aI0
aI0
aI1
aI5068800
aS'_4445037128'
p16
aa(lp17
I1
aI0
aI0
aI0
aI0
aI1
aI1
aI0
aI1
aI1
aI0
aI0
aI1
aI0
aI0
aI1
aI5807370
aS'_4445037128'
p18
aa(lp19
I1
aI0
aI1
aI0
aI1
aI1
aI1
aI0
aI1
aI1
aI0
aI0
aI1
aI0
aI0
aI1
aI6665530
aS'_4445037128'
p20
aa(lp21
I1
aI1
aI1
aI0
aI0
aI1
aI1
aI0
aI1
aI1
aI0
aI0
aI1
aI0
aI0
aI1
aI5565130
aS'_4445037128'
p22
aa(lp23
I1
aI0
aI1
aI0
aI1
aI1
aI1
aI0
aI1
aI0
aI0
aI1
aI1
aI0
aI1
aI0
aI4768630
aS'_4445037128'
p24
aa(lp25
I1
aI1
aI1
aI0
aI1
aI1
aI1
aI0
aI1
aI0
aI1
aI0
aI1
aI1
aI0
aI0
aI2797400
aS'_4445037128'
p26
aa(lp27
I1
aI1
aI1
aI0
aI0
aI1
aI1
aI0
aI1
aI0
aI1
aI0
aI1
aI0
aI0
aI1
aI5565130
aS'_4445037128'
p28
aa(lp29
I1
aI1
aI1
aI1
aI1
aI1
aI1
aI0
aI1
aI0
aI1
aI0
aI1
aI0
aI1
aI0
aI4556800
aS'_4445037128'
p30
aa(lp31
I1
aI0
aI1
aI1
aI0
aI0
aI1
aI1
aI1
aI1
aI0
aI0
aI1
aI0
aI0
aI1
aI5062230
aS'_4445037128'
p32
aa(lp33
I1
aI1
aI1
aI0
aI0
aI0
aI1
aI0
aI1
aI1
aI0
aI0
aI1
aI0
aI0
aI1
aI4915200
aS'_4445037128'
p34
aa(lp35
I1
aI0
aI1
aI0
aI1
aI0
aI1
aI0
aI1
aI0
aI0
aI1
aI1
aI0
aI1
aI0
aI4466400
aS'_4445037128'
p36
aa(lp37
I1
aI0
aI0
aI0
aI0
aI0
aI1
aI0
aI1
aI1
aI0
aI0
aI1
aI0
aI0
aI1
aI5100100
aS'_4445037128'
p38
aa(lp39
I1
aI0
aI0
aI0
aI1
aI1
aI1
aI0
aI1
aI0
aI0
aI1
aI1
aI0
aI1
aI0
aI4828170
aS'_4445037128'
p40
aa(lp41
I1
aI0
aI1
aI1
aI0
aI0
aI1
aI0
aI1
aI1
aI0
aI0
aI1
aI0
aI0
aI1
aI5063600
aS'_4445037128'
p42
aa(lp43
I1
aI0
aI1
aI0
aI1
aI0
aI1
aI0
aI1
aI1
aI0
aI0
aI1
aI0
aI0
aI1
aI6270530
aS'_4445037128'
p44
aa(lp45
I1
aI1
aI1
aI0
aI1
aI1
aI1
aI0
aI1
aI1
aI0
aI0
aI1
aI0
aI0
aI1
aI6454470
aS'_4445037128'
p46
aaaa(lp47
S'_4525747232'
p48
a(lp49
(lp50
I1
aI1
aI1
aI1
aI1
aI0
aI1
aI0
aI1
aI0
aI1
aI0
aI1
aI1
aI0
aI0
aI2515870
ag48
aa(lp51
I1
aI0
aI1
aI1
aI1
aI0
aI1
aI0
aI1
aI0
aI1
aI0
aI1
aI1
aI0
aI0
aI2683970
aS'_4525747232'
p52
aa(lp53
I1
aI0
aI1
aI1
aI1
aI0
aI1
aI0
aI1
aI1
aI0
aI0
aI1
aI1
aI0
aI0
aI2662200
aS'_4525747232'
p54
aa(lp55
I1
aI1
aI1
aI1
aI0
aI0
aI1
aI0
aI1
aI0
aI1
aI0
aI1
aI0
aI0
aI1
aI4921300
aS'_4525747232'
p56
aa(lp57
I1
aI1
aI1
aI0
aI0
aI0
aI1
aI0
aI1
aI0
aI1
aI0
aI1
aI1
aI0
aI0
aI2465430
aS'_4525747232'
p58
aa(lp59
I1
aI0
aI1
aI1
aI0
aI0
aI1
aI0
aI1
aI0
aI1
aI0
aI1
aI1
aI0
aI0
aI2621700
aS'_4525747232'
p60
aa(lp61
I1
aI0
aI1
aI1
aI0
aI0
aI1
aI0
aI1
aI0
aI1
aI0
aI1
aI0
aI0
aI1
aI5083400
aS'_4525747232'
p62
aa(lp63
I1
aI0
aI1
aI0
aI0
aI0
aI1
aI0
aI1
aI0
aI1
aI0
aI1
aI1
aI0
aI0
aI2626530
aS'_4525747232'
p64
aa(lp65
I1
aI0
aI1
aI1
aI1
aI0
aI1
aI0
aI1
aI0
aI1
aI0
aI1
aI0
aI1
aI0
aI4446070
aS'_4525747232'
p66
aa(lp67
I1
aI1
aI1
aI1
aI0
aI0
aI1
aI0
aI1
aI0
aI1
aI0
aI1
aI0
aI1
aI0
aI3639370
aS'_4525747232'
p68
aa(lp69
I1
aI0
aI0
aI1
aI0
aI0
aI1
aI0
aI1
aI0
aI1
aI0
aI1
aI1
aI0
aI0
aI2701370
aS'_4525747232'
p70
aa(lp71
I1
aI0
aI1
aI0
aI0
aI0
aI1
aI1
aI1
aI0
aI1
aI0
aI1
aI0
aI0
aI1
aI5090330
aS'_4525747232'
p72
aa(lp73
I1
aI0
aI1
aI1
aI0
aI0
aI1
aI1
aI1
aI0
aI1
aI0
aI1
aI0
aI1
aI0
aI3794000
aS'_4525747232'
p74
aa(lp75
I1
aI0
aI1
aI0
aI0
aI0
aI1
aI0
aI1
aI0
aI1
aI0
aI1
aI0
aI0
aI1
aI5093700
aS'_4525747232'
p76
aa(lp77
I1
aI0
aI1
aI1
aI0
aI0
aI0
aI0
aI1
aI0
aI1
aI0
aI1
aI0
aI1
aI0
aI4396070
aS'_4525747232'
p78
aa(lp79
I1
aI1
aI0
aI0
aI0
aI0
aI1
aI0
aI1
aI0
aI1
aI0
aI1
aI0
aI0
aI1
aI4984900
aS'_4525747232'
p80
aa(lp81
I1
aI0
aI1
aI0
aI1
aI0
aI1
aI0
aI1
aI0
aI0
aI1
aI1
aI1
aI0
aI0
aI2700899
aS'_4525747232'
p82
aa(lp83
I1
aI1
aI0
aI0
aI0
aI1
aI1
aI0
aI1
aI0
aI1
aI0
aI1
aI1
aI0
aI0
aI2872100
aS'_4525747232'
p84
aa(lp85
I1
aI0
aI1
aI1
aI0
aI0
aI1
aI0
aI1
aI0
aI1
aI0
aI1
aI0
aI1
aI0
aI3794570
aS'_4525747232'
p86
aa(lp87
I1
aI0
aI1
aI1
aI1
aI1
aI1
aI0
aI1
aI0
aI1
aI0
aI1
aI0
aI1
aI0
aI4763300
aS'_4525747232'
p88
aa(lp89
I1
aI0
aI0
aI1
aI1
aI0
aI1
aI0
aI1
aI0
aI0
aI1
aI1
aI1
aI0
aI0
aI2790970
aS'_4525747232'
p90
aaaa(lp91
S'_4445480072'
p92
a(lp93
(lp94
I1
aI0
aI0
aI1
aI1
aI1
aI1
aI1
aI1
aI1
aI0
aI0
aI1
aI0
aI1
aI0
aI4820830
ag92
aa(lp95
I1
aI0
aI0
aI1
aI1
aI1
aI1
aI0
aI1
aI1
aI0
aI0
aI1
aI0
aI1
aI0
aI4823730
aS'_4445480072'
p96
aa(lp97
I1
aI0
aI0
aI1
aI1
aI0
aI1
aI1
aI1
aI1
aI0
aI0
aI1
aI0
aI1
aI0
aI4462500
aS'_4445480072'
p98
aa(lp99
I1
aI0
aI0
aI1
aI1
aI1
aI0
aI1
aI1
aI1
aI0
aI0
aI1
aI0
aI1
aI0
aI5734600
aS'_4445480072'
p100
aa(lp101
I1
aI0
aI0
aI0
aI0
aI1
aI1
aI1
aI1
aI1
aI0
aI0
aI1
aI0
aI1
aI0
aI4332670
aS'_4445480072'
p102
aa(lp103
I1
aI0
aI0
aI0
aI1
aI1
aI1
aI1
aI1
aI1
aI0
aI0
aI1
aI0
aI0
aI1
aI6721369
aS'_4445480072'
p104
aa(lp105
I1
aI0
aI1
aI1
aI0
aI1
aI0
aI1
aI1
aI1
aI0
aI0
aI1
aI0
aI1
aI0
aI5128700
aS'_4445480072'
p106
aa(lp107
I1
aI0
aI0
aI0
aI0
aI1
aI0
aI1
aI1
aI1
aI0
aI0
aI1
aI0
aI1
aI0
aI5190270
aS'_4445480072'
p108
aa(lp109
I1
aI1
aI0
aI0
aI1
aI1
aI0
aI1
aI1
aI1
aI0
aI0
aI1
aI0
aI1
aI0
aI5430300
aS'_4445480072'
p110
aa(lp111
I1
aI0
aI0
aI1
aI1
aI1
aI0
aI1
aI1
aI1
aI0
aI0
aI1
aI0
aI0
aI1
aI8219630
aS'_4445480072'
p112
aa(lp113
I1
aI0
aI0
aI0
aI1
aI1
aI1
aI1
aI1
aI0
aI0
aI1
aI1
aI0
aI1
aI0
aI4826400
aS'_4445480072'
p114
aa(lp115
I1
aI1
aI1
aI1
aI1
aI1
aI0
aI1
aI1
aI1
aI0
aI0
aI1
aI0
aI1
aI0
aI5369500
aS'_4445480072'
p116
aa(lp117
I1
aI0
aI1
aI0
aI0
aI1
aI1
aI1
aI1
aI1
aI0
aI0
aI1
aI0
aI1
aI0
aI4280830
aS'_4445480072'
p118
aa(lp119
I1
aI0
aI0
aI0
aI0
aI1
aI1
aI0
aI1
aI1
aI0
aI0
aI1
aI0
aI1
aI0
aI4332230
aS'_4445480072'
p120
aa(lp121
I1
aI0
aI0
aI1
aI1
aI0
aI1
aI1
aI1
aI1
aI0
aI0
aI1
aI0
aI0
aI1
aI6293900
aS'_4445480072'
p122
aa(lp123
I1
aI0
aI1
aI1
aI1
aI1
aI0
aI1
aI1
aI1
aI0
aI0
aI1
aI0
aI1
aI0
aI5640630
aS'_4445480072'
p124
aa(lp125
I1
aI0
aI1
aI0
aI1
aI1
aI1
aI1
aI1
aI1
aI0
aI0
aI1
aI0
aI1
aI0
aI4769370
aS'_4445480072'
p126
aa(lp127
I1
aI0
aI0
aI0
aI1
aI1
aI1
aI0
aI1
aI1
aI0
aI0
aI1
aI0
aI1
aI0
aI4829030
aS'_4445480072'
p128
aa(lp129
I1
aI1
aI1
aI0
aI1
aI1
aI1
aI1
aI1
aI0
aI0
aI1
aI1
aI0
aI1
aI0
aI4564370
aS'_4445480072'
p130
aa(lp131
I1
aI1
aI0
aI0
aI1
aI1
aI0
aI1
aI1
aI1
aI0
aI0
aI1
aI0
aI0
aI1
aI7806570
aS'_4445480072'
p132
aa(lp133
I1
aI1
aI1
aI1
aI1
aI1
aI0
aI1
aI1
aI1
aI0
aI0
aI1
aI0
aI0
aI1
aI7758030
aS'_4445480072'
p134
aaaa(lp135
S'_4525748024'
p136
a(lp137
(lp138
I1
aI0
aI1
aI0
aI1
aI1
aI0
aI0
aI1
aI1
aI0
aI0
aI1
aI0
aI0
aI1
aI8073330
ag136
aa(lp139
I1
aI0
aI0
aI0
aI1
aI1
aI0
aI1
aI1
aI0
aI0
aI1
aI1
aI0
aI0
aI1
aI8173529
aS'_4525748024'
p140
aa(lp141
I1
aI0
aI1
aI1
aI1
aI1
aI1
aI1
aI1
aI1
aI0
aI0
aI1
aI0
aI0
aI1
aI6652830
aS'_4525748024'
p142
aa(lp143
I1
aI0
aI1
aI1
aI1
aI1
aI1
aI0
aI1
aI1
aI0
aI0
aI1
aI0
aI0
aI1
aI6652230
aS'_4525748024'
p144
aa(lp145
I1
aI0
aI0
aI0
aI1
aI1
aI1
aI1
aI1
aI0
aI0
aI1
aI1
aI0
aI0
aI1
aI6722070
aS'_4525748024'
p146
aa(lp147
I1
aI0
aI0
aI0
aI0
aI1
aI1
aI1
aI1
aI1
aI0
aI0
aI1
aI0
aI0
aI1
aI5807300
aS'_4525748024'
p148
aa(lp149
I1
aI1
aI0
aI0
aI1
aI1
aI0
aI0
aI1
aI0
aI0
aI1
aI1
aI0
aI0
aI1
aI7811630
aS'_4525748024'
p150
aa(lp151
I1
aI0
aI0
aI1
aI1
aI1
aI1
aI1
aI1
aI1
aI0
aI0
aI1
aI0
aI0
aI1
aI6714000
aS'_4525748024'
p152
aa(lp153
I1
aI0
aI1
aI0
aI0
aI1
aI0
aI1
aI1
aI0
aI1
aI0
aI1
aI0
aI0
aI1
aI7126369
aS'_4525748024'
p154
aa(lp155
I1
aI1
aI1
aI1
aI1
aI1
aI1
aI0
aI1
aI1
aI0
aI0
aI1
aI0
aI0
aI1
aI6441570
aS'_4525748024'
p156
aa(lp157
I1
aI0
aI0
aI0
aI1
aI1
aI1
aI0
aI1
aI0
aI1
aI0
aI1
aI0
aI0
aI1
aI6724130
aS'_4525748024'
p158
aa(lp159
I1
aI0
aI0
aI0
aI0
aI1
aI0
aI0
aI1
aI0
aI1
aI0
aI1
aI0
aI0
aI1
aI7215630
aS'_4525748024'
p160
aa(lp161
I1
aI1
aI0
aI1
aI1
aI1
aI1
aI0
aI1
aI1
aI0
aI0
aI1
aI0
aI0
aI1
aI6517030
aS'_4525748024'
p162
aa(lp163
I1
aI0
aI1
aI0
aI0
aI1
aI1
aI1
aI1
aI0
aI1
aI0
aI1
aI0
aI0
aI1
aI5762770
aS'_4525748024'
p164
aa(lp165
I1
aI0
aI0
aI1
aI0
aI0
aI0
aI0
aI1
aI1
aI0
aI0
aI1
aI0
aI0
aI1
aI6152870
aS'_4525748024'
p166
aa(lp167
I1
aI0
aI0
aI0
aI0
aI1
aI0
aI1
aI1
aI0
aI1
aI0
aI1
aI0
aI0
aI1
aI7220370
aS'_4525748024'
p168
aa(lp169
I1
aI0
aI0
aI0
aI1
aI1
aI1
aI1
aI1
aI0
aI1
aI0
aI1
aI0
aI0
aI1
aI6722130
aS'_4525748024'
p170
aa(lp171
I1
aI0
aI0
aI1
aI1
aI0
aI1
aI0
aI1
aI1
aI0
aI0
aI1
aI0
aI0
aI1
aI6296200
aS'_4525748024'
p172
aa(lp173
I1
aI1
aI1
aI0
aI0
aI1
aI0
aI0
aI1
aI0
aI1
aI0
aI1
aI0
aI0
aI1
aI6805570
aS'_4525748024'
p174
aa(lp175
I1
aI0
aI0
aI0
aI1
aI0
aI1
aI1
aI1
aI0
aI0
aI1
aI1
aI0
aI0
aI1
aI6328270
aS'_4525748024'
p176
aa(lp177
I1
aI1
aI0
aI0
aI1
aI1
aI1
aI1
aI1
aI0
aI0
aI1
aI1
aI0
aI0
aI1
aI6523730
aS'_4525748024'
p178
aaaa(lp179
S'_4445480216'
p180
a(lp181
(lp182
I1
aI0
aI0
aI1
aI1
aI1
aI0
aI1
aI1
aI0
aI0
aI1
aI1
aI0
aI1
aI0
aI5732400
ag180
aa(lp183
I1
aI0
aI0
aI1
aI1
aI0
aI0
aI1
aI1
aI0
aI0
aI1
aI1
aI0
aI1
aI0
aI5185670
aS'_4445480216'
p184
aa(lp185
I1
aI0
aI0
aI1
aI1
aI0
aI0
aI1
aI1
aI1
aI0
aI0
aI1
aI0
aI1
aI0
aI5156870
aS'_4445480216'
p186
aa(lp187
I1
aI0
aI0
aI1
aI0
aI1
aI0
aI1
aI1
aI1
aI0
aI0
aI1
aI0
aI1
aI0
aI5214430
aS'_4445480216'
p188
aa(lp189
I1
aI0
aI0
aI0
aI1
aI1
aI0
aI0
aI1
aI0
aI0
aI1
aI1
aI0
aI1
aI0
aI5715100
aS'_4445480216'
p190
aa(lp191
I1
aI0
aI0
aI1
aI1
aI0
aI0
aI0
aI1
aI0
aI0
aI1
aI1
aI0
aI1
aI0
aI5188000
aS'_4445480216'
p192
aa(lp193
I1
aI0
aI0
aI1
aI0
aI0
aI0
aI1
aI1
aI1
aI0
aI0
aI1
aI0
aI1
aI0
aI4445200
aS'_4445480216'
p194
aa(lp195
I1
aI0
aI0
aI1
aI1
aI0
aI0
aI1
aI1
aI0
aI1
aI0
aI1
aI0
aI1
aI0
aI5171230
aS'_4445480216'
p196
aa(lp197
I1
aI0
aI0
aI0
aI1
aI0
aI0
aI0
aI1
aI0
aI0
aI1
aI1
aI0
aI1
aI0
aI5167670
aS'_4445480216'
p198
aa(lp199
I1
aI1
aI0
aI1
aI0
aI0
aI0
aI1
aI1
aI1
aI0
aI0
aI1
aI0
aI1
aI0
aI4244900
aS'_4445480216'
p200
aa(lp201
I1
aI0
aI0
aI0
aI0
aI1
aI0
aI0
aI1
aI1
aI0
aI0
aI1
aI0
aI1
aI0
aI5195870
aS'_4445480216'
p202
aa(lp203
I1
aI1
aI0
aI1
aI1
aI0
aI1
aI1
aI1
aI1
aI0
aI0
aI1
aI0
aI1
aI0
aI4306970
aS'_4445480216'
p204
aa(lp205
I1
aI1
aI0
aI1
aI0
aI1
aI1
aI1
aI1
aI1
aI0
aI0
aI1
aI0
aI1
aI0
aI4140330
aS'_4445480216'
p206
aa(lp207
I1
aI1
aI0
aI0
aI1
aI0
aI0
aI1
aI1
aI1
aI0
aI0
aI1
aI0
aI1
aI0
aI4916870
aS'_4445480216'
p208
aa(lp209
I1
aI0
aI0
aI0
aI1
aI0
aI0
aI0
aI1
aI1
aI0
aI0
aI1
aI0
aI1
aI0
aI5141700
aS'_4445480216'
p210
aa(lp211
I1
aI0
aI0
aI1
aI0
aI0
aI0
aI0
aI1
aI1
aI0
aI0
aI1
aI0
aI1
aI0
aI4447100
aS'_4445480216'
p212
aa(lp213
I1
aI0
aI0
aI0
aI1
aI0
aI0
aI1
aI1
aI0
aI1
aI0
aI1
aI0
aI1
aI0
aI5156630
aS'_4445480216'
p214
aa(lp215
I1
aI0
aI1
aI0
aI0
aI0
aI0
aI1
aI1
aI0
aI0
aI1
aI1
aI0
aI1
aI0
aI4390200
aS'_4445480216'
p216
aa(lp217
I1
aI0
aI0
aI1
aI0
aI0
aI0
aI1
aI1
aI0
aI1
aI0
aI1
aI0
aI1
aI0
aI4466000
aS'_4445480216'
p218
aa(lp219
I1
aI0
aI1
aI0
aI1
aI0
aI0
aI0
aI1
aI0
aI0
aI1
aI1
aI0
aI1
aI0
aI5089830
aS'_4445480216'
p220
aa(lp221
I1
aI0
aI0
aI1
aI0
aI0
aI1
aI1
aI1
aI0
aI1
aI0
aI1
aI0
aI1
aI0
aI3820100
aS'_4445480216'
p222
aaaa(lp223
S'_4525745288'
p224
a(lp225
(lp226
I1
aI0
aI1
aI1
aI0
aI1
aI1
aI0
aI1
aI0
aI1
aI0
aI1
aI0
aI1
aI0
aI4277530
ag224
aa(lp227
I1
aI1
aI0
aI1
aI0
aI1
aI1
aI0
aI1
aI0
aI1
aI0
aI1
aI0
aI1
aI0
aI4141730
aS'_4525745288'
p228
aa(lp229
I1
aI0
aI0
aI0
aI1
aI0
aI1
aI0
aI1
aI0
aI0
aI1
aI1
aI1
aI0
aI0
aI2795330
aS'_4525745288'
p230
aa(lp231
I1
aI0
aI0
aI1
aI1
aI0
aI1
aI0
aI1
aI0
aI0
aI1
aI1
aI0
aI0
aI1
aI6317370
aS'_4525745288'
p232
aa(lp233
I1
aI0
aI1
aI1
aI1
aI0
aI1
aI0
aI1
aI0
aI0
aI1
aI1
aI0
aI1
aI0
aI4456670
aS'_4525745288'
p234
aa(lp235
I1
aI0
aI0
aI0
aI0
aI1
aI1
aI0
aI1
aI0
aI1
aI0
aI1
aI1
aI0
aI0
aI3055030
aS'_4525745288'
p236
aa(lp237
I1
aI0
aI0
aI1
aI0
aI0
aI1
aI0
aI1
aI0
aI1
aI0
aI1
aI0
aI1
aI0
aI3821200
aS'_4525745288'
p238
aa(lp239
I1
aI0
aI0
aI1
aI0
aI0
aI1
aI0
aI1
aI1
aI0
aI0
aI1
aI0
aI0
aI1
aI5087100
aS'_4525745288'
p240
aa(lp241
I1
aI0
aI1
aI0
aI0
aI1
aI1
aI0
aI1
aI0
aI1
aI0
aI1
aI0
aI1
aI0
aI4283830
aS'_4525745288'
p242
aa(lp243
I1
aI0
aI0
aI0
aI0
aI0
aI1
aI0
aI1
aI0
aI0
aI1
aI1
aI1
aI0
aI0
aI2721300
aS'_4525745288'
p244
aa(lp245
I1
aI0
aI0
aI1
aI1
aI0
aI1
aI0
aI1
aI0
aI0
aI1
aI1
aI0
aI1
aI0
aI4493830
aS'_4525745288'
p246
aa(lp247
I1
aI0
aI0
aI0
aI0
aI1
aI1
aI0
aI1
aI1
aI0
aI0
aI1
aI1
aI0
aI0
aI3052600
aS'_4525745288'
p248
aa(lp249
I1
aI0
aI0
aI1
aI0
aI0
aI1
aI0
aI1
aI0
aI0
aI1
aI1
aI0
aI0
aI1
aI5108370
aS'_4525745288'
p250
aa(lp251
I1
aI0
aI1
aI0
aI0
aI1
aI1
aI1
aI1
aI0
aI1
aI0
aI1
aI0
aI1
aI0
aI4280730
aS'_4525745288'
p252
aa(lp253
I1
aI0
aI0
aI1
aI0
aI0
aI1
aI0
aI1
aI0
aI0
aI1
aI1
aI0
aI1
aI0
aI3832600
aS'_4525745288'
p254
aa(lp255
I1
aI0
aI0
aI1
aI0
aI1
aI1
aI0
aI1
aI0
aI0
aI1
aI1
aI0
aI0
aI1
aI5804770
aS'_4525745288'
p256
aa(lp257
I1
aI0
aI0
aI0
aI0
aI1
aI1
aI0
aI1
aI0
aI1
aI0
aI1
aI0
aI1
aI0
aI4332230
aS'_4525745288'
p258
aa(lp259
I1
aI0
aI1
aI0
aI0
aI0
aI1
aI0
aI1
aI0
aI0
aI1
aI1
aI0
aI1
aI0
aI3814030
aS'_4525745288'
p260
aa(lp261
I1
aI0
aI0
aI0
aI0
aI0
aI1
aI1
aI1
aI0
aI0
aI1
aI1
aI0
aI0
aI1
aI5117330
aS'_4525745288'
p262
aa(lp263
I1
aI0
aI0
aI0
aI0
aI0
aI0
aI0
aI1
aI0
aI0
aI1
aI1
aI0
aI0
aI1
aI6134470
aS'_4525745288'
p264
aa(lp265
I1
aI0
aI0
aI0
aI0
aI0
aI1
aI0
aI1
aI0
aI0
aI1
aI1
aI0
aI1
aI0
aI3841970
aS'_4525745288'
p266
aa(lp267
I1
aI0
aI0
aI0
aI0
aI1
aI1
aI0
aI1
aI0
aI0
aI1
aI1
aI0
aI1
aI0
aI4332230
aS'_4525745288'
p268
aaaa(lp269
S'_4445038496'
p270
a(lp271
(lp272
I1
aI0
aI1
aI0
aI0
aI0
aI1
aI0
aI1
aI0
aI0
aI1
aI1
aI0
aI0
aI1
aI5098930
ag270
aa(lp273
I1
aI0
aI0
aI0
aI0
aI1
aI1
aI0
aI1
aI0
aI0
aI1
aI1
aI0
aI0
aI1
aI5807400
aS'_4445038496'
p274
aa(lp275
I1
aI1
aI1
aI1
aI0
aI0
aI1
aI0
aI1
aI1
aI0
aI0
aI1
aI0
aI0
aI1
aI4904730
aS'_4445038496'
p276
aa(lp277
I1
aI0
aI0
aI0
aI0
aI1
aI1
aI1
aI1
aI0
aI0
aI1
aI1
aI0
aI0
aI1
aI5806070
aS'_4445038496'
p278
aa(lp279
I1
aI0
aI1
aI1
aI1
aI0
aI1
aI0
aI1
aI1
aI0
aI0
aI1
aI0
aI0
aI1
aI6257970
aS'_4445038496'
p280
aa(lp281
I1
aI0
aI1
aI0
aI0
aI0
aI1
aI1
aI1
aI0
aI0
aI1
aI1
aI0
aI0
aI1
aI5094730
aS'_4445038496'
p282
aa(lp283
I1
aI0
aI1
aI0
aI1
aI1
aI1
aI0
aI1
aI0
aI0
aI1
aI1
aI0
aI0
aI1
aI6666870
aS'_4445038496'
p284
aa(lp285
I1
aI0
aI1
aI0
aI1
aI1
aI0
aI0
aI1
aI0
aI0
aI1
aI1
aI0
aI0
aI1
aI8074370
aS'_4445038496'
p286
aa(lp287
I1
aI1
aI1
aI0
aI0
aI0
aI0
aI0
aI1
aI0
aI1
aI0
aI1
aI0
aI0
aI1
aI5815130
aS'_4445038496'
p288
aa(lp289
I1
aI1
aI1
aI1
aI1
aI0
aI1
aI0
aI1
aI1
aI0
aI0
aI1
aI0
aI0
aI1
aI6076269
aS'_4445038496'
p290
aa(lp291
I1
aI0
aI0
aI0
aI1
aI1
aI1
aI0
aI1
aI0
aI0
aI1
aI1
aI0
aI0
aI1
aI6726000
aS'_4445038496'
p292
aa(lp293
I1
aI1
aI0
aI0
aI0
aI1
aI1
aI0
aI1
aI0
aI0
aI1
aI1
aI0
aI0
aI1
aI5618470
aS'_4445038496'
p294
aa(lp295
I1
aI1
aI1
aI0
aI0
aI0
aI1
aI0
aI1
aI0
aI0
aI1
aI1
aI0
aI0
aI1
aI4939600
aS'_4445038496'
p296
aa(lp297
I1
aI0
aI1
aI0
aI1
aI0
aI1
aI1
aI1
aI0
aI0
aI1
aI1
aI0
aI0
aI1
aI6293970
aS'_4445038496'
p298
aa(lp299
I1
aI0
aI1
aI0
aI1
aI0
aI0
aI1
aI1
aI0
aI0
aI1
aI1
aI0
aI0
aI1
aI7314100
aS'_4445038496'
p300
aa(lp301
I1
aI0
aI1
aI1
aI1
aI0
aI1
aI0
aI1
aI0
aI0
aI1
aI1
aI0
aI0
aI1
aI6281500
aS'_4445038496'
p302
aa(lp303
I1
aI1
aI0
aI0
aI0
aI0
aI0
aI0
aI1
aI0
aI0
aI1
aI1
aI0
aI0
aI1
aI5885400
aS'_4445038496'
p304
aa(lp305
I1
aI1
aI1
aI0
aI1
aI0
aI1
aI1
aI1
aI0
aI0
aI1
aI1
aI0
aI0
aI1
aI6114330
aS'_4445038496'
p306
aa(lp307
I1
aI0
aI1
aI1
aI1
aI0
aI0
aI0
aI1
aI0
aI0
aI1
aI1
aI0
aI0
aI1
aI7342100
aS'_4445038496'
p308
aa(lp309
I1
aI1
aI0
aI0
aI0
aI0
aI1
aI1
aI1
aI0
aI0
aI1
aI1
aI0
aI0
aI1
aI4988270
aS'_4445038496'
p310
aa(lp311
I1
aI0
aI0
aI0
aI1
aI0
aI1
aI0
aI1
aI0
aI0
aI1
aI1
aI0
aI0
aI1
aI6329430
aS'_4445038496'
p312
aa(lp313
I1
aI1
aI0
aI1
aI1
aI0
aI1
aI0
aI1
aI0
aI0
aI1
aI1
aI0
aI0
aI1
aI6159000
aS'_4445038496'
p314
aaaa(lp315
S'_4525747376'
p316
a(lp317
(lp318
I1
aI0
aI1
aI1
aI1
aI1
aI0
aI0
aI1
aI1
aI0
aI0
aI1
aI0
aI0
aI1
aI8099370
ag316
aa(lp319
I1
aI0
aI1
aI1
aI1
aI0
aI0
aI0
aI1
aI1
aI0
aI0
aI1
aI0
aI0
aI1
aI7320069
aS'_4525747376'
p320
aa(lp321
I1
aI0
aI0
aI1
aI1
aI1
aI0
aI0
aI1
aI0
aI0
aI1
aI1
aI0
aI0
aI1
aI8217600
aS'_4525747376'
p322
aa(lp323
I1
aI0
aI1
aI1
aI1
aI1
aI0
aI1
aI1
aI0
aI1
aI0
aI1
aI0
aI0
aI1
aI8095000
aS'_4525747376'
p324
aa(lp325
I1
aI0
aI1
aI0
aI1
aI1
aI0
aI1
aI1
aI0
aI1
aI0
aI1
aI0
aI0
aI1
aI8070000
aS'_4525747376'
p326
aa(lp327
I1
aI0
aI1
aI1
aI1
aI1
aI0
aI0
aI1
aI0
aI1
aI0
aI1
aI0
aI0
aI1
aI8099700
aS'_4525747376'
p328
aa(lp329
I1
aI0
aI0
aI0
aI1
aI1
aI0
aI0
aI1
aI0
aI1
aI0
aI1
aI0
aI0
aI1
aI8180400
aS'_4525747376'
p330
aa(lp331
I1
aI1
aI1
aI0
aI1
aI1
aI0
aI0
aI1
aI0
aI1
aI0
aI1
aI0
aI0
aI1
aI7733869
aS'_4525747376'
p332
aa(lp333
I1
aI0
aI1
aI1
aI1
aI1
aI1
aI1
aI1
aI0
aI1
aI0
aI1
aI0
aI0
aI1
aI6652300
aS'_4525747376'
p334
aa(lp335
I1
aI0
aI1
aI0
aI0
aI1
aI0
aI0
aI1
aI0
aI1
aI0
aI1
aI0
aI0
aI1
aI7129170
aS'_4525747376'
p336
aa(lp337
I1
aI0
aI1
aI1
aI1
aI1
aI0
aI0
aI1
aI0
aI1
aI0
aI1
aI0
aI1
aI0
aI5642000
aS'_4525747376'
p338
aa(lp339
I1
aI0
aI0
aI1
aI1
aI1
aI0
aI1
aI1
aI0
aI1
aI0
aI1
aI0
aI0
aI1
aI8217569
aS'_4525747376'
p340
aa(lp341
I1
aI0
aI1
aI0
aI1
aI0
aI0
aI0
aI1
aI0
aI1
aI0
aI1
aI0
aI0
aI1
aI7313529
aS'_4525747376'
p342
aa(lp343
I1
aI0
aI1
aI1
aI1
aI0
aI0
aI1
aI1
aI0
aI1
aI0
aI1
aI0
aI0
aI1
aI7332170
aS'_4525747376'
p344
aa(lp345
I1
aI0
aI0
aI1
aI1
aI0
aI0
aI0
aI1
aI0
aI0
aI1
aI1
aI0
aI0
aI1
aI7455970
aS'_4525747376'
p346
aa(lp347
I1
aI0
aI1
aI0
aI1
aI1
aI1
aI0
aI1
aI0
aI1
aI0
aI1
aI0
aI0
aI1
aI6665030
aS'_4525747376'
p348
aa(lp349
I1
aI0
aI1
aI1
aI1
aI1
aI1
aI0
aI1
aI0
aI1
aI0
aI1
aI0
aI0
aI1
aI6652930
aS'_4525747376'
p350
aa(lp351
I1
aI0
aI1
aI0
aI0
aI0
aI0
aI1
aI1
aI0
aI1
aI0
aI1
aI0
aI0
aI1
aI6041230
aS'_4525747376'
p352
aa(lp353
I1
aI0
aI1
aI1
aI1
aI1
aI1
aI1
aI1
aI0
aI1
aI0
aI1
aI0
aI1
aI0
aI4761270
aS'_4525747376'
p354
aa(lp355
I1
aI0
aI1
aI0
aI0
aI0
aI0
aI0
aI1
aI0
aI1
aI0
aI1
aI0
aI0
aI1
aI6047470
aS'_4525747376'
p356
aa(lp357
I1
aI0
aI1
aI1
aI0
aI0
aI0
aI1
aI1
aI0
aI1
aI0
aI1
aI0
aI0
aI1
aI6070330
aS'_4525747376'
p358
aaaa(lp359
S'_4445479424'
p360
a(lp361
(lp362
I1
aI1
aI1
aI1
aI1
aI0
aI1
aI0
aI1
aI0
aI0
aI1
aI1
aI0
aI1
aI0
aI4282630
ag360
aa(lp363
I1
aI0
aI1
aI1
aI0
aI0
aI0
aI1
aI1
aI0
aI1
aI0
aI1
aI0
aI1
aI0
aI4392600
aS'_4445479424'
p364
aa(lp365
I1
aI0
aI1
aI1
aI0
aI0
aI0
aI0
aI1
aI1
aI0
aI0
aI1
aI0
aI1
aI0
aI4379200
aS'_4445479424'
p366
aa(lp367
I1
aI1
aI0
aI1
aI0
aI0
aI1
aI1
aI1
aI1
aI0
aI0
aI1
aI0
aI1
aI0
aI3668370
aS'_4445479424'
p368
aa(lp369
I1
aI1
aI0
aI0
aI0
aI0
aI0
aI1
aI1
aI1
aI0
aI0
aI1
aI0
aI1
aI0
aI4226470
aS'_4445479424'
p370
aa(lp371
I1
aI1
aI1
aI1
aI0
aI0
aI0
aI1
aI1
aI1
aI0
aI0
aI1
aI0
aI1
aI0
aI4176330
aS'_4445479424'
p372
aa(lp373
I1
aI0
aI0
aI1
aI0
aI0
aI1
aI0
aI1
aI1
aI0
aI0
aI1
aI0
aI1
aI0
aI3801470
aS'_4445479424'
p374
aa(lp375
I1
aI0
aI0
aI0
aI0
aI0
aI0
aI0
aI1
aI1
aI0
aI0
aI1
aI0
aI1
aI0
aI4422500
aS'_4445479424'
p376
aa(lp377
I1
aI0
aI0
aI0
aI0
aI0
aI0
aI0
aI1
aI0
aI1
aI0
aI1
aI0
aI1
aI0
aI4446000
aS'_4445479424'
p378
aa(lp379
I1
aI1
aI0
aI0
aI0
aI1
aI1
aI0
aI1
aI1
aI0
aI0
aI1
aI0
aI1
aI0
aI4148330
aS'_4445479424'
p380
aa(lp381
I1
aI1
aI0
aI0
aI0
aI0
aI0
aI0
aI1
aI1
aI0
aI0
aI1
aI0
aI1
aI0
aI4230770
aS'_4445479424'
p382
aa(lp383
I1
aI1
aI0
aI0
aI1
aI0
aI1
aI0
aI1
aI1
aI0
aI0
aI1
aI0
aI1
aI0
aI4321430
aS'_4445479424'
p384
aa(lp385
I1
aI1
aI1
aI0
aI0
aI0
aI0
aI1
aI1
aI1
aI0
aI0
aI1
aI0
aI1
aI0
aI4162630
aS'_4445479424'
p386
aa(lp387
I1
aI0
aI0
aI0
aI0
aI0
aI1
aI0
aI1
aI1
aI0
aI0
aI1
aI0
aI1
aI0
aI3811230
aS'_4445479424'
p388
aa(lp389
I1
aI1
aI1
aI1
aI0
aI0
aI1
aI1
aI1
aI1
aI0
aI0
aI1
aI0
aI1
aI0
aI3617029
aS'_4445479424'
p390
aa(lp391
I1
aI1
aI0
aI1
aI0
aI0
aI1
aI0
aI1
aI1
aI0
aI0
aI1
aI0
aI1
aI0
aI3670670
aS'_4445479424'
p392
aa(lp393
I1
aI1
aI1
aI0
aI0
aI0
aI0
aI0
aI1
aI1
aI0
aI0
aI1
aI0
aI1
aI0
aI4168870
aS'_4445479424'
p394
aa(lp395
I1
aI1
aI0
aI0
aI0
aI0
aI1
aI0
aI1
aI1
aI0
aI0
aI1
aI0
aI1
aI0
aI3679630
aS'_4445479424'
p396
aa(lp397
I1
aI0
aI0
aI0
aI0
aI0
aI1
aI0
aI1
aI0
aI1
aI0
aI1
aI0
aI1
aI0
aI3830530
aS'_4445479424'
p398
aa(lp399
I1
aI1
aI1
aI1
aI0
aI0
aI1
aI1
aI1
aI0
aI1
aI0
aI1
aI0
aI1
aI0
aI3635600
aS'_4445479424'
p400
aa(lp401
I1
aI0
aI1
aI0
aI0
aI0
aI1
aI0
aI1
aI0
aI1
aI0
aI1
aI0
aI1
aI0
aI3806630
aS'_4445479424'
p402
aa(lp403
I1
aI1
aI1
aI0
aI0
aI0
aI1
aI0
aI1
aI0
aI1
aI0
aI1
aI0
aI1
aI0
aI3647600
aS'_4445479424'
p404
aaaa(lp405
S'_4445481656'
p406
a(lp407
(lp408
I1
aI1
aI0
aI1
aI1
aI1
aI0
aI1
aI1
aI0
aI1
aI0
aI1
aI0
aI1
aI0
aI5447500
ag406
aa(lp409
I1
aI1
aI0
aI0
aI1
aI1
aI0
aI1
aI1
aI0
aI1
aI0
aI1
aI0
aI1
aI0
aI5432170
aS'_4445481656'
p410
aa(lp411
I1
aI1
aI1
aI1
aI1
aI1
aI0
aI1
aI1
aI0
aI1
aI0
aI1
aI0
aI1
aI0
aI5368769
aS'_4445481656'
p412
aa(lp413
I1
aI1
aI0
aI1
aI1
aI1
aI0
aI1
aI1
aI0
aI0
aI1
aI1
aI0
aI1
aI0
aI5445800
aS'_4445481656'
p414
aa(lp415
I1
aI0
aI0
aI1
aI1
aI0
aI0
aI0
aI1
aI0
aI1
aI0
aI1
aI0
aI1
aI0
aI5181430
aS'_4445481656'
p416
aa(lp417
I1
aI1
aI0
aI0
aI1
aI1
aI1
aI0
aI1
aI0
aI1
aI0
aI1
aI0
aI1
aI0
aI4633900
aS'_4445481656'
p418
aa(lp419
I1
aI1
aI1
aI1
aI1
aI1
aI0
aI1
aI1
aI0
aI0
aI1
aI1
aI0
aI1
aI0
aI5368500
aS'_4445481656'
p420
aa(lp421
I1
aI1
aI1
aI1
aI1
aI1
aI0
aI0
aI1
aI0
aI1
aI0
aI1
aI0
aI1
aI0
aI5371430
aS'_4445481656'
p422
aa(lp423
I1
aI1
aI0
aI1
aI1
aI0
aI0
aI0
aI1
aI0
aI1
aI0
aI1
aI0
aI1
aI0
aI4951000
aS'_4445481656'
p424
aa(lp425
I1
aI0
aI1
aI1
aI1
aI0
aI0
aI0
aI1
aI0
aI1
aI0
aI1
aI0
aI1
aI0
aI5092730
aS'_4445481656'
p426
aa(lp427
I1
aI0
aI0
aI0
aI0
aI1
aI0
aI0
aI1
aI0
aI1
aI0
aI1
aI0
aI1
aI0
aI5195830
aS'_4445481656'
p428
aa(lp429
I1
aI1
aI0
aI1
aI1
aI1
aI0
aI0
aI1
aI0
aI1
aI0
aI1
aI0
aI0
aI1
aI7838769
aS'_4445481656'
p430
aa(lp431
I1
aI1
aI0
aI1
aI1
aI1
aI0
aI0
aI1
aI1
aI0
aI0
aI1
aI0
aI1
aI0
aI5450170
aS'_4445481656'
p432
aa(lp433
I1
aI1
aI0
aI0
aI0
aI1
aI0
aI0
aI1
aI0
aI1
aI0
aI1
aI0
aI1
aI0
aI4923070
aS'_4445481656'
p434
aa(lp435
I1
aI1
aI0
aI1
aI1
aI0
aI0
aI1
aI1
aI1
aI0
aI0
aI1
aI0
aI1
aI0
aI4926630
aS'_4445481656'
p436
aa(lp437
I1
aI1
aI1
aI1
aI1
aI0
aI0
aI0
aI1
aI0
aI0
aI1
aI1
aI0
aI1
aI0
aI4887730
aS'_4445481656'
p438
aa(lp439
I1
aI0
aI0
aI1
aI0
aI1
aI0
aI0
aI1
aI1
aI0
aI0
aI1
aI0
aI1
aI0
aI5217000
aS'_4445481656'
p440
aa(lp441
I1
aI1
aI1
aI0
aI1
aI1
aI0
aI0
aI1
aI0
aI0
aI1
aI1
aI0
aI1
aI0
aI5357070
aS'_4445481656'
p442
aa(lp443
I1
aI1
aI0
aI1
aI0
aI1
aI1
aI0
aI1
aI1
aI0
aI0
aI1
aI0
aI1
aI0
aI4142300
aS'_4445481656'
p444
aa(lp445
I1
aI1
aI0
aI1
aI1
aI0
aI1
aI0
aI1
aI1
aI0
aI0
aI1
aI0
aI1
aI0
aI4310000
aS'_4445481656'
p446
aa(lp447
I1
aI0
aI1
aI0
aI1
aI0
aI0
aI0
aI1
aI0
aI1
aI0
aI1
aI0
aI1
aI0
aI5077500
aS'_4445481656'
p448
aa(lp449
I1
aI1
aI1
aI0
aI1
aI0
aI1
aI0
aI1
aI0
aI1
aI0
aI1
aI0
aI1
aI0
aI4284130
aS'_4445481656'
p450
aaaa(lp451
S'_4445479928'
p452
a(lp453
(lp454
I1
aI0
aI1
aI0
aI1
aI0
aI0
aI0
aI1
aI0
aI0
aI1
aI1
aI1
aI0
aI0
aI2699169
ag452
aa(lp455
I1
aI0
aI1
aI0
aI1
aI1
aI0
aI0
aI1
aI0
aI0
aI1
aI1
aI1
aI0
aI0
aI2998670
aS'_4445479928'
p456
aa(lp457
I1
aI0
aI1
aI1
aI1
aI1
aI0
aI0
aI1
aI0
aI0
aI1
aI1
aI1
aI0
aI0
aI2998130
aS'_4445479928'
p458
aa(lp459
I1
aI0
aI1
aI0
aI0
aI1
aI1
aI0
aI1
aI1
aI0
aI0
aI1
aI1
aI0
aI0
aI2955070
aS'_4445479928'
p460
aa(lp461
I1
aI0
aI1
aI1
aI1
aI1
aI1
aI0
aI1
aI0
aI0
aI1
aI1
aI0
aI1
aI0
aI4763100
aS'_4445479928'
p462
aa(lp463
I1
aI0
aI1
aI1
aI1
aI1
aI1
aI0
aI1
aI1
aI0
aI0
aI1
aI1
aI0
aI0
aI2996370
aS'_4445479928'
p464
aa(lp465
I1
aI1
aI1
aI1
aI1
aI1
aI1
aI0
aI1
aI0
aI0
aI1
aI1
aI1
aI0
aI0
aI2791300
aS'_4445479928'
p466
aa(lp467
I1
aI0
aI1
aI1
aI0
aI0
aI0
aI0
aI1
aI1
aI0
aI0
aI1
aI1
aI0
aI0
aI2598070
aS'_4445479928'
p468
aa(lp469
I1
aI0
aI1
aI1
aI1
aI1
aI0
aI0
aI1
aI0
aI0
aI1
aI1
aI0
aI1
aI0
aI5641670
aS'_4445479928'
p470
aa(lp471
I1
aI0
aI1
aI1
aI1
aI1
aI0
aI0
aI1
aI1
aI0
aI0
aI1
aI1
aI0
aI0
aI2996370
aS'_4445479928'
p472
aa(lp473
I1
aI0
aI1
aI1
aI0
aI1
aI0
aI0
aI1
aI0
aI0
aI1
aI1
aI1
aI0
aI0
aI2953530
aS'_4445479928'
p474
aa(lp475
I1
aI0
aI1
aI1
aI1
aI1
aI0
aI1
aI1
aI0
aI0
aI1
aI1
aI0
aI1
aI0
aI5641470
aS'_4445479928'
p476
aa(lp477
I1
aI1
aI1
aI1
aI0
aI1
aI1
aI0
aI1
aI0
aI0
aI1
aI1
aI1
aI0
aI0
aI2753900
aS'_4445479928'
p478
aa(lp479
I1
aI1
aI1
aI1
aI1
aI1
aI1
aI0
aI1
aI1
aI0
aI0
aI1
aI1
aI0
aI0
aI2791530
aS'_4445479928'
p480
aa(lp481
I1
aI1
aI0
aI1
aI1
aI1
aI1
aI0
aI1
aI0
aI0
aI1
aI1
aI1
aI0
aI0
aI2912770
aS'_4445479928'
p482
aa(lp483
I1
aI0
aI0
aI0
aI0
aI1
aI0
aI0
aI1
aI0
aI0
aI1
aI1
aI0
aI1
aI0
aI5194130
aS'_4445479928'
p484
aa(lp485
I1
aI0
aI1
aI1
aI1
aI1
aI1
aI1
aI1
aI1
aI0
aI0
aI1
aI1
aI0
aI0
aI2997029
aS'_4445479928'
p486
aa(lp487
I1
aI0
aI0
aI1
aI0
aI0
aI0
aI0
aI1
aI0
aI0
aI1
aI1
aI0
aI1
aI0
aI4476270
aS'_4445479928'
p488
aa(lp489
I1
aI1
aI1
aI1
aI1
aI1
aI0
aI0
aI1
aI0
aI0
aI1
aI1
aI0
aI1
aI0
aI5371130
aS'_4445479928'
p490
aa(lp491
I1
aI0
aI1
aI1
aI0
aI1
aI0
aI0
aI1
aI0
aI0
aI1
aI1
aI0
aI1
aI0
aI5135230
aS'_4445479928'
p492
aa(lp493
I1
aI1
aI1
aI1
aI0
aI1
aI0
aI0
aI1
aI0
aI0
aI1
aI1
aI1
aI0
aI0
aI2754529
aS'_4445479928'
p494
aaaa(lp495
S'_4445482160'
p496
a(lp497
(lp498
I1
aI1
aI1
aI0
aI1
aI0
aI1
aI0
aI1
aI0
aI0
aI1
aI1
aI0
aI1
aI0
aI4296430
ag496
aa(lp499
I1
aI1
aI1
aI0
aI0
aI0
aI0
aI0
aI1
aI0
aI0
aI1
aI1
aI0
aI1
aI0
aI4197000
aS'_4445482160'
p500
aa(lp501
I1
aI0
aI0
aI0
aI0
aI0
aI0
aI1
aI1
aI0
aI1
aI0
aI1
aI0
aI0
aI1
aI6126430
aS'_4445482160'
p502
aa(lp503
I1
aI1
aI0
aI0
aI0
aI0
aI0
aI1
aI1
aI0
aI0
aI1
aI1
aI1
aI0
aI0
aI2579270
aS'_4445482160'
p504
aa(lp505
I1
aI0
aI0
aI0
aI0
aI0
aI0
aI1
aI1
aI0
aI0
aI1
aI1
aI0
aI1
aI0
aI4454870
aS'_4445482160'
p506
aa(lp507
I1
aI1
aI0
aI1
aI1
aI0
aI1
aI0
aI1
aI0
aI0
aI1
aI1
aI0
aI1
aI0
aI4339130
aS'_4445482160'
p508
aa(lp509
I1
aI0
aI0
aI0
aI1
aI0
aI1
aI1
aI1
aI0
aI0
aI1
aI1
aI0
aI1
aI0
aI4501300
aS'_4445482160'
p510
aa(lp511
I1
aI1
aI0
aI0
aI0
aI1
aI0
aI0
aI1
aI0
aI0
aI1
aI1
aI0
aI1
aI0
aI4923670
aS'_4445482160'
p512
aa(lp513
I1
aI0
aI0
aI1
aI0
aI0
aI0
aI1
aI1
aI0
aI0
aI1
aI1
aI0
aI1
aI0
aI4476470
aS'_4445482160'
p514
aa(lp515
I1
aI1
aI0
aI1
aI0
aI0
aI0
aI0
aI1
aI0
aI0
aI1
aI1
aI0
aI1
aI0
aI4280270
aS'_4445482160'
p516
aa(lp517
I1
aI1
aI0
aI0
aI1
aI1
aI1
aI0
aI1
aI0
aI0
aI1
aI1
aI0
aI1
aI0
aI4633100
aS'_4445482160'
p518
aa(lp519
I1
aI1
aI0
aI0
aI0
aI0
aI0
aI0
aI1
aI0
aI0
aI1
aI1
aI0
aI1
aI0
aI4264170
aS'_4445482160'
p520
aa(lp521
I1
aI0
aI0
aI1
aI1
aI0
aI1
aI1
aI1
aI0
aI0
aI1
aI1
aI0
aI1
aI0
aI4490300
aS'_4445482160'
p522
aa(lp523
I1
aI1
aI0
aI0
aI0
aI0
aI0
aI0
aI1
aI1
aI0
aI0
aI1
aI1
aI0
aI0
aI2545870
aS'_4445482160'
p524
aa(lp525
I1
aI1
aI0
aI1
aI1
aI0
aI1
aI1
aI1
aI0
aI0
aI1
aI1
aI1
aI0
aI0
aI2639200
aS'_4445482160'
p526
aa(lp527
I1
aI1
aI0
aI1
aI0
aI0
aI0
aI1
aI1
aI0
aI0
aI1
aI1
aI1
aI0
aI0
aI2574500
aS'_4445482160'
p528
aa(lp529
I1
aI1
aI0
aI0
aI0
aI0
aI0
aI1
aI1
aI0
aI0
aI1
aI1
aI0
aI0
aI1
aI5882000
aS'_4445482160'
p530
aa(lp531
I1
aI0
aI0
aI0
aI1
aI0
aI0
aI1
aI1
aI0
aI0
aI1
aI1
aI0
aI1
aI0
aI5165870
aS'_4445482160'
p532
aa(lp533
I1
aI0
aI0
aI0
aI0
aI0
aI0
aI1
aI1
aI0
aI0
aI1
aI1
aI1
aI0
aI0
aI2720030
aS'_4445482160'
p534
aa(lp535
I1
aI1
aI0
aI0
aI1
aI0
aI0
aI1
aI1
aI0
aI0
aI1
aI1
aI1
aI0
aI0
aI2642870
aS'_4445482160'
p536
aa(lp537
I1
aI0
aI0
aI0
aI1
aI0
aI0
aI1
aI1
aI0
aI0
aI1
aI1
aI0
aI0
aI1
aI7418869
aS'_4445482160'
p538
aa(lp539
I1
aI0
aI0
aI0
aI1
aI0
aI0
aI0
aI1
aI0
aI0
aI1
aI1
aI0
aI0
aI1
aI7424630
aS'_4445482160'
p540
aaaa(lp541
S'_4525745720'
p542
a(lp543
(lp544
I1
aI1
aI1
aI0
aI0
aI1
aI0
aI0
aI1
aI0
aI0
aI1
aI1
aI0
aI1
aI0
aI4855900
ag542
aa(lp545
I1
aI1
aI1
aI1
aI0
aI0
aI1
aI1
aI1
aI0
aI0
aI1
aI1
aI0
aI1
aI0
aI3644970
aS'_4525745720'
p546
aa(lp547
I1
aI1
aI1
aI1
aI1
aI1
aI1
aI1
aI1
aI0
aI0
aI1
aI1
aI0
aI0
aI1
aI6440330
aS'_4525745720'
p548
aa(lp549
I1
aI1
aI1
aI0
aI1
aI1
aI0
aI1
aI1
aI0
aI0
aI1
aI1
aI0
aI0
aI1
aI7734630
aS'_4525745720'
p550
aa(lp551
I1
aI0
aI1
aI0
aI0
aI1
aI0
aI1
aI1
aI0
aI0
aI1
aI1
aI0
aI0
aI1
aI7127270
aS'_4525745720'
p552
aa(lp553
I1
aI1
aI0
aI1
aI0
aI1
aI1
aI1
aI1
aI0
aI0
aI1
aI1
aI0
aI1
aI0
aI4139130
aS'_4525745720'
p554
aa(lp555
I1
aI1
aI1
aI0
aI0
aI1
aI1
aI0
aI1
aI0
aI0
aI1
aI1
aI0
aI0
aI1
aI5566300
aS'_4525745720'
p556
aa(lp557
I1
aI1
aI1
aI0
aI0
aI0
aI1
aI1
aI1
aI0
aI0
aI1
aI1
aI0
aI0
aI1
aI4935430
aS'_4525745720'
p558
aa(lp559
I1
aI1
aI1
aI1
aI0
aI1
aI0
aI1
aI1
aI0
aI1
aI0
aI1
aI0
aI0
aI1
aI6832569
aS'_4525745720'
p560
aa(lp561
I1
aI0
aI1
aI0
aI0
aI1
aI1
aI1
aI1
aI0
aI0
aI1
aI1
aI0
aI0
aI1
aI5762470
aS'_4525745720'
p562
aa(lp563
I1
aI1
aI1
aI1
aI1
aI1
aI0
aI1
aI1
aI0
aI1
aI0
aI1
aI0
aI0
aI1
aI7755400
aS'_4525745720'
p564
aa(lp565
I1
aI1
aI1
aI1
aI0
aI1
aI1
aI1
aI1
aI0
aI0
aI1
aI1
aI0
aI1
aI0
aI4077630
aS'_4525745720'
p566
aa(lp567
I1
aI0
aI1
aI1
aI0
aI1
aI0
aI1
aI1
aI0
aI1
aI0
aI1
aI0
aI0
aI1
aI7159070
aS'_4525745720'
p568
aa(lp569
I1
aI1
aI1
aI1
aI1
aI1
aI1
aI1
aI1
aI1
aI0
aI0
aI1
aI0
aI0
aI1
aI6439600
aS'_4525745720'
p570
aa(lp571
I1
aI0
aI0
aI0
aI0
aI1
aI1
aI1
aI1
aI0
aI0
aI1
aI1
aI0
aI1
aI0
aI4332130
aS'_4525745720'
p572
aa(lp573
I1
aI1
aI1
aI0
aI0
aI1
aI0
aI1
aI1
aI0
aI0
aI1
aI1
aI1
aI0
aI0
aI2759600
aS'_4525745720'
p574
aa(lp575
I1
aI1
aI1
aI0
aI0
aI1
aI1
aI1
aI1
aI1
aI0
aI0
aI1
aI0
aI0
aI1
aI5563270
aS'_4525745720'
p576
aa(lp577
I1
aI1
aI1
aI0
aI0
aI1
aI1
aI1
aI1
aI0
aI0
aI1
aI1
aI0
aI1
aI0
aI4086070
aS'_4525745720'
p578
aa(lp579
I1
aI1
aI1
aI0
aI0
aI1
aI1
aI1
aI1
aI0
aI0
aI1
aI1
aI1
aI0
aI0
aI2760730
aS'_4525745720'
p580
aa(lp581
I1
aI1
aI1
aI1
aI0
aI1
aI1
aI1
aI1
aI0
aI1
aI0
aI1
aI0
aI1
aI0
aI4076870
aS'_4525745720'
p582
aa(lp583
I1
aI1
aI1
aI1
aI0
aI0
aI1
aI1
aI1
aI0
aI1
aI0
aI1
aI1
aI0
aI0
aI2462370
aS'_4525745720'
p584
aa(lp585
I1
aI1
aI1
aI0
aI0
aI1
aI1
aI1
aI1
aI0
aI1
aI0
aI1
aI1
aI0
aI0
aI2760100
aS'_4525745720'
p586
aaaa(lp587
S'_4445480432'
p588
a(lp589
(lp590
I1
aI1
aI0
aI0
aI1
aI1
aI0
aI0
aI1
aI1
aI0
aI0
aI1
aI0
aI1
aI0
aI5435900
ag588
aa(lp591
I1
aI1
aI0
aI1
aI1
aI0
aI0
aI0
aI1
aI1
aI0
aI0
aI1
aI0
aI1
aI0
aI4933070
aS'_4445480432'
p592
aa(lp593
I1
aI1
aI1
aI1
aI1
aI0
aI0
aI1
aI1
aI1
aI0
aI0
aI1
aI0
aI1
aI0
aI4853500
aS'_4445480432'
p594
aa(lp595
I1
aI1
aI1
aI0
aI1
aI0
aI0
aI0
aI1
aI0
aI1
aI0
aI1
aI0
aI1
aI0
aI4866370
aS'_4445480432'
p596
aa(lp597
I1
aI1
aI1
aI0
aI0
aI1
aI0
aI0
aI1
aI0
aI1
aI0
aI1
aI0
aI1
aI0
aI4854770
aS'_4445480432'
p598
aa(lp599
I1
aI1
aI0
aI1
aI0
aI1
aI0
aI0
aI1
aI1
aI0
aI0
aI1
aI0
aI1
aI0
aI4942570
aS'_4445480432'
p600
aa(lp601
I1
aI0
aI1
aI1
aI1
aI0
aI0
aI0
aI1
aI1
aI0
aI0
aI1
aI0
aI1
aI0
aI5074030
aS'_4445480432'
p602
aa(lp603
I1
aI1
aI1
aI1
aI1
aI0
aI0
aI0
aI1
aI1
aI0
aI0
aI1
aI0
aI1
aI0
aI4855370
aS'_4445480432'
p604
aa(lp605
I1
aI1
aI1
aI0
aI0
aI0
aI0
aI0
aI1
aI0
aI1
aI0
aI1
aI0
aI1
aI0
aI4185630
aS'_4445480432'
p606
aa(lp607
I1
aI1
aI1
aI1
aI0
aI1
aI0
aI0
aI1
aI1
aI0
aI0
aI1
aI0
aI1
aI0
aI4870900
aS'_4445480432'
p608
aa(lp609
I1
aI1
aI1
aI1
aI1
aI0
aI1
aI0
aI1
aI1
aI0
aI0
aI1
aI0
aI1
aI0
aI4252470
aS'_4445480432'
p610
aa(lp611
I1
aI0
aI0
aI0
aI1
aI0
aI0
aI0
aI1
aI0
aI1
aI0
aI1
aI0
aI0
aI1
aI7415900
aS'_4445480432'
p612
aa(lp613
I1
aI1
aI0
aI1
aI0
aI0
aI0
aI0
aI1
aI1
aI0
aI0
aI1
aI0
aI1
aI0
aI4250630
aS'_4445480432'
p614
aa(lp615
I1
aI1
aI0
aI0
aI1
aI0
aI0
aI0
aI1
aI0
aI0
aI1
aI1
aI1
aI0
aI0
aI2642930
aS'_4445480432'
p616
aa(lp617
I1
aI1
aI1
aI0
aI1
aI0
aI0
aI0
aI1
aI0
aI1
aI0
aI1
aI0
aI0
aI1
aI7053970
aS'_4445480432'
p618
aa(lp619
I1
aI1
aI1
aI0
aI0
aI1
aI0
aI0
aI1
aI1
aI0
aI0
aI1
aI0
aI1
aI0
aI4856600
aS'_4445480432'
p620
aa(lp621
I1
aI1
aI1
aI0
aI1
aI0
aI0
aI0
aI1
aI1
aI0
aI0
aI1
aI0
aI1
aI0
aI4848530
aS'_4445480432'
p622
aa(lp623
I1
aI1
aI0
aI1
aI1
aI0
aI0
aI0
aI1
aI1
aI0
aI0
aI1
aI0
aI0
aI1
aI7136730
aS'_4445480432'
p624
aa(lp625
I1
aI1
aI0
aI0
aI1
aI0
aI0
aI0
aI1
aI0
aI0
aI1
aI1
aI0
aI0
aI1
aI7135770
aS'_4445480432'
p626
aa(lp627
I1
aI1
aI0
aI0
aI1
aI0
aI0
aI0
aI1
aI1
aI0
aI0
aI1
aI0
aI0
aI1
aI7112329
aS'_4445480432'
p628
aa(lp629
I1
aI1
aI0
aI0
aI0
aI1
aI0
aI0
aI1
aI1
aI0
aI0
aI1
aI0
aI0
aI1
aI6873900
aS'_4445480432'
p630
aa(lp631
I1
aI1
aI1
aI0
aI0
aI0
aI0
aI0
aI1
aI1
aI0
aI0
aI1
aI0
aI0
aI1
aI5791770
aS'_4445480432'
p632
aaaa(lp633
S'_4445479640'
p634
a(lp635
(lp636
I1
aI1
aI1
aI0
aI1
aI0
aI1
aI1
aI1
aI1
aI0
aI0
aI1
aI1
aI0
aI0
aI2496070
ag634
aa(lp637
I1
aI1
aI1
aI1
aI1
aI0
aI1
aI0
aI1
aI1
aI0
aI0
aI1
aI1
aI0
aI0
aI2494400
aS'_4445479640'
p638
aa(lp639
I1
aI0
aI0
aI0
aI1
aI0
aI1
aI1
aI1
aI1
aI0
aI0
aI1
aI1
aI0
aI0
aI2759570
aS'_4445479640'
p640
aa(lp641
I1
aI1
aI1
aI0
aI0
aI1
aI0
aI1
aI1
aI0
aI1
aI0
aI1
aI1
aI0
aI0
aI2759730
aS'_4445479640'
p642
aa(lp643
I1
aI1
aI1
aI0
aI1
aI1
aI1
aI1
aI1
aI0
aI1
aI0
aI1
aI1
aI0
aI0
aI2799030
aS'_4445479640'
p644
aa(lp645
I1
aI1
aI1
aI0
aI1
aI0
aI1
aI0
aI1
aI1
aI0
aI0
aI1
aI1
aI0
aI0
aI2497300
aS'_4445479640'
p646
aa(lp647
I1
aI1
aI1
aI0
aI0
aI0
aI1
aI1
aI1
aI0
aI1
aI0
aI1
aI1
aI0
aI0
aI2465800
aS'_4445479640'
p648
aa(lp649
I1
aI1
aI0
aI0
aI1
aI1
aI1
aI0
aI1
aI0
aI0
aI1
aI1
aI1
aI0
aI0
aI2914830
aS'_4445479640'
p650
aa(lp651
I1
aI0
aI1
aI0
aI0
aI0
aI1
aI1
aI1
aI0
aI1
aI0
aI1
aI1
aI0
aI0
aI2625299
aS'_4445479640'
p652
aa(lp653
I1
aI1
aI1
aI0
aI1
aI0
aI1
aI1
aI1
aI0
aI0
aI1
aI1
aI1
aI0
aI0
aI2530800
aS'_4445479640'
p654
aa(lp655
I1
aI1
aI0
aI0
aI0
aI0
aI1
aI1
aI1
aI0
aI1
aI0
aI1
aI1
aI0
aI0
aI2567200
aS'_4445479640'
p656
aa(lp657
I1
aI1
aI0
aI0
aI1
aI0
aI1
aI0
aI1
aI1
aI0
aI0
aI1
aI1
aI0
aI0
aI2612029
aS'_4445479640'
p658
aa(lp659
I1
aI0
aI1
aI0
aI1
aI0
aI0
aI1
aI1
aI1
aI0
aI0
aI1
aI1
aI0
aI0
aI2665270
aS'_4445479640'
p660
aa(lp661
I1
aI1
aI1
aI0
aI0
aI0
aI0
aI1
aI1
aI0
aI0
aI1
aI1
aI1
aI0
aI0
aI2475070
aS'_4445479640'
p662
aa(lp663
I1
aI1
aI0
aI0
aI1
aI0
aI1
aI1
aI1
aI0
aI0
aI1
aI1
aI1
aI0
aI0
aI2643300
aS'_4445479640'
p664
aa(lp665
I1
aI0
aI0
aI0
aI1
aI0
aI1
aI1
aI1
aI0
aI0
aI1
aI1
aI1
aI0
aI0
aI2793030
aS'_4445479640'
p666
aa(lp667
I1
aI1
aI0
aI0
aI1
aI0
aI1
aI1
aI1
aI0
aI1
aI0
aI1
aI1
aI0
aI0
aI2630730
aS'_4445479640'
p668
aa(lp669
I1
aI1
aI1
aI0
aI1
aI0
aI1
aI1
aI1
aI0
aI1
aI0
aI1
aI1
aI0
aI0
aI2518600
aS'_4445479640'
p670
aa(lp671
I1
aI1
aI1
aI0
aI1
aI0
aI1
aI0
aI1
aI0
aI1
aI0
aI1
aI1
aI0
aI0
aI2518230
aS'_4445479640'
p672
aa(lp673
I1
aI0
aI1
aI0
aI0
aI0
aI0
aI0
aI1
aI0
aI1
aI0
aI1
aI1
aI0
aI0
aI2625630
aS'_4445479640'
p674
aa(lp675
I1
aI1
aI0
aI0
aI1
aI0
aI1
aI0
aI1
aI0
aI1
aI0
aI1
aI1
aI0
aI0
aI2632070
aS'_4445479640'
p676
aa(lp677
I1
aI1
aI1
aI0
aI1
aI0
aI0
aI0
aI1
aI0
aI1
aI0
aI1
aI1
aI0
aI0
aI2518700
aS'_4445479640'
p678
aaaa(lp679
S'_4525745864'
p680
a(lp681
(lp682
I1
aI1
aI0
aI0
aI0
aI1
aI1
aI1
aI1
aI0
aI0
aI1
aI1
aI1
aI0
aI0
aI2870630
ag680
aa(lp683
I1
aI1
aI0
aI0
aI0
aI0
aI1
aI0
aI1
aI0
aI0
aI1
aI1
aI1
aI0
aI0
aI2581130
aS'_4525745864'
p684
aa(lp685
I1
aI1
aI0
aI1
aI0
aI1
aI1
aI0
aI1
aI0
aI0
aI1
aI1
aI0
aI1
aI0
aI4142430
aS'_4525745864'
p686
aa(lp687
I1
aI1
aI1
aI0
aI0
aI1
aI1
aI0
aI1
aI0
aI0
aI1
aI1
aI0
aI1
aI0
aI4086830
aS'_4525745864'
p688
aa(lp689
I1
aI1
aI1
aI0
aI0
aI0
aI1
aI0
aI1
aI0
aI0
aI1
aI1
aI1
aI0
aI0
aI2477170
aS'_4525745864'
p690
aa(lp691
I1
aI1
aI1
aI0
aI0
aI0
aI1
aI1
aI1
aI0
aI0
aI1
aI1
aI1
aI0
aI0
aI2476930
aS'_4525745864'
p692
aa(lp693
I1
aI1
aI1
aI1
aI0
aI1
aI1
aI1
aI1
aI0
aI0
aI1
aI1
aI1
aI0
aI0
aI2754600
aS'_4525745864'
p694
aa(lp695
I1
aI1
aI0
aI1
aI0
aI0
aI1
aI1
aI1
aI0
aI0
aI1
aI1
aI1
aI0
aI0
aI2575299
aS'_4525745864'
p696
aa(lp697
I1
aI0
aI1
aI0
aI0
aI1
aI1
aI1
aI1
aI0
aI0
aI1
aI1
aI1
aI0
aI0
aI2956830
aS'_4525745864'
p698
aa(lp699
I1
aI0
aI0
aI0
aI1
aI1
aI1
aI1
aI1
aI0
aI0
aI1
aI1
aI1
aI0
aI0
aI3106730
aS'_4525745864'
p700
aa(lp701
I1
aI0
aI0
aI0
aI0
aI0
aI1
aI1
aI1
aI0
aI0
aI1
aI1
aI1
aI0
aI0
aI2720530
aS'_4525745864'
p702
aa(lp703
I1
aI1
aI0
aI1
aI0
aI0
aI1
aI0
aI1
aI0
aI0
aI1
aI1
aI0
aI1
aI0
aI3696800
aS'_4525745864'
p704
aa(lp705
I1
aI1
aI1
aI0
aI1
aI1
aI1
aI0
aI1
aI0
aI0
aI1
aI1
aI0
aI1
aI0
aI4566170
aS'_4525745864'
p706
aa(lp707
I1
aI0
aI1
aI0
aI0
aI1
aI1
aI0
aI1
aI0
aI0
aI1
aI1
aI0
aI1
aI0
aI4283730
aS'_4525745864'
p708
aa(lp709
I1
aI1
aI1
aI0
aI0
aI0
aI1
aI0
aI1
aI0
aI0
aI1
aI1
aI0
aI1
aI0
aI3659030
aS'_4525745864'
p710
aa(lp711
I1
aI1
aI1
aI1
aI0
aI1
aI1
aI0
aI1
aI0
aI0
aI1
aI1
aI0
aI1
aI0
aI4079900
aS'_4525745864'
p712
aa(lp713
I1
aI1
aI1
aI0
aI0
aI0
aI0
aI0
aI1
aI0
aI0
aI1
aI1
aI1
aI0
aI0
aI2477300
aS'_4525745864'
p714
aa(lp715
I1
aI0
aI1
aI0
aI0
aI1
aI1
aI1
aI1
aI0
aI0
aI1
aI1
aI0
aI1
aI0
aI4280200
aS'_4525745864'
p716
aa(lp717
I1
aI1
aI1
aI0
aI1
aI0
aI1
aI0
aI1
aI0
aI0
aI1
aI1
aI1
aI0
aI0
aI2531270
aS'_4525745864'
p718
aa(lp719
I1
aI1
aI1
aI0
aI1
aI1
aI0
aI0
aI1
aI0
aI0
aI1
aI1
aI1
aI0
aI0
aI2798399
aS'_4525745864'
p720
aa(lp721
I1
aI1
aI1
aI1
aI0
aI0
aI1
aI0
aI1
aI0
aI0
aI1
aI1
aI1
aI0
aI0
aI2476670
aS'_4525745864'
p722
aa(lp723
I1
aI0
aI1
aI0
aI1
aI1
aI1
aI0
aI1
aI0
aI0
aI1
aI1
aI1
aI0
aI0
aI2998900
aS'_4525745864'
p724
aaaa(lp725
S'_4525747160'
p726
a(lp727
(lp728
I1
aI1
aI0
aI1
aI1
aI0
aI0
aI0
aI1
aI0
aI0
aI1
aI1
aI0
aI0
aI1
aI7157370
ag726
aa(lp729
I1
aI0
aI1
aI1
aI1
aI0
aI1
aI1
aI1
aI0
aI1
aI0
aI1
aI0
aI0
aI1
aI6272400
aS'_4525747160'
p730
aa(lp731
I1
aI0
aI1
aI0
aI1
aI1
aI0
aI0
aI1
aI0
aI1
aI0
aI1
aI1
aI0
aI0
aI2998130
aS'_4525747160'
p732
aa(lp733
I1
aI0
aI1
aI1
aI1
aI0
aI1
aI0
aI1
aI0
aI1
aI0
aI1
aI0
aI0
aI1
aI6275000
aS'_4525747160'
p734
aa(lp735
I1
aI0
aI0
aI1
aI1
aI0
aI0
aI0
aI1
aI0
aI1
aI0
aI1
aI0
aI0
aI1
aI7448930
aS'_4525747160'
p736
aa(lp737
I1
aI0
aI1
aI1
aI0
aI1
aI1
aI0
aI1
aI0
aI1
aI0
aI1
aI0
aI0
aI1
aI5757000
aS'_4525747160'
p738
aa(lp739
I1
aI0
aI0
aI1
aI1
aI1
aI1
aI0
aI1
aI0
aI1
aI0
aI1
aI0
aI0
aI1
aI6716970
aS'_4525747160'
p740
aa(lp741
I1
aI1
aI0
aI1
aI1
aI1
aI1
aI0
aI1
aI0
aI1
aI0
aI1
aI0
aI0
aI1
aI6514900
aS'_4525747160'
p742
aa(lp743
I1
aI1
aI1
aI1
aI1
aI0
aI1
aI0
aI1
aI0
aI1
aI0
aI1
aI0
aI0
aI1
aI6092000
aS'_4525747160'
p744
aa(lp745
I1
aI0
aI1
aI1
aI1
aI0
aI0
aI0
aI1
aI0
aI1
aI0
aI1
aI1
aI0
aI0
aI2683970
aS'_4525747160'
p746
aa(lp747
I1
aI0
aI0
aI0
aI1
aI0
aI1
aI0
aI1
aI0
aI1
aI0
aI1
aI0
aI0
aI1
aI6321269
aS'_4525747160'
p748
aa(lp749
I1
aI0
aI0
aI1
aI1
aI0
aI1
aI0
aI1
aI0
aI1
aI0
aI1
aI0
aI0
aI1
aI6312830
aS'_4525747160'
p750
aa(lp751
I1
aI0
aI0
aI1
aI1
aI1
aI0
aI0
aI1
aI0
aI1
aI0
aI1
aI1
aI0
aI0
aI3102870
aS'_4525747160'
p752
aa(lp753
I1
aI0
aI0
aI1
aI0
aI0
aI0
aI0
aI1
aI0
aI1
aI0
aI1
aI0
aI0
aI1
aI6166200
aS'_4525747160'
p754
aa(lp755
I1
aI0
aI0
aI1
aI1
aI1
aI1
aI0
aI1
aI0
aI1
aI0
aI1
aI0
aI1
aI0
aI4822570
aS'_4525747160'
p756
aa(lp757
I1
aI0
aI1
aI0
aI1
aI1
aI1
aI1
aI1
aI0
aI1
aI0
aI1
aI1
aI0
aI0
aI2998399
aS'_4525747160'
p758
aa(lp759
I1
aI0
aI0
aI1
aI0
aI0
aI1
aI0
aI1
aI0
aI1
aI0
aI1
aI0
aI0
aI1
aI5101830
aS'_4525747160'
p760
aa(lp761
I1
aI1
aI0
aI1
aI0
aI0
aI0
aI0
aI1
aI0
aI1
aI0
aI1
aI0
aI0
aI1
aI5901799
aS'_4525747160'
p762
aa(lp763
I1
aI0
aI0
aI1
aI1
aI0
aI1
aI0
aI1
aI0
aI1
aI0
aI1
aI1
aI0
aI0
aI2778530
aS'_4525747160'
p764
aa(lp765
I1
aI0
aI0
aI1
aI0
aI0
aI0
aI0
aI1
aI0
aI1
aI0
aI1
aI1
aI0
aI0
aI2700700
aS'_4525747160'
p766
aa(lp767
I1
aI0
aI0
aI1
aI0
aI0
aI1
aI1
aI1
aI0
aI1
aI0
aI1
aI1
aI0
aI0
aI2700130
aS'_4525747160'
p768
aa(lp769
I1
aI1
aI0
aI1
aI0
aI0
aI1
aI0
aI1
aI0
aI1
aI0
aI1
aI1
aI0
aI0
aI2563399
aS'_4525747160'
p770
aaaa(lp771
S'_4525745648'
p772
a(lp773
(lp774
I1
aI1
aI0
aI1
aI0
aI0
aI0
aI0
aI1
aI0
aI0
aI1
aI1
aI0
aI0
aI1
aI5905500
ag772
aa(lp775
I1
aI1
aI0
aI1
aI0
aI0
aI0
aI1
aI1
aI0
aI0
aI1
aI1
aI0
aI0
aI1
aI5908370
aS'_4525745648'
p776
aa(lp777
I1
aI0
aI0
aI1
aI0
aI0
aI0
aI1
aI1
aI0
aI0
aI1
aI1
aI0
aI0
aI1
aI6169600
aS'_4525745648'
p778
aa(lp779
I1
aI0
aI1
aI1
aI0
aI0
aI0
aI1
aI1
aI0
aI0
aI1
aI1
aI0
aI0
aI1
aI6077000
aS'_4525745648'
p780
aa(lp781
I1
aI1
aI1
aI1
aI0
aI0
aI1
aI0
aI1
aI0
aI0
aI1
aI1
aI0
aI0
aI1
aI4930070
aS'_4525745648'
p782
aa(lp783
I1
aI1
aI0
aI1
aI0
aI1
aI1
aI0
aI1
aI0
aI0
aI1
aI1
aI0
aI0
aI1
aI5619330
aS'_4525745648'
p784
aa(lp785
I1
aI1
aI0
aI1
aI0
aI1
aI0
aI1
aI1
aI0
aI0
aI1
aI1
aI0
aI0
aI1
aI6903900
aS'_4525745648'
p786
aa(lp787
I1
aI1
aI1
aI1
aI0
aI1
aI0
aI0
aI1
aI0
aI0
aI1
aI1
aI0
aI0
aI1
aI6835200
aS'_4525745648'
p788
aa(lp789
I1
aI1
aI1
aI0
aI0
aI0
aI0
aI0
aI1
aI0
aI0
aI1
aI1
aI0
aI0
aI1
aI5818130
aS'_4525745648'
p790
aa(lp791
I1
aI1
aI1
aI1
aI0
aI0
aI0
aI1
aI1
aI0
aI0
aI1
aI1
aI0
aI0
aI1
aI5838470
aS'_4525745648'
p792
aa(lp793
I1
aI1
aI0
aI1
aI0
aI0
aI1
aI1
aI1
aI0
aI0
aI1
aI1
aI0
aI0
aI1
aI4973700
aS'_4525745648'
p794
aa(lp795
I1
aI0
aI1
aI1
aI1
aI1
aI0
aI1
aI1
aI0
aI0
aI1
aI1
aI0
aI0
aI1
aI8095300
aS'_4525745648'
p796
aa(lp797
I1
aI1
aI1
aI1
aI1
aI1
aI0
aI1
aI1
aI0
aI0
aI1
aI1
aI0
aI0
aI1
aI7756799
aS'_4525745648'
p798
aa(lp799
I1
aI0
aI1
aI0
aI0
aI1
aI0
aI0
aI1
aI0
aI0
aI1
aI1
aI0
aI0
aI1
aI7128700
aS'_4525745648'
p800
aa(lp801
I1
aI0
aI1
aI1
aI0
aI1
aI0
aI1
aI1
aI0
aI0
aI1
aI1
aI0
aI0
aI1
aI7157470
aS'_4525745648'
p802
aa(lp803
I1
aI1
aI1
aI1
aI0
aI1
aI0
aI1
aI1
aI0
aI0
aI1
aI1
aI0
aI0
aI1
aI6835430
aS'_4525745648'
p804
aa(lp805
I1
aI1
aI1
aI0
aI0
aI1
aI0
aI0
aI1
aI0
aI0
aI1
aI1
aI0
aI0
aI1
aI6805630
aS'_4525745648'
p806
aa(lp807
I1
aI1
aI0
aI1
aI0
aI1
aI1
aI1
aI1
aI0
aI0
aI1
aI1
aI0
aI0
aI1
aI5613330
aS'_4525745648'
p808
aa(lp809
I1
aI1
aI1
aI1
aI0
aI1
aI1
aI0
aI1
aI0
aI0
aI1
aI1
aI0
aI0
aI1
aI5556330
aS'_4525745648'
p810
aa(lp811
I1
aI1
aI0
aI0
aI0
aI1
aI0
aI1
aI1
aI0
aI0
aI1
aI1
aI0
aI0
aI1
aI6870330
aS'_4525745648'
p812
aa(lp813
I1
aI1
aI1
aI0
aI1
aI1
aI1
aI0
aI1
aI0
aI0
aI1
aI1
aI0
aI0
aI1
aI6455100
aS'_4525745648'
p814
aaaa(lp815
S'_4445481584'
p816
a(lp817
(lp818
I1
aI1
aI1
aI1
aI0
aI1
aI0
aI1
aI1
aI0
aI1
aI0
aI1
aI0
aI1
aI0
aI4868270
ag816
aa(lp819
I1
aI1
aI0
aI1
aI0
aI1
aI0
aI1
aI1
aI0
aI1
aI0
aI1
aI0
aI1
aI0
aI4937100
aS'_4445481584'
p820
aa(lp821
I1
aI1
aI1
aI1
aI0
aI0
aI0
aI1
aI1
aI0
aI1
aI0
aI1
aI0
aI1
aI0
aI4198200
aS'_4445481584'
p822
aa(lp823
I1
aI1
aI0
aI1
aI1
aI0
aI0
aI1
aI1
aI0
aI1
aI0
aI1
aI0
aI1
aI0
aI4942670
aS'_4445481584'
p824
aa(lp825
I1
aI1
aI0
aI1
aI1
aI1
aI1
aI1
aI1
aI0
aI1
aI0
aI1
aI0
aI1
aI0
aI4624370
aS'_4445481584'
p826
aa(lp827
I1
aI1
aI1
aI1
aI1
aI0
aI1
aI1
aI1
aI0
aI1
aI0
aI1
aI0
aI1
aI0
aI4270600
aS'_4445481584'
p828
aa(lp829
I1
aI1
aI0
aI1
aI0
aI1
aI0
aI0
aI1
aI0
aI1
aI0
aI1
aI0
aI1
aI0
aI4942330
aS'_4445481584'
p830
aa(lp831
I1
aI1
aI1
aI1
aI0
aI0
aI0
aI0
aI1
aI0
aI1
aI0
aI1
aI0
aI1
aI0
aI4200100
aS'_4445481584'
p832
aa(lp833
I1
aI1
aI0
aI1
aI0
aI0
aI0
aI1
aI1
aI0
aI1
aI0
aI1
aI0
aI1
aI0
aI4267500
aS'_4445481584'
p834
aa(lp835
I1
aI1
aI1
aI1
aI1
aI0
aI0
aI1
aI1
aI0
aI0
aI1
aI1
aI1
aI0
aI0
aI2527370
aS'_4445481584'
p836
aa(lp837
I1
aI1
aI1
aI1
aI1
aI0
aI0
aI0
aI1
aI0
aI1
aI0
aI1
aI1
aI0
aI0
aI2515730
aS'_4445481584'
p838
aa(lp839
I1
aI1
aI0
aI1
aI1
aI0
aI0
aI1
aI1
aI0
aI1
aI0
aI1
aI1
aI0
aI0
aI2626100
aS'_4445481584'
p840
aa(lp841
I1
aI1
aI1
aI1
aI1
aI0
aI1
aI0
aI1
aI0
aI1
aI0
aI1
aI0
aI1
aI0
aI4272430
aS'_4445481584'
p842
aa(lp843
I1
aI1
aI0
aI1
aI0
aI0
aI0
aI1
aI1
aI0
aI1
aI0
aI1
aI1
aI0
aI0
aI2562730
aS'_4445481584'
p844
aa(lp845
I1
aI0
aI0
aI1
aI0
aI0
aI0
aI0
aI1
aI0
aI1
aI0
aI1
aI0
aI1
aI0
aI4466330
aS'_4445481584'
p846
aa(lp847
I1
aI1
aI0
aI1
aI1
aI0
aI1
aI1
aI1
aI0
aI1
aI0
aI1
aI0
aI1
aI0
aI4327700
aS'_4445481584'
p848
aa(lp849
I1
aI1
aI1
aI1
aI0
aI0
aI0
aI1
aI1
aI0
aI1
aI0
aI1
aI0
aI0
aI1
aI5834270
aS'_4445481584'
p850
aa(lp851
I1
aI1
aI0
aI1
aI1
aI0
aI0
aI0
aI1
aI0
aI1
aI0
aI1
aI1
aI0
aI0
aI2627930
aS'_4445481584'
p852
aa(lp853
I1
aI0
aI0
aI1
aI1
aI0
aI0
aI1
aI1
aI0
aI1
aI0
aI1
aI0
aI0
aI1
aI7442600
aS'_4445481584'
p854
aa(lp855
I1
aI0
aI0
aI1
aI1
aI0
aI1
aI0
aI1
aI0
aI1
aI0
aI1
aI0
aI1
aI0
aI4485300
aS'_4445481584'
p856
aa(lp857
I1
aI0
aI0
aI1
aI1
aI0
aI0
aI0
aI1
aI0
aI1
aI0
aI1
aI1
aI0
aI0
aI2778130
aS'_4445481584'
p858
aaaa(lp859
S'_4445482592'
p860
a(lp861
(lp862
I1
aI1
aI1
aI1
aI1
aI0
aI0
aI1
aI1
aI0
aI1
aI0
aI1
aI1
aI0
aI0
aI2515300
ag860
aa(lp863
I1
aI1
aI0
aI1
aI1
aI1
aI0
aI1
aI1
aI0
aI1
aI0
aI1
aI1
aI0
aI0
aI2912000
aS'_4445482592'
p864
aa(lp865
I1
aI1
aI0
aI0
aI1
aI1
aI1
aI1
aI1
aI0
aI1
aI0
aI1
aI1
aI0
aI0
aI2916030
aS'_4445482592'
p866
aa(lp867
I1
aI1
aI0
aI0
aI1
aI0
aI0
aI1
aI1
aI0
aI1
aI0
aI1
aI1
aI0
aI0
aI2632530
aS'_4445482592'
p868
aa(lp869
I1
aI0
aI0
aI0
aI1
aI1
aI0
aI1
aI1
aI0
aI1
aI0
aI1
aI0
aI0
aI1
aI8173400
aS'_4445482592'
p870
aa(lp871
I1
aI0
aI0
aI1
aI1
aI0
aI0
aI1
aI1
aI0
aI1
aI0
aI1
aI1
aI0
aI0
aI2775330
aS'_4445482592'
p872
aa(lp873
I1
aI1
aI1
aI1
aI1
aI1
aI1
aI1
aI1
aI0
aI1
aI0
aI1
aI0
aI1
aI0
aI4554000
aS'_4445482592'
p874
aa(lp875
I1
aI1
aI0
aI1
aI0
aI1
aI1
aI1
aI1
aI0
aI1
aI0
aI1
aI1
aI0
aI0
aI2863370
aS'_4445482592'
p876
aa(lp877
I1
aI0
aI0
aI1
aI1
aI0
aI1
aI1
aI1
aI0
aI1
aI0
aI1
aI1
aI0
aI0
aI2775630
aS'_4445482592'
p878
aa(lp879
I1
aI0
aI0
aI1
aI1
aI1
aI0
aI1
aI1
aI1
aI0
aI0
aI1
aI1
aI0
aI0
aI3102170
aS'_4445482592'
p880
aa(lp881
I1
aI0
aI0
aI0
aI1
aI1
aI1
aI1
aI1
aI1
aI0
aI0
aI1
aI1
aI0
aI0
aI3107930
aS'_4445482592'
p882
aa(lp883
I1
aI1
aI0
aI0
aI1
aI1
aI1
aI1
aI1
aI0
aI1
aI0
aI1
aI0
aI0
aI1
aI6524330
aS'_4445482592'
p884
aa(lp885
I1
aI0
aI0
aI1
aI1
aI1
aI1
aI1
aI1
aI1
aI0
aI0
aI1
aI1
aI0
aI0
aI3102900
aS'_4445482592'
p886
aa(lp887
I1
aI0
aI0
aI1
aI0
aI0
aI0
aI1
aI1
aI1
aI0
aI0
aI1
aI1
aI0
aI0
aI2678530
aS'_4445482592'
p888
aa(lp889
I1
aI1
aI0
aI1
aI1
aI1
aI0
aI0
aI1
aI1
aI0
aI0
aI1
aI1
aI0
aI0
aI2910100
aS'_4445482592'
p890
aa(lp891
I1
aI1
aI1
aI0
aI1
aI0
aI1
aI1
aI1
aI0
aI1
aI0
aI1
aI0
aI0
aI1
aI6106870
aS'_4445482592'
p892
aa(lp893
I1
aI1
aI1
aI1
aI0
aI1
aI0
aI1
aI1
aI1
aI0
aI0
aI1
aI0
aI1
aI0
aI4868170
aS'_4445482592'
p894
aa(lp895
I1
aI1
aI1
aI1
aI1
aI0
aI1
aI1
aI1
aI0
aI1
aI0
aI1
aI0
aI0
aI1
aI6086799
aS'_4445482592'
p896
aa(lp897
I1
aI1
aI0
aI0
aI1
aI0
aI1
aI1
aI1
aI0
aI1
aI0
aI1
aI0
aI0
aI1
aI6166100
aS'_4445482592'
p898
aa(lp899
I1
aI1
aI0
aI0
aI0
aI1
aI1
aI1
aI1
aI1
aI0
aI0
aI1
aI0
aI1
aI0
aI4147370
aS'_4445482592'
p900
aa(lp901
I1
aI1
aI0
aI0
aI1
aI0
aI1
aI1
aI1
aI0
aI0
aI1
aI1
aI0
aI0
aI1
aI6169700
aS'_4445482592'
p902
aa(lp903
I1
aI1
aI0
aI1
aI1
aI0
aI1
aI1
aI1
aI1
aI0
aI0
aI1
aI0
aI0
aI1
aI6133970
aS'_4445482592'
p904
aaaa(lp905
S'_4445478992'
p906
a(lp907
(lp908
I1
aI1
aI1
aI1
aI0
aI1
aI1
aI1
aI1
aI1
aI0
aI0
aI1
aI0
aI1
aI0
aI4077570
ag906
aa(lp909
I1
aI1
aI0
aI1
aI0
aI1
aI1
aI1
aI1
aI1
aI0
aI0
aI1
aI1
aI0
aI0
aI2864400
aS'_4445478992'
p910
aa(lp911
I1
aI1
aI1
aI1
aI1
aI1
aI1
aI0
aI1
aI1
aI0
aI0
aI1
aI0
aI1
aI0
aI4556400
aS'_4445478992'
p912
aa(lp913
I1
aI1
aI0
aI0
aI1
aI1
aI1
aI1
aI1
aI1
aI0
aI0
aI1
aI0
aI0
aI1
aI6525500
aS'_4445478992'
p914
aa(lp915
I1
aI1
aI0
aI1
aI1
aI1
aI1
aI1
aI1
aI1
aI0
aI0
aI1
aI1
aI0
aI0
aI2909169
aS'_4445478992'
p916
aa(lp917
I1
aI1
aI0
aI0
aI0
aI1
aI1
aI1
aI1
aI1
aI0
aI0
aI1
aI1
aI0
aI0
aI2870870
aS'_4445478992'
p918
aa(lp919
I1
aI1
aI1
aI1
aI1
aI1
aI1
aI1
aI1
aI1
aI0
aI0
aI1
aI1
aI0
aI0
aI2792670
aS'_4445478992'
p920
aa(lp921
I1
aI1
aI1
aI1
aI0
aI1
aI0
aI1
aI1
aI1
aI0
aI0
aI1
aI1
aI0
aI0
aI2754330
aS'_4445478992'
p922
aa(lp923
I1
aI1
aI1
aI1
aI0
aI0
aI1
aI1
aI1
aI1
aI0
aI0
aI1
aI1
aI0
aI0
aI2442800
aS'_4445478992'
p924
aa(lp925
I1
aI1
aI0
aI0
aI0
aI1
aI1
aI0
aI1
aI1
aI0
aI0
aI1
aI1
aI0
aI0
aI2870870
aS'_4445478992'
p926
aa(lp927
I1
aI0
aI1
aI0
aI0
aI1
aI0
aI1
aI1
aI1
aI0
aI0
aI1
aI1
aI0
aI0
aI2955899
aS'_4445478992'
p928
aa(lp929
I1
aI0
aI1
aI0
aI1
aI1
aI1
aI1
aI1
aI1
aI0
aI0
aI1
aI1
aI0
aI0
aI2998430
aS'_4445478992'
p930
aa(lp931
I1
aI1
aI0
aI1
aI1
aI1
aI1
aI0
aI1
aI1
aI0
aI0
aI1
aI1
aI0
aI0
aI2910430
aS'_4445478992'
p932
aa(lp933
I1
aI0
aI1
aI1
aI1
aI0
aI1
aI1
aI1
aI1
aI0
aI0
aI1
aI1
aI0
aI0
aI2662730
aS'_4445478992'
p934
aa(lp935
I1
aI1
aI0
aI0
aI1
aI1
aI1
aI1
aI1
aI1
aI0
aI0
aI1
aI1
aI0
aI0
aI2916100
aS'_4445478992'
p936
aa(lp937
I1
aI1
aI1
aI1
aI1
aI1
aI0
aI1
aI1
aI1
aI0
aI0
aI1
aI1
aI0
aI0
aI2791500
aS'_4445478992'
p938
aa(lp939
I1
aI1
aI1
aI0
aI0
aI1
aI1
aI0
aI1
aI1
aI0
aI0
aI1
aI1
aI0
aI0
aI2759930
aS'_4445478992'
p940
aa(lp941
I1
aI1
aI1
aI0
aI0
aI0
aI1
aI1
aI1
aI1
aI0
aI0
aI1
aI1
aI0
aI0
aI2443330
aS'_4445478992'
p942
aa(lp943
I1
aI1
aI1
aI0
aI1
aI1
aI1
aI1
aI1
aI1
aI0
aI0
aI1
aI1
aI0
aI0
aI2798100
aS'_4445478992'
p944
aa(lp945
I1
aI1
aI1
aI0
aI1
aI1
aI0
aI1
aI1
aI1
aI0
aI0
aI1
aI1
aI0
aI0
aI2797770
aS'_4445478992'
p946
aa(lp947
I1
aI1
aI0
aI0
aI1
aI0
aI1
aI1
aI1
aI1
aI0
aI0
aI1
aI1
aI0
aI0
aI2612070
aS'_4445478992'
p948
aaaa(lp949
S'_4445482880'
p950
a(lp951
(lp952
I1
aI1
aI0
aI1
aI1
aI0
aI0
aI1
aI1
aI0
aI1
aI0
aI1
aI0
aI0
aI1
aI7146670
ag950
aa(lp953
I1
aI1
aI0
aI1
aI0
aI0
aI1
aI1
aI1
aI0
aI1
aI0
aI1
aI1
aI0
aI0
aI2563200
aS'_4445482880'
p954
aa(lp955
I1
aI1
aI0
aI0
aI0
aI0
aI0
aI1
aI1
aI0
aI1
aI0
aI1
aI1
aI0
aI0
aI2566669
aS'_4445482880'
p956
aa(lp957
I1
aI1
aI0
aI1
aI0
aI0
aI0
aI0
aI1
aI0
aI1
aI0
aI1
aI1
aI0
aI0
aI2563330
aS'_4445482880'
p958
aa(lp959
I1
aI1
aI0
aI0
aI0
aI1
aI0
aI1
aI1
aI0
aI1
aI0
aI1
aI0
aI0
aI1
aI6871470
aS'_4445482880'
p960
aa(lp961
I1
aI1
aI0
aI0
aI0
aI0
aI0
aI1
aI1
aI0
aI1
aI0
aI1
aI0
aI0
aI1
aI5872400
aS'_4445482880'
p962
aa(lp963
I1
aI1
aI0
aI0
aI1
aI0
aI0
aI1
aI1
aI0
aI1
aI0
aI1
aI0
aI0
aI1
aI7126670
aS'_4445482880'
p964
aa(lp965
I1
aI1
aI1
aI1
aI0
aI0
aI0
aI1
aI1
aI1
aI0
aI0
aI1
aI0
aI0
aI1
aI5812430
aS'_4445482880'
p966
aa(lp967
I1
aI1
aI0
aI1
aI1
aI0
aI1
aI1
aI1
aI0
aI1
aI0
aI1
aI0
aI0
aI1
aI6150599
aS'_4445482880'
p968
aa(lp969
I1
aI1
aI0
aI1
aI0
aI0
aI0
aI1
aI1
aI1
aI0
aI0
aI1
aI1
aI0
aI0
aI2540330
aS'_4445482880'
p970
aa(lp971
I1
aI1
aI0
aI0
aI1
aI0
aI1
aI0
aI1
aI0
aI1
aI0
aI1
aI0
aI1
aI0
aI4338600
aS'_4445482880'
p972
aa(lp973
I1
aI1
aI0
aI1
aI0
aI1
aI0
aI0
aI1
aI1
aI0
aI0
aI1
aI1
aI0
aI0
aI2862870
aS'_4445482880'
p974
aa(lp975
I1
aI1
aI0
aI0
aI0
aI0
aI0
aI0
aI1
aI0
aI1
aI0
aI1
aI1
aI0
aI0
aI2567269
aS'_4445482880'
p976
aa(lp977
I1
aI1
aI0
aI0
aI1
aI0
aI0
aI0
aI1
aI0
aI1
aI0
aI1
aI1
aI0
aI0
aI2634370
aS'_4445482880'
p978
aa(lp979
I1
aI1
aI0
aI1
aI0
aI1
aI0
aI0
aI1
aI1
aI0
aI0
aI1
aI0
aI0
aI1
aI6905900
aS'_4445482880'
p980
aa(lp981
I1
aI1
aI0
aI1
aI0
aI0
aI0
aI1
aI1
aI1
aI0
aI0
aI1
aI0
aI0
aI1
aI5886700
aS'_4445482880'
p982
aa(lp983
I1
aI1
aI0
aI1
aI1
aI0
aI0
aI1
aI1
aI1
aI0
aI0
aI1
aI0
aI0
aI1
aI7133900
aS'_4445482880'
p984
aa(lp985
I1
aI1
aI0
aI1
aI1
aI0
aI0
aI0
aI1
aI1
aI0
aI0
aI1
aI1
aI0
aI0
aI2604970
aS'_4445482880'
p986
aa(lp987
I1
aI1
aI0
aI0
aI1
aI0
aI1
aI0
aI1
aI0
aI1
aI0
aI1
aI0
aI0
aI1
aI6166870
aS'_4445482880'
p988
aa(lp989
I1
aI1
aI0
aI1
aI0
aI0
aI0
aI0
aI1
aI1
aI0
aI0
aI1
aI0
aI0
aI1
aI5886730
aS'_4445482880'
p990
aa(lp991
I1
aI1
aI0
aI1
aI0
aI0
aI1
aI0
aI1
aI1
aI0
aI0
aI1
aI1
aI0
aI0
aI2541100
aS'_4445482880'
p992
aa(lp993
I1
aI1
aI0
aI0
aI0
aI0
aI1
aI0
aI1
aI1
aI0
aI0
aI1
aI0
aI0
aI1
aI4968930
aS'_4445482880'
p994
aaaa(lp995
S'_4525748096'
p996
a(lp997
(lp998
I1
aI1
aI0
aI0
aI0
aI1
aI0
aI0
aI1
aI0
aI1
aI0
aI1
aI0
aI0
aI1
aI6876000
ag996
aa(lp999
I1
aI1
aI0
aI0
aI1
aI1
aI1
aI0
aI1
aI0
aI1
aI0
aI1
aI0
aI0
aI1
aI6526530
aS'_4525748096'
p1000
aa(lp1001
I1
aI1
aI0
aI1
aI0
aI1
aI1
aI0
aI1
aI1
aI0
aI0
aI1
aI0
aI0
aI1
aI5617900
aS'_4525748096'
p1002
aa(lp1003
I1
aI0
aI1
aI1
aI0
aI1
aI1
aI1
aI1
aI0
aI1
aI0
aI1
aI0
aI0
aI1
aI5753970
aS'_4525748096'
p1004
aa(lp1005
I1
aI0
aI0
aI1
aI0
aI0
aI0
aI0
aI1
aI0
aI0
aI1
aI1
aI0
aI0
aI1
aI6174200
aS'_4525748096'
p1006
aa(lp1007
I1
aI1
aI1
aI0
aI0
aI1
aI1
aI1
aI1
aI0
aI1
aI0
aI1
aI0
aI0
aI1
aI5563070
aS'_4525748096'
p1008
aa(lp1009
I1
aI1
aI1
aI1
aI1
aI1
aI1
aI1
aI1
aI0
aI1
aI0
aI1
aI0
aI0
aI1
aI6439829
aS'_4525748096'
p1010
aa(lp1011
I1
aI1
aI0
aI1
aI1
aI1
aI1
aI0
aI1
aI0
aI0
aI1
aI1
aI0
aI0
aI1
aI6516400
aS'_4525748096'
p1012
aa(lp1013
I1
aI0
aI0
aI1
aI1
aI1
aI1
aI1
aI1
aI0
aI1
aI0
aI1
aI0
aI0
aI1
aI6715000
aS'_4525748096'
p1014
aa(lp1015
I1
aI0
aI0
aI0
aI0
aI1
aI1
aI1
aI1
aI0
aI1
aI0
aI1
aI0
aI0
aI1
aI5806269
aS'_4525748096'
p1016
aa(lp1017
I1
aI0
aI0
aI1
aI0
aI0
aI1
aI1
aI1
aI1
aI0
aI0
aI1
aI0
aI0
aI1
aI5084230
aS'_4525748096'
p1018
aa(lp1019
I1
aI0
aI0
aI0
aI0
aI1
aI1
aI1
aI1
aI0
aI1
aI0
aI1
aI1
aI0
aI0
aI3054330
aS'_4525748096'
p1020
aa(lp1021
I1
aI0
aI0
aI1
aI0
aI1
aI1
aI0
aI1
aI0
aI1
aI0
aI1
aI0
aI0
aI1
aI5805430
aS'_4525748096'
p1022
aa(lp1023
I1
aI1
aI0
aI0
aI0
aI1
aI1
aI0
aI1
aI0
aI1
aI0
aI1
aI0
aI0
aI1
aI5619600
aS'_4525748096'
p1024
aa(lp1025
I1
aI1
aI0
aI1
aI0
aI1
aI0
aI0
aI1
aI0
aI1
aI0
aI1
aI0
aI0
aI1
aI6907170
aS'_4525748096'
p1026
aa(lp1027
I1
aI0
aI0
aI0
aI0
aI0
aI1
aI1
aI1
aI0
aI1
aI0
aI1
aI0
aI0
aI1
aI5108570
aS'_4525748096'
p1028
aa(lp1029
I1
aI0
aI0
aI1
aI0
aI0
aI1
aI1
aI1
aI0
aI0
aI1
aI1
aI0
aI0
aI1
aI5108900
aS'_4525748096'
p1030
aa(lp1031
I1
aI0
aI0
aI1
aI0
aI1
aI1
aI1
aI1
aI0
aI1
aI0
aI1
aI0
aI1
aI0
aI4327970
aS'_4525748096'
p1032
aa(lp1033
I1
aI1
aI0
aI1
aI0
aI1
aI1
aI0
aI1
aI0
aI1
aI0
aI1
aI0
aI0
aI1
aI5617430
aS'_4525748096'
p1034
aa(lp1035
I1
aI1
aI0
aI1
aI0
aI1
aI1
aI1
aI1
aI0
aI1
aI0
aI1
aI0
aI0
aI1
aI5614200
aS'_4525748096'
p1036
aa(lp1037
I1
aI1
aI0
aI1
aI0
aI0
aI1
aI1
aI1
aI0
aI1
aI0
aI1
aI0
aI0
aI1
aI4967800
aS'_4525748096'
p1038
aa(lp1039
I1
aI1
aI0
aI1
aI0
aI0
aI1
aI0
aI1
aI0
aI1
aI0
aI1
aI0
aI0
aI1
aI4973330
aS'_4525748096'
p1040
aaaa(lp1041
S'_4445480000'
p1042
a(lp1043
(lp1044
I1
aI0
aI1
aI0
aI0
aI1
aI0
aI1
aI1
aI1
aI0
aI0
aI1
aI0
aI1
aI0
aI5114800
ag1042
aa(lp1045
I1
aI0
aI0
aI1
aI1
aI0
aI0
aI1
aI1
aI1
aI0
aI0
aI1
aI0
aI0
aI1
aI7431230
aS'_4445480000'
p1046
aa(lp1047
I1
aI1
aI0
aI0
aI1
aI1
aI0
aI0
aI1
aI1
aI0
aI0
aI1
aI0
aI0
aI1
aI7809299
aS'_4445480000'
p1048
aa(lp1049
I1
aI0
aI1
aI0
aI1
aI1
aI0
aI1
aI1
aI1
aI0
aI0
aI1
aI0
aI0
aI1
aI8070170
aS'_4445480000'
p1050
aa(lp1051
I1
aI0
aI1
aI1
aI1
aI0
aI0
aI1
aI1
aI1
aI0
aI0
aI1
aI0
aI0
aI1
aI7311930
aS'_4445480000'
p1052
aa(lp1053
I1
aI0
aI0
aI0
aI1
aI1
aI0
aI0
aI1
aI1
aI0
aI0
aI1
aI0
aI0
aI1
aI8177930
aS'_4445480000'
p1054
aa(lp1055
I1
aI0
aI1
aI0
aI0
aI0
aI0
aI1
aI1
aI1
aI0
aI0
aI1
aI0
aI1
aI0
aI4359770
aS'_4445480000'
p1056
aa(lp1057
I1
aI0
aI1
aI0
aI1
aI1
aI1
aI1
aI1
aI0
aI1
aI0
aI1
aI0
aI1
aI0
aI4769530
aS'_4445480000'
p1058
aa(lp1059
I1
aI0
aI1
aI1
aI1
aI0
aI1
aI1
aI1
aI0
aI1
aI0
aI1
aI0
aI1
aI0
aI4443800
aS'_4445480000'
p1060
aa(lp1061
I1
aI1
aI1
aI0
aI1
aI1
aI1
aI0
aI1
aI0
aI1
aI0
aI1
aI0
aI1
aI0
aI4567070
aS'_4445480000'
p1062
aa(lp1063
I1
aI0
aI0
aI0
aI1
aI1
aI0
aI0
aI1
aI1
aI0
aI0
aI1
aI1
aI0
aI0
aI3105800
aS'_4445480000'
p1064
aa(lp1065
I1
aI1
aI1
aI0
aI1
aI0
aI1
aI1
aI1
aI0
aI1
aI0
aI1
aI0
aI1
aI0
aI4281600
aS'_4445480000'
p1066
aa(lp1067
I1
aI0
aI1
aI0
aI1
aI0
aI0
aI0
aI1
aI1
aI0
aI0
aI1
aI0
aI1
aI0
aI5058570
aS'_4445480000'
p1068
aa(lp1069
I1
aI0
aI1
aI0
aI0
aI1
aI0
aI1
aI1
aI0
aI1
aI0
aI1
aI0
aI1
aI0
aI5113430
aS'_4445480000'
p1070
aa(lp1071
I1
aI0
aI0
aI0
aI1
aI0
aI1
aI0
aI1
aI0
aI1
aI0
aI1
aI0
aI1
aI0
aI4492800
aS'_4445480000'
p1072
aa(lp1073
I1
aI1
aI1
aI0
aI1
aI1
aI0
aI1
aI1
aI0
aI1
aI0
aI1
aI0
aI1
aI0
aI5358600
aS'_4445480000'
p1074
aa(lp1075
I1
aI0
aI1
aI0
aI1
aI0
aI1
aI0
aI1
aI0
aI1
aI0
aI1
aI0
aI1
aI0
aI4458370
aS'_4445480000'
p1076
aa(lp1077
I1
aI0
aI0
aI0
aI1
aI0
aI0
aI1
aI1
aI0
aI0
aI1
aI1
aI1
aI0
aI0
aI2793330
aS'_4445480000'
p1078
aa(lp1079
I1
aI0
aI1
aI0
aI1
aI0
aI0
aI1
aI1
aI0
aI1
aI0
aI1
aI0
aI0
aI1
aI7312170
aS'_4445480000'
p1080
aa(lp1081
I1
aI1
aI1
aI0
aI1
aI0
aI0
aI1
aI1
aI0
aI1
aI0
aI1
aI0
aI0
aI1
aI7052130
aS'_4445480000'
p1082
aa(lp1083
I1
aI0
aI1
aI0
aI1
aI0
aI0
aI1
aI1
aI0
aI1
aI0
aI1
aI1
aI0
aI0
aI2688730
aS'_4445480000'
p1084
aa(lp1085
I1
aI0
aI1
aI0
aI1
aI0
aI0
aI0
aI1
aI0
aI1
aI0
aI1
aI1
aI0
aI0
aI2687870
aS'_4445480000'
p1086
aaaa(lp1087
S'_4525745432'
p1088
a(lp1089
(lp1090
I1
aI0
aI0
aI1
aI0
aI1
aI0
aI1
aI1
aI0
aI1
aI0
aI1
aI1
aI0
aI0
aI3050400
ag1088
aa(lp1091
I1
aI0
aI0
aI1
aI0
aI1
aI1
aI1
aI1
aI0
aI1
aI0
aI1
aI1
aI0
aI0
aI3050000
aS'_4525745432'
p1092
aa(lp1093
I1
aI0
aI1
aI1
aI0
aI0
aI0
aI1
aI1
aI0
aI1
aI0
aI1
aI1
aI0
aI0
aI2622900
aS'_4525745432'
p1094
aa(lp1095
I1
aI0
aI0
aI0
aI0
aI1
aI1
aI0
aI1
aI0
aI0
aI1
aI1
aI1
aI0
aI0
aI3053500
aS'_4525745432'
p1096
aa(lp1097
I1
aI0
aI1
aI1
aI1
aI1
aI0
aI1
aI1
aI0
aI1
aI0
aI1
aI1
aI0
aI0
aI2996270
aS'_4525745432'
p1098
aa(lp1099
I1
aI1
aI0
aI0
aI0
aI1
aI0
aI0
aI1
aI0
aI0
aI1
aI1
aI1
aI0
aI0
aI2871130
aS'_4525745432'
p1100
aa(lp1101
I1
aI0
aI1
aI1
aI0
aI1
aI1
aI1
aI1
aI1
aI0
aI0
aI1
aI1
aI0
aI0
aI2954100
aS'_4525745432'
p1102
aa(lp1103
I1
aI0
aI1
aI1
aI1
aI1
aI1
aI0
aI1
aI0
aI0
aI1
aI1
aI1
aI0
aI0
aI2996770
aS'_4525745432'
p1104
aa(lp1105
I1
aI0
aI1
aI1
aI0
aI1
aI1
aI0
aI1
aI0
aI0
aI1
aI1
aI1
aI0
aI0
aI2954130
aS'_4525745432'
p1106
aa(lp1107
I1
aI0
aI1
aI1
aI0
aI0
aI1
aI1
aI1
aI1
aI0
aI0
aI1
aI1
aI0
aI0
aI2598399
aS'_4525745432'
p1108
aa(lp1109
I1
aI1
aI1
aI1
aI0
aI1
aI0
aI1
aI1
aI0
aI1
aI0
aI1
aI1
aI0
aI0
aI2754529
aS'_4525745432'
p1110
aa(lp1111
I1
aI0
aI1
aI1
aI0
aI1
aI0
aI0
aI1
aI0
aI1
aI0
aI1
aI1
aI0
aI0
aI2954270
aS'_4525745432'
p1112
aa(lp1113
I1
aI1
aI0
aI0
aI0
aI1
aI1
aI0
aI1
aI0
aI0
aI1
aI1
aI1
aI0
aI0
aI2870530
aS'_4525745432'
p1114
aa(lp1115
I1
aI0
aI1
aI0
aI0
aI1
aI0
aI1
aI1
aI0
aI1
aI0
aI1
aI1
aI0
aI0
aI2956100
aS'_4525745432'
p1116
aa(lp1117
I1
aI1
aI0
aI1
aI0
aI1
aI0
aI0
aI1
aI0
aI1
aI0
aI1
aI1
aI0
aI0
aI2864270
aS'_4525745432'
p1118
aa(lp1119
I1
aI0
aI1
aI1
aI0
aI0
aI0
aI0
aI1
aI0
aI1
aI0
aI1
aI1
aI0
aI0
aI2622330
aS'_4525745432'
p1120
aa(lp1121
I1
aI0
aI1
aI0
aI0
aI1
aI0
aI0
aI1
aI0
aI1
aI0
aI1
aI1
aI0
aI0
aI2954900
aS'_4525745432'
p1122
aa(lp1123
I1
aI1
aI0
aI1
aI0
aI1
aI1
aI0
aI1
aI0
aI1
aI0
aI1
aI1
aI0
aI0
aI2862799
aS'_4525745432'
p1124
aa(lp1125
I1
aI0
aI1
aI0
aI0
aI1
aI1
aI1
aI1
aI0
aI1
aI0
aI1
aI1
aI0
aI0
aI2955800
aS'_4525745432'
p1126
aa(lp1127
I1
aI0
aI1
aI1
aI0
aI1
aI1
aI0
aI1
aI0
aI1
aI0
aI1
aI1
aI0
aI0
aI2953600
aS'_4525745432'
p1128
aa(lp1129
I1
aI1
aI1
aI1
aI0
aI1
aI1
aI0
aI1
aI0
aI1
aI0
aI1
aI1
aI0
aI0
aI2755230
aS'_4525745432'
p1130
aa(lp1131
I1
aI1
aI1
aI0
aI0
aI1
aI1
aI0
aI1
aI0
aI1
aI0
aI1
aI1
aI0
aI0
aI2758970
aS'_4525745432'
p1132
aaaa(lp1133
S'_4445482448'
p1134
a(lp1135
(lp1136
I1
aI1
aI1
aI0
aI0
aI1
aI0
aI1
aI1
aI1
aI0
aI0
aI1
aI0
aI0
aI1
aI6806170
ag1134
aa(lp1137
I1
aI1
aI0
aI0
aI0
aI1
aI0
aI1
aI1
aI1
aI0
aI0
aI1
aI0
aI0
aI1
aI6870930
aS'_4445482448'
p1138
aa(lp1139
I1
aI1
aI1
aI0
aI0
aI0
aI0
aI1
aI1
aI1
aI0
aI0
aI1
aI0
aI0
aI1
aI5790230
aS'_4445482448'
p1140
aa(lp1141
I1
aI1
aI1
aI0
aI0
aI0
aI1
aI1
aI1
aI1
aI0
aI0
aI1
aI0
aI0
aI1
aI4912370
aS'_4445482448'
p1142
aa(lp1143
I1
aI1
aI1
aI0
aI1
aI0
aI0
aI1
aI1
aI1
aI0
aI0
aI1
aI0
aI0
aI1
aI7035000
aS'_4445482448'
p1144
aa(lp1145
I1
aI1
aI1
aI0
aI1
aI1
aI0
aI0
aI1
aI1
aI0
aI0
aI1
aI0
aI0
aI1
aI7736700
aS'_4445482448'
p1146
aa(lp1147
I1
aI0
aI1
aI0
aI0
aI1
aI0
aI0
aI1
aI1
aI0
aI0
aI1
aI0
aI1
aI0
aI5116930
aS'_4445482448'
p1148
aa(lp1149
I1
aI1
aI1
aI0
aI1
aI0
aI0
aI1
aI1
aI1
aI0
aI0
aI1
aI0
aI1
aI0
aI4842900
aS'_4445482448'
p1150
aa(lp1151
I1
aI1
aI1
aI1
aI1
aI0
aI1
aI1
aI1
aI1
aI0
aI0
aI1
aI0
aI0
aI1
aI6073769
aS'_4445482448'
p1152
aa(lp1153
I1
aI1
aI0
aI0
aI1
aI0
aI0
aI1
aI1
aI1
aI0
aI0
aI1
aI0
aI0
aI1
aI7112930
aS'_4445482448'
p1154
aa(lp1155
I1
aI0
aI1
aI0
aI1
aI0
aI0
aI1
aI1
aI1
aI0
aI0
aI1
aI0
aI0
aI1
aI7293000
aS'_4445482448'
p1156
aa(lp1157
I1
aI1
aI1
aI0
aI0
aI1
aI0
aI0
aI1
aI1
aI0
aI0
aI1
aI1
aI0
aI0
aI2759230
aS'_4445482448'
p1158
aa(lp1159
I1
aI1
aI0
aI0
aI1
aI0
aI1
aI0
aI1
aI1
aI0
aI0
aI1
aI0
aI0
aI1
aI6153370
aS'_4445482448'
p1160
aa(lp1161
I1
aI0
aI1
aI0
aI0
aI0
aI0
aI1
aI1
aI1
aI0
aI0
aI1
aI1
aI0
aI0
aI2604100
aS'_4445482448'
p1162
aa(lp1163
I1
aI1
aI0
aI0
aI0
aI1
aI0
aI0
aI1
aI1
aI0
aI0
aI1
aI1
aI0
aI0
aI2870100
aS'_4445482448'
p1164
aa(lp1165
I1
aI1
aI1
aI0
aI0
aI0
aI1
aI0
aI1
aI1
aI0
aI0
aI1
aI1
aI0
aI0
aI2444330
aS'_4445482448'
p1166
aa(lp1167
I1
aI0
aI0
aI0
aI0
aI1
aI1
aI1
aI1
aI1
aI0
aI0
aI1
aI1
aI0
aI0
aI3054800
aS'_4445482448'
p1168
aa(lp1169
I1
aI0
aI0
aI0
aI0
aI0
aI0
aI0
aI1
aI1
aI0
aI0
aI1
aI0
aI0
aI1
aI6110430
aS'_4445482448'
p1170
aa(lp1171
I1
aI0
aI1
aI0
aI0
aI0
aI1
aI1
aI1
aI1
aI0
aI0
aI1
aI1
aI0
aI0
aI2603800
aS'_4445482448'
p1172
aa(lp1173
I1
aI0
aI1
aI0
aI0
aI0
aI0
aI0
aI1
aI1
aI0
aI0
aI1
aI0
aI1
aI0
aI4361170
aS'_4445482448'
p1174
aa(lp1175
I1
aI1
aI0
aI0
aI1
aI1
aI1
aI0
aI1
aI1
aI0
aI0
aI1
aI0
aI1
aI0
aI4632400
aS'_4445482448'
p1176
aaaa(lp1177
S'_4445479712'
p1178
a(lp1179
(lp1180
I1
aI0
aI0
aI0
aI0
aI1
aI0
aI0
aI1
aI1
aI0
aI0
aI1
aI1
aI0
aI0
aI3054000
ag1178
aa(lp1181
I1
aI0
aI0
aI0
aI1
aI0
aI0
aI0
aI1
aI1
aI0
aI0
aI1
aI0
aI0
aI1
aI7402100
aS'_4445479712'
p1182
aa(lp1183
I1
aI1
aI1
aI0
aI1
aI0
aI0
aI0
aI1
aI1
aI0
aI0
aI1
aI1
aI0
aI0
aI2494970
aS'_4445479712'
p1184
aa(lp1185
I1
aI0
aI1
aI1
aI0
aI0
aI0
aI1
aI1
aI1
aI0
aI0
aI1
aI1
aI0
aI0
aI2599030
aS'_4445479712'
p1186
aa(lp1187
I1
aI0
aI1
aI0
aI1
aI1
aI0
aI0
aI1
aI1
aI0
aI0
aI1
aI1
aI0
aI0
aI2996600
aS'_4445479712'
p1188
aa(lp1189
I1
aI0
aI1
aI0
aI0
aI0
aI1
aI0
aI1
aI1
aI0
aI0
aI1
aI1
aI0
aI0
aI2604800
aS'_4445479712'
p1190
aa(lp1191
I1
aI1
aI1
aI1
aI0
aI0
aI1
aI0
aI1
aI1
aI0
aI0
aI1
aI1
aI0
aI0
aI2442770
aS'_4445479712'
p1192
aa(lp1193
I1
aI1
aI0
aI1
aI0
aI0
aI1
aI1
aI1
aI1
aI0
aI0
aI1
aI1
aI0
aI0
aI2540130
aS'_4445479712'
p1194
aa(lp1195
I1
aI0
aI0
aI0
aI1
aI0
aI1
aI0
aI1
aI1
aI0
aI0
aI1
aI0
aI0
aI1
aI6310430
aS'_4445479712'
p1196
aa(lp1197
I1
aI1
aI0
aI0
aI0
aI0
aI1
aI0
aI1
aI1
aI0
aI0
aI1
aI1
aI0
aI0
aI2548200
aS'_4445479712'
p1198
aa(lp1199
I1
aI0
aI0
aI0
aI0
aI0
aI1
aI1
aI1
aI1
aI0
aI0
aI1
aI1
aI0
aI0
aI2686030
aS'_4445479712'
p1200
aa(lp1201
I1
aI0
aI1
aI0
aI1
aI0
aI1
aI0
aI1
aI1
aI0
aI0
aI1
aI0
aI1
aI0
aI4439200
aS'_4445479712'
p1202
aa(lp1203
I1
aI1
aI1
aI1
aI1
aI0
aI0
aI0
aI1
aI1
aI0
aI0
aI1
aI1
aI0
aI0
aI2493630
aS'_4445479712'
p1204
aa(lp1205
I1
aI1
aI0
aI0
aI1
aI0
aI0
aI0
aI1
aI1
aI0
aI0
aI1
aI1
aI0
aI0
aI2610770
aS'_4445479712'
p1206
aa(lp1207
I1
aI0
aI0
aI0
aI0
aI0
aI0
aI0
aI1
aI1
aI0
aI0
aI1
aI1
aI0
aI0
aI2687200
aS'_4445479712'
p1208
aa(lp1209
I1
aI0
aI0
aI0
aI0
aI0
aI1
aI0
aI1
aI1
aI0
aI0
aI1
aI1
aI0
aI0
aI2687730
aS'_4445479712'
p1210
aa(lp1211
I1
aI0
aI0
aI0
aI1
aI0
aI1
aI0
aI1
aI1
aI0
aI0
aI1
aI0
aI1
aI0
aI4474230
aS'_4445479712'
p1212
aa(lp1213
I1
aI0
aI0
aI0
aI1
aI0
aI0
aI0
aI1
aI1
aI0
aI0
aI1
aI1
aI0
aI0
aI2761030
aS'_4445479712'
p1214
aa(lp1215
I1
aI0
aI0
aI1
aI1
aI0
aI1
aI1
aI1
aI1
aI0
aI0
aI1
aI1
aI0
aI0
aI2753100
aS'_4445479712'
p1216
aa(lp1217
I1
aI1
aI0
aI1
aI1
aI0
aI1
aI0
aI1
aI1
aI0
aI0
aI1
aI1
aI0
aI0
aI2606370
aS'_4445479712'
p1218
aa(lp1219
I1
aI0
aI0
aI1
aI1
aI0
aI0
aI0
aI1
aI1
aI0
aI0
aI1
aI1
aI0
aI0
aI2754270
aS'_4445479712'
p1220
aa(lp1221
I1
aI0
aI0
aI1
aI1
aI0
aI1
aI0
aI1
aI1
aI0
aI0
aI1
aI1
aI0
aI0
aI2756900
aS'_4445479712'
p1222
aaaa(lp1223
S'_4445482520'
p1224
a(lp1225
(lp1226
I1
aI0
aI0
aI1
aI0
aI1
aI0
aI1
aI1
aI0
aI0
aI1
aI1
aI0
aI1
aI0
aI5215100
ag1224
aa(lp1227
I1
aI0
aI0
aI1
aI0
aI1
aI0
aI0
aI1
aI0
aI0
aI1
aI1
aI0
aI1
aI0
aI5219800
aS'_4445482520'
p1228
aa(lp1229
I1
aI0
aI0
aI1
aI1
aI1
aI1
aI0
aI1
aI0
aI0
aI1
aI1
aI0
aI1
aI0
aI4823770
aS'_4445482520'
p1230
aa(lp1231
I1
aI0
aI0
aI1
aI0
aI1
aI1
aI0
aI1
aI0
aI0
aI1
aI1
aI0
aI1
aI0
aI4327570
aS'_4445482520'
p1232
aa(lp1233
I1
aI0
aI1
aI1
aI0
aI0
aI0
aI1
aI1
aI0
aI0
aI1
aI1
aI1
aI0
aI0
aI2633630
aS'_4445482520'
p1234
aa(lp1235
I1
aI0
aI0
aI1
aI0
aI0
aI0
aI0
aI1
aI0
aI0
aI1
aI1
aI1
aI0
aI0
aI2713370
aS'_4445482520'
p1236
aa(lp1237
I1
aI0
aI0
aI1
aI0
aI0
aI1
aI1
aI1
aI0
aI0
aI1
aI1
aI1
aI0
aI0
aI2714030
aS'_4445482520'
p1238
aa(lp1239
I1
aI0
aI0
aI1
aI0
aI1
aI1
aI1
aI1
aI0
aI0
aI1
aI1
aI1
aI0
aI0
aI3051030
aS'_4445482520'
p1240
aa(lp1241
I1
aI0
aI1
aI1
aI0
aI1
aI0
aI1
aI1
aI0
aI0
aI1
aI1
aI1
aI0
aI0
aI2954230
aS'_4445482520'
p1242
aa(lp1243
I1
aI0
aI0
aI0
aI0
aI1
aI0
aI1
aI1
aI0
aI0
aI1
aI1
aI1
aI0
aI0
aI3055000
aS'_4445482520'
p1244
aa(lp1245
I1
aI0
aI0
aI1
aI0
aI1
aI0
aI0
aI1
aI0
aI0
aI1
aI1
aI1
aI0
aI0
aI3049600
aS'_4445482520'
p1246
aa(lp1247
I1
aI0
aI0
aI1
aI0
aI0
aI1
aI0
aI1
aI0
aI0
aI1
aI1
aI1
aI0
aI0
aI2714169
aS'_4445482520'
p1248
aa(lp1249
I1
aI1
aI0
aI1
aI1
aI1
aI1
aI1
aI1
aI0
aI0
aI1
aI1
aI1
aI0
aI0
aI2912370
aS'_4445482520'
p1250
aa(lp1251
I1
aI0
aI1
aI0
aI1
aI1
aI0
aI1
aI1
aI0
aI0
aI1
aI1
aI1
aI0
aI0
aI2998500
aS'_4445482520'
p1252
aa(lp1253
I1
aI0
aI1
aI1
aI0
aI0
aI0
aI0
aI1
aI0
aI0
aI1
aI1
aI1
aI0
aI0
aI2633670
aS'_4445482520'
p1254
aa(lp1255
I1
aI1
aI0
aI1
aI0
aI0
aI0
aI0
aI1
aI0
aI0
aI1
aI1
aI1
aI0
aI0
aI2574630
aS'_4445482520'
p1256
aa(lp1257
I1
aI0
aI1
aI1
aI0
aI1
aI1
aI1
aI1
aI0
aI1
aI0
aI1
aI0
aI1
aI0
aI4274770
aS'_4445482520'
p1258
aa(lp1259
I1
aI0
aI0
aI0
aI0
aI1
aI1
aI1
aI1
aI0
aI0
aI1
aI1
aI1
aI0
aI0
aI3054330
aS'_4445482520'
p1260
aa(lp1261
I1
aI0
aI0
aI1
aI0
aI1
aI1
aI0
aI1
aI0
aI0
aI1
aI1
aI1
aI0
aI0
aI3050270
aS'_4445482520'
p1262
aa(lp1263
I1
aI0
aI1
aI0
aI0
aI1
aI0
aI1
aI1
aI0
aI0
aI1
aI1
aI1
aI0
aI0
aI2956070
aS'_4445482520'
p1264
aa(lp1265
I1
aI1
aI0
aI1
aI0
aI1
aI1
aI1
aI1
aI0
aI0
aI1
aI1
aI1
aI0
aI0
aI2864570
aS'_4445482520'
p1266
aaaa(lp1267
S'_4445479496'
p1268
a(lp1269
(lp1270
I1
aI1
aI1
aI1
aI0
aI1
aI0
aI1
aI1
aI0
aI0
aI1
aI1
aI1
aI0
aI0
aI2754270
ag1268
aa(lp1271
I1
aI1
aI1
aI0
aI0
aI1
aI0
aI0
aI1
aI0
aI1
aI0
aI1
aI1
aI0
aI0
aI2760100
aS'_4445479496'
p1272
aa(lp1273
I1
aI0
aI1
aI1
aI0
aI1
aI0
aI0
aI1
aI0
aI0
aI1
aI1
aI0
aI0
aI1
aI7158270
aS'_4445479496'
p1274
aa(lp1275
I1
aI1
aI1
aI1
aI0
aI1
aI1
aI0
aI1
aI1
aI0
aI0
aI1
aI1
aI0
aI0
aI2754169
aS'_4445479496'
p1276
aa(lp1277
I1
aI1
aI1
aI1
aI1
aI1
aI0
aI0
aI1
aI0
aI1
aI0
aI1
aI1
aI0
aI0
aI2792470
aS'_4445479496'
p1278
aa(lp1279
I1
aI0
aI1
aI1
aI0
aI1
aI0
aI0
aI1
aI1
aI0
aI0
aI1
aI0
aI1
aI0
aI5132329
aS'_4445479496'
p1280
aa(lp1281
I1
aI0
aI0
aI1
aI0
aI1
aI0
aI0
aI1
aI1
aI0
aI0
aI1
aI1
aI0
aI0
aI3049000
aS'_4445479496'
p1282
aa(lp1283
I1
aI1
aI1
aI1
aI0
aI1
aI0
aI0
aI1
aI1
aI0
aI0
aI1
aI1
aI0
aI0
aI2753870
aS'_4445479496'
p1284
aa(lp1285
I1
aI0
aI1
aI1
aI0
aI1
aI1
aI0
aI1
aI1
aI0
aI0
aI1
aI0
aI1
aI0
aI4276600
aS'_4445479496'
p1286
aa(lp1287
I1
aI1
aI1
aI1
aI1
aI1
aI0
aI0
aI1
aI1
aI0
aI0
aI1
aI0
aI0
aI1
aI7758529
aS'_4445479496'
p1288
aa(lp1289
I1
aI1
aI1
aI1
aI0
aI0
aI0
aI0
aI1
aI1
aI0
aI0
aI1
aI0
aI0
aI1
aI5814070
aS'_4445479496'
p1290
aa(lp1291
I1
aI1
aI1
aI1
aI0
aI1
aI1
aI0
aI1
aI1
aI0
aI0
aI1
aI0
aI1
aI0
aI4080700
aS'_4445479496'
p1292
aa(lp1293
I1
aI0
aI1
aI1
aI1
aI1
aI0
aI1
aI1
aI1
aI0
aI0
aI1
aI0
aI0
aI1
aI8095700
aS'_4445479496'
p1294
aa(lp1295
I1
aI0
aI1
aI1
aI0
aI1
aI1
aI1
aI1
aI1
aI0
aI0
aI1
aI0
aI1
aI0
aI4274930
aS'_4445479496'
p1296
aa(lp1297
I1
aI1
aI0
aI1
aI0
aI1
aI1
aI0
aI1
aI1
aI0
aI0
aI1
aI1
aI0
aI0
aI2864300
aS'_4445479496'
p1298
aa(lp1299
I1
aI1
aI1
aI1
aI0
aI1
aI1
aI1
aI1
aI1
aI0
aI0
aI1
aI1
aI0
aI0
aI2754700
aS'_4445479496'
p1300
aa(lp1301
I1
aI1
aI0
aI1
aI0
aI1
aI0
aI0
aI1
aI0
aI0
aI1
aI1
aI0
aI0
aI1
aI6908730
aS'_4445479496'
p1302
aa(lp1303
I1
aI0
aI1
aI1
aI0
aI1
aI1
aI1
aI1
aI1
aI0
aI0
aI1
aI0
aI0
aI1
aI5754770
aS'_4445479496'
p1304
aa(lp1305
I1
aI1
aI1
aI1
aI0
aI1
aI0
aI0
aI1
aI0
aI1
aI0
aI1
aI0
aI0
aI1
aI6837630
aS'_4445479496'
p1306
aa(lp1307
I1
aI1
aI1
aI1
aI0
aI1
aI0
aI1
aI1
aI1
aI0
aI0
aI1
aI0
aI0
aI1
aI6834200
aS'_4445479496'
p1308
aa(lp1309
I1
aI1
aI0
aI1
aI0
aI1
aI1
aI1
aI1
aI1
aI0
aI0
aI1
aI0
aI0
aI1
aI5613730
aS'_4445479496'
p1310
aa(lp1311
I1
aI1
aI0
aI1
aI0
aI1
aI0
aI1
aI1
aI0
aI1
aI0
aI1
aI0
aI0
aI1
aI6902170
aS'_4445479496'
p1312
aaaa(lp1313
S'_4445481872'
p1314
a(lp1315
(lp1316
I1
aI0
aI1
aI0
aI1
aI1
aI0
aI1
aI1
aI0
aI1
aI0
aI1
aI1
aI0
aI0
aI2999070
ag1314
aa(lp1317
I1
aI0
aI0
aI0
aI1
aI1
aI0
aI1
aI1
aI0
aI1
aI0
aI1
aI1
aI0
aI0
aI3107770
aS'_4445481872'
p1318
aa(lp1319
I1
aI0
aI0
aI0
aI1
aI1
aI0
aI0
aI1
aI0
aI1
aI0
aI1
aI1
aI0
aI0
aI3106970
aS'_4445481872'
p1320
aa(lp1321
I1
aI1
aI1
aI0
aI1
aI1
aI0
aI0
aI1
aI0
aI1
aI0
aI1
aI1
aI0
aI0
aI2797530
aS'_4445481872'
p1322
aa(lp1323
I1
aI0
aI0
aI0
aI0
aI0
aI0
aI1
aI1
aI0
aI1
aI0
aI1
aI1
aI0
aI0
aI2707070
aS'_4445481872'
p1324
aa(lp1325
I1
aI1
aI0
aI0
aI1
aI1
aI0
aI0
aI1
aI0
aI1
aI0
aI1
aI1
aI0
aI0
aI2915899
aS'_4445481872'
p1326
aa(lp1327
I1
aI1
aI0
aI0
aI0
aI1
aI0
aI1
aI1
aI0
aI1
aI0
aI1
aI1
aI0
aI0
aI2871070
aS'_4445481872'
p1328
aa(lp1329
I1
aI0
aI0
aI0
aI1
aI1
aI0
aI1
aI1
aI0
aI0
aI1
aI1
aI1
aI0
aI0
aI3106870
aS'_4445481872'
p1330
aa(lp1331
I1
aI0
aI0
aI0
aI1
aI1
aI0
aI1
aI1
aI0
aI1
aI0
aI1
aI0
aI1
aI0
aI5713099
aS'_4445481872'
p1332
aa(lp1333
I1
aI0
aI0
aI0
aI1
aI0
aI0
aI0
aI1
aI0
aI1
aI0
aI1
aI1
aI0
aI0
aI2781970
aS'_4445481872'
p1334
aa(lp1335
I1
aI0
aI0
aI0
aI1
aI1
aI1
aI1
aI1
aI0
aI1
aI0
aI1
aI1
aI0
aI0
aI3107530
aS'_4445481872'
p1336
aa(lp1337
I1
aI1
aI1
aI0
aI1
aI0
aI0
aI1
aI1
aI0
aI1
aI0
aI1
aI1
aI0
aI0
aI2517870
aS'_4445481872'
p1338
aa(lp1339
I1
aI0
aI0
aI0
aI0
aI1
aI1
aI1
aI1
aI0
aI1
aI0
aI1
aI0
aI1
aI0
aI4331530
aS'_4445481872'
p1340
aa(lp1341
I1
aI0
aI1
aI0
aI0
aI0
aI1
aI1
aI1
aI0
aI1
aI0
aI1
aI0
aI1
aI0
aI3802770
aS'_4445481872'
p1342
aa(lp1343
I1
aI0
aI0
aI0
aI1
aI0
aI1
aI0
aI1
aI0
aI1
aI0
aI1
aI1
aI0
aI0
aI2782269
aS'_4445481872'
p1344
aa(lp1345
I1
aI0
aI0
aI0
aI0
aI1
aI0
aI1
aI1
aI1
aI0
aI0
aI1
aI1
aI0
aI0
aI3052830
aS'_4445481872'
p1346
aa(lp1347
I1
aI1
aI1
aI0
aI1
aI1
aI1
aI1
aI1
aI0
aI1
aI0
aI1
aI0
aI1
aI0
aI4563630
aS'_4445481872'
p1348
aa(lp1349
I1
aI0
aI0
aI0
aI0
aI0
aI1
aI1
aI1
aI0
aI1
aI0
aI1
aI1
aI0
aI0
aI2707269
aS'_4445481872'
p1350
aa(lp1351
I1
aI1
aI1
aI1
aI0
aI0
aI0
aI1
aI1
aI0
aI1
aI0
aI1
aI1
aI0
aI0
aI2462000
aS'_4445481872'
p1352
aa(lp1353
I1
aI1
aI0
aI1
aI0
aI1
aI0
aI1
aI1
aI0
aI1
aI0
aI1
aI1
aI0
aI0
aI2864000
aS'_4445481872'
p1354
aa(lp1355
I1
aI0
aI0
aI1
aI1
aI1
aI0
aI1
aI1
aI0
aI1
aI0
aI1
aI0
aI1
aI0
aI5734000
aS'_4445481872'
p1356
aa(lp1357
I1
aI1
aI1
aI0
aI1
aI1
aI0
aI1
aI1
aI0
aI1
aI0
aI1
aI0
aI0
aI1
aI7732200
aS'_4445481872'
p1358
aaaa(lp1359
S'_4445480792'
p1360
a(lp1361
(lp1362
I1
aI1
aI1
aI0
aI0
aI0
aI1
aI1
aI1
aI0
aI1
aI0
aI1
aI0
aI1
aI0
aI3643470
ag1360
aa(lp1363
I1
aI1
aI0
aI0
aI0
aI0
aI1
aI1
aI1
aI0
aI1
aI0
aI1
aI0
aI1
aI0
aI3694630
aS'_4445480792'
p1364
aa(lp1365
I1
aI1
aI0
aI0
aI0
aI1
aI1
aI1
aI1
aI0
aI1
aI0
aI1
aI0
aI1
aI0
aI4146870
aS'_4445480792'
p1366
aa(lp1367
I1
aI1
aI0
aI0
aI0
aI0
aI1
aI1
aI1
aI1
aI0
aI0
aI1
aI0
aI1
aI0
aI3675430
aS'_4445480792'
p1368
aa(lp1369
I1
aI1
aI0
aI0
aI1
aI0
aI1
aI1
aI1
aI0
aI1
aI0
aI1
aI0
aI1
aI0
aI4336930
aS'_4445480792'
p1370
aa(lp1371
I1
aI1
aI0
aI0
aI0
aI0
aI0
aI1
aI1
aI0
aI1
aI0
aI1
aI0
aI1
aI0
aI4248200
aS'_4445480792'
p1372
aa(lp1373
I1
aI0
aI0
aI0
aI0
aI0
aI1
aI1
aI1
aI0
aI1
aI0
aI1
aI0
aI1
aI0
aI3828830
aS'_4445480792'
p1374
aa(lp1375
I1
aI1
aI0
aI0
aI0
aI0
aI1
aI0
aI1
aI0
aI1
aI0
aI1
aI0
aI1
aI0
aI3698100
aS'_4445480792'
p1376
aa(lp1377
I1
aI1
aI1
aI0
aI0
aI1
aI0
aI1
aI1
aI0
aI0
aI1
aI1
aI0
aI1
aI0
aI4854370
aS'_4445480792'
p1378
aa(lp1379
I1
aI1
aI0
aI1
aI0
aI0
aI1
aI1
aI1
aI0
aI0
aI1
aI1
aI0
aI1
aI0
aI3696170
aS'_4445480792'
p1380
aa(lp1381
I1
aI1
aI1
aI1
aI1
aI0
aI1
aI1
aI1
aI0
aI0
aI1
aI1
aI0
aI1
aI0
aI4281570
aS'_4445480792'
p1382
aa(lp1383
I1
aI1
aI1
aI1
aI0
aI0
aI0
aI1
aI1
aI0
aI0
aI1
aI1
aI0
aI1
aI0
aI4206830
aS'_4445480792'
p1384
aa(lp1385
I1
aI1
aI1
aI0
aI0
aI0
aI0
aI1
aI1
aI0
aI0
aI1
aI1
aI0
aI1
aI0
aI4193970
aS'_4445480792'
p1386
aa(lp1387
I1
aI1
aI1
aI0
aI1
aI0
aI1
aI1
aI1
aI0
aI0
aI1
aI1
aI0
aI1
aI0
aI4292570
aS'_4445480792'
p1388
aa(lp1389
I1
aI1
aI0
aI0
aI0
aI0
aI1
aI1
aI1
aI0
aI0
aI1
aI1
aI0
aI1
aI0
aI3705570
aS'_4445480792'
p1390
aa(lp1391
I1
aI1
aI0
aI1
aI0
aI1
aI0
aI1
aI1
aI0
aI0
aI1
aI1
aI0
aI1
aI0
aI4937030
aS'_4445480792'
p1392
aa(lp1393
I1
aI1
aI0
aI1
aI1
aI1
aI1
aI1
aI1
aI0
aI0
aI1
aI1
aI0
aI1
aI0
aI4625000
aS'_4445480792'
p1394
aa(lp1395
I1
aI1
aI1
aI0
aI1
aI1
aI0
aI1
aI1
aI0
aI0
aI1
aI1
aI0
aI1
aI0
aI5355530
aS'_4445480792'
p1396
aa(lp1397
I1
aI1
aI0
aI0
aI0
aI0
aI1
aI1
aI1
aI0
aI0
aI1
aI1
aI1
aI0
aI0
aI2578770
aS'_4445480792'
p1398
aa(lp1399
I1
aI0
aI0
aI0
aI0
aI0
aI1
aI1
aI1
aI0
aI0
aI1
aI1
aI0
aI1
aI0
aI3838900
aS'_4445480792'
p1400
aa(lp1401
I1
aI1
aI0
aI0
aI0
aI0
aI0
aI1
aI1
aI0
aI0
aI1
aI1
aI0
aI1
aI0
aI4258730
aS'_4445480792'
p1402
aaaa(lp1403
S'_4525746008'
p1404
a(lp1405
(lp1406
I1
aI0
aI1
aI0
aI0
aI0
aI1
aI1
aI1
aI0
aI0
aI1
aI1
aI1
aI0
aI0
aI2637530
ag1404
aa(lp1407
I1
aI1
aI1
aI1
aI0
aI0
aI1
aI1
aI1
aI0
aI0
aI1
aI1
aI1
aI0
aI0
aI2475370
aS'_4525746008'
p1408
aa(lp1409
I1
aI0
aI1
aI0
aI0
aI0
aI1
aI1
aI1
aI0
aI0
aI1
aI1
aI0
aI1
aI0
aI3812130
aS'_4525746008'
p1410
aa(lp1411
I1
aI1
aI1
aI1
aI1
aI0
aI1
aI0
aI1
aI0
aI0
aI1
aI1
aI1
aI0
aI0
aI2527800
aS'_4525746008'
p1412
aa(lp1413
I1
aI0
aI1
aI1
aI0
aI0
aI1
aI1
aI1
aI0
aI0
aI1
aI1
aI1
aI0
aI0
aI2633730
aS'_4525746008'
p1414
aa(lp1415
I1
aI0
aI1
aI0
aI1
aI1
aI1
aI1
aI1
aI0
aI0
aI1
aI1
aI0
aI1
aI0
aI4769000
aS'_4525746008'
p1416
aa(lp1417
I1
aI0
aI1
aI1
aI0
aI0
aI1
aI1
aI1
aI0
aI1
aI0
aI1
aI1
aI0
aI0
aI2622770
aS'_4525746008'
p1418
aa(lp1419
I1
aI1
aI1
aI1
aI0
aI0
aI1
aI0
aI1
aI0
aI0
aI1
aI1
aI0
aI1
aI0
aI3650400
aS'_4525746008'
p1420
aa(lp1421
I1
aI0
aI1
aI1
aI1
aI0
aI1
aI1
aI1
aI0
aI0
aI1
aI1
aI1
aI0
aI0
aI2694930
aS'_4525746008'
p1422
aa(lp1423
I1
aI0
aI1
aI1
aI0
aI0
aI1
aI0
aI1
aI0
aI0
aI1
aI1
aI0
aI1
aI0
aI3805270
aS'_4525746008'
p1424
aa(lp1425
I1
aI0
aI1
aI1
aI0
aI1
aI1
aI0
aI1
aI0
aI0
aI1
aI1
aI0
aI0
aI1
aI5756630
aS'_4525746008'
p1426
aa(lp1427
I1
aI1
aI1
aI1
aI0
aI0
aI0
aI0
aI1
aI0
aI0
aI1
aI1
aI0
aI1
aI0
aI4211130
aS'_4525746008'
p1428
aa(lp1429
I1
aI1
aI1
aI1
aI1
aI1
aI1
aI0
aI1
aI0
aI0
aI1
aI1
aI0
aI0
aI1
aI6441600
aS'_4525746008'
p1430
aa(lp1431
I1
aI0
aI1
aI1
aI0
aI0
aI1
aI1
aI1
aI0
aI0
aI1
aI1
aI0
aI1
aI0
aI3801800
aS'_4525746008'
p1432
aa(lp1433
I1
aI0
aI1
aI0
aI0
aI0
aI0
aI0
aI1
aI0
aI0
aI1
aI1
aI0
aI1
aI0
aI4391070
aS'_4525746008'
p1434
aa(lp1435
I1
aI0
aI1
aI1
aI1
aI0
aI1
aI0
aI1
aI0
aI0
aI1
aI1
aI1
aI0
aI0
aI2695830
aS'_4525746008'
p1436
aa(lp1437
I1
aI1
aI1
aI1
aI1
aI0
aI1
aI1
aI1
aI0
aI0
aI1
aI1
aI0
aI0
aI1
aI6096970
aS'_4525746008'
p1438
aa(lp1439
I1
aI0
aI1
aI1
aI1
aI0
aI0
aI1
aI1
aI0
aI0
aI1
aI1
aI1
aI0
aI0
aI2695230
aS'_4525746008'
p1440
aa(lp1441
I1
aI0
aI1
aI1
aI0
aI0
aI0
aI1
aI1
aI0
aI0
aI1
aI1
aI0
aI1
aI0
aI4404100
aS'_4525746008'
p1442
aa(lp1443
I1
aI0
aI1
aI1
aI0
aI0
aI0
aI0
aI1
aI0
aI0
aI1
aI1
aI0
aI0
aI1
aI6079270
aS'_4525746008'
p1444
aa(lp1445
I1
aI0
aI1
aI1
aI1
aI1
aI0
aI0
aI1
aI0
aI0
aI1
aI1
aI0
aI0
aI1
aI8098070
aS'_4525746008'
p1446
aa(lp1447
I1
aI0
aI1
aI1
aI1
aI0
aI0
aI1
aI1
aI0
aI0
aI1
aI1
aI0
aI0
aI1
aI7337630
aS'_4525746008'
p1448
aaaa.