(lp0
(lp1
S'_4518529288'
p2
a(lp3
(lp4
I1
aI0
aI1
aI0
aI1
aI0
aI0
aI1
aI1
aI0
aI1
aI0
aI1
aI1
aI0
aI0
aI2688730
ag2
aa(lp5
I1
aI0
aI1
aI0
aI1
aI1
aI0
aI1
aI1
aI0
aI0
aI1
aI1
aI1
aI0
aI0
aI2998500
aS'_4518529288'
p6
aa(lp7
I1
aI0
aI1
aI1
aI1
aI0
aI0
aI0
aI1
aI0
aI1
aI0
aI1
aI1
aI0
aI0
aI2683970
aS'_4518529288'
p8
aa(lp9
I1
aI0
aI1
aI1
aI1
aI0
aI1
aI1
aI1
aI0
aI1
aI0
aI1
aI1
aI0
aI0
aI2682630
aS'_4518529288'
p10
aa(lp11
I1
aI0
aI1
aI0
aI1
aI1
aI0
aI1
aI1
aI0
aI0
aI1
aI1
aI0
aI0
aI1
aI8069230
aS'_4518529288'
p12
aa(lp13
I1
aI0
aI1
aI1
aI1
aI0
aI0
aI1
aI1
aI0
aI0
aI1
aI1
aI1
aI0
aI0
aI2695230
aS'_4518529288'
p14
aa(lp15
I1
aI0
aI0
aI0
aI1
aI0
aI0
aI0
aI1
aI0
aI0
aI1
aI1
aI1
aI0
aI0
aI2793570
aS'_4518529288'
p16
aaaa(lp17
S'_4518530584'
p18
a(lp19
(lp20
I1
aI0
aI0
aI0
aI0
aI1
aI1
aI0
aI1
aI1
aI0
aI0
aI1
aI0
aI1
aI0
aI4332230
ag18
aa(lp21
I1
aI0
aI0
aI0
aI0
aI0
aI1
aI1
aI1
aI1
aI0
aI0
aI1
aI0
aI1
aI0
aI3808399
aS'_4518530584'
p22
aa(lp23
I1
aI1
aI0
aI1
aI0
aI1
aI1
aI0
aI1
aI1
aI0
aI0
aI1
aI1
aI0
aI0
aI2864300
aS'_4518530584'
p24
aa(lp25
I1
aI1
aI0
aI0
aI1
aI1
aI0
aI1
aI1
aI1
aI0
aI0
aI1
aI0
aI0
aI1
aI7806570
aS'_4518530584'
p26
aa(lp27
I1
aI0
aI0
aI1
aI1
aI1
aI1
aI1
aI1
aI1
aI0
aI0
aI1
aI1
aI0
aI0
aI3102900
aS'_4518530584'
p28
aa(lp29
I1
aI1
aI1
aI0
aI1
aI1
aI1
aI0
aI1
aI1
aI0
aI0
aI1
aI0
aI0
aI1
aI6454470
aS'_4518530584'
p30
aa(lp31
I1
aI1
aI0
aI1
aI0
aI1
aI1
aI0
aI1
aI1
aI0
aI0
aI1
aI0
aI0
aI1
aI5617900
aS'_4518530584'
p32
aaaa(lp33
S'_4518528424'
p34
a(lp35
(lp36
I1
aI0
aI0
aI1
aI1
aI0
aI0
aI0
aI1
aI0
aI0
aI1
aI1
aI0
aI0
aI1
aI7455970
ag34
aa(lp37
I1
aI0
aI0
aI0
aI1
aI1
aI1
aI0
aI1
aI0
aI0
aI1
aI1
aI0
aI0
aI1
aI6726000
aS'_4518528424'
p38
aa(lp39
I1
aI0
aI0
aI0
aI1
aI0
aI0
aI0
aI1
aI0
aI0
aI1
aI1
aI0
aI0
aI1
aI7424630
aS'_4518528424'
p40
aa(lp41
I1
aI0
aI1
aI0
aI1
aI0
aI1
aI0
aI1
aI0
aI0
aI1
aI1
aI0
aI0
aI1
aI6293370
aS'_4518528424'
p42
aa(lp43
I1
aI0
aI1
aI1
aI1
aI1
aI1
aI0
aI1
aI1
aI0
aI0
aI1
aI0
aI0
aI1
aI6652230
aS'_4518528424'
p44
aa(lp45
I1
aI0
aI0
aI0
aI0
aI0
aI1
aI0
aI1
aI0
aI1
aI0
aI1
aI1
aI0
aI0
aI2706600
aS'_4518528424'
p46
aa(lp47
I1
aI0
aI0
aI0
aI0
aI0
aI0
aI0
aI1
aI0
aI1
aI0
aI1
aI0
aI1
aI0
aI4446000
aS'_4518528424'
p48
aa(lp49
I1
aI0
aI1
aI0
aI1
aI0
aI0
aI0
aI1
aI0
aI1
aI0
aI1
aI0
aI0
aI1
aI7313529
aS'_4518528424'
p50
aaaa(lp51
S'_4518527776'
p52
a(lp53
(lp54
I1
aI0
aI1
aI0
aI1
aI1
aI0
aI0
aI1
aI0
aI1
aI0
aI1
aI0
aI0
aI1
aI8072730
ag52
aa(lp55
I1
aI0
aI1
aI0
aI0
aI1
aI0
aI0
aI1
aI0
aI1
aI0
aI1
aI0
aI0
aI1
aI7129170
aS'_4518527776'
p56
aa(lp57
I1
aI0
aI1
aI1
aI0
aI1
aI1
aI0
aI1
aI0
aI1
aI0
aI1
aI0
aI0
aI1
aI5757000
aS'_4518527776'
p58
aa(lp59
I1
aI0
aI0
aI0
aI0
aI0
aI0
aI0
aI1
aI0
aI1
aI0
aI1
aI0
aI0
aI1
aI6129700
aS'_4518527776'
p60
aa(lp61
I1
aI0
aI0
aI1
aI0
aI0
aI0
aI0
aI1
aI1
aI0
aI0
aI1
aI1
aI0
aI0
aI2680170
aS'_4518527776'
p62
aa(lp63
I1
aI0
aI0
aI1
aI0
aI1
aI1
aI0
aI1
aI0
aI1
aI0
aI1
aI0
aI0
aI1
aI5805430
aS'_4518527776'
p64
aa(lp65
I1
aI0
aI0
aI0
aI0
aI1
aI0
aI1
aI1
aI0
aI1
aI0
aI1
aI0
aI0
aI1
aI7220370
aS'_4518527776'
p66
aa(lp67
I1
aI0
aI0
aI1
aI1
aI1
aI0
aI0
aI1
aI0
aI1
aI0
aI1
aI0
aI1
aI0
aI5736300
aS'_4518527776'
p68
aaaa(lp69
S'_4518528928'
p70
a(lp71
(lp72
I1
aI1
aI0
aI1
aI1
aI0
aI1
aI1
aI1
aI0
aI0
aI1
aI1
aI0
aI1
aI0
aI4339270
ag70
aa(lp73
I1
aI0
aI0
aI0
aI1
aI0
aI1
aI1
aI1
aI0
aI0
aI1
aI1
aI0
aI1
aI0
aI4501300
aS'_4518528928'
p74
aa(lp75
I1
aI0
aI0
aI0
aI1
aI0
aI1
aI0
aI1
aI0
aI0
aI1
aI1
aI0
aI1
aI0
aI4501570
aS'_4518528928'
p76
aa(lp77
I1
aI1
aI0
aI0
aI1
aI0
aI0
aI0
aI1
aI0
aI0
aI1
aI1
aI0
aI1
aI0
aI4945970
aS'_4518528928'
p78
aa(lp79
I1
aI0
aI0
aI1
aI1
aI1
aI1
aI0
aI1
aI1
aI0
aI0
aI1
aI1
aI0
aI0
aI3101530
aS'_4518528928'
p80
aa(lp81
I1
aI0
aI0
aI1
aI1
aI0
aI1
aI0
aI1
aI0
aI1
aI0
aI1
aI0
aI1
aI0
aI4485300
aS'_4518528928'
p82
aa(lp83
I1
aI1
aI0
aI0
aI1
aI0
aI1
aI0
aI1
aI1
aI0
aI0
aI1
aI0
aI0
aI1
aI6153370
aS'_4518528928'
p84
aaaa(lp85
S'_4518530152'
p86
a(lp87
(lp88
I1
aI0
aI1
aI0
aI0
aI1
aI1
aI1
aI1
aI0
aI1
aI0
aI1
aI0
aI1
aI0
aI4280730
ag86
aa(lp89
I1
aI1
aI1
aI1
aI1
aI0
aI1
aI1
aI1
aI0
aI1
aI0
aI1
aI0
aI1
aI0
aI4270600
aS'_4518530152'
p90
aa(lp91
I1
aI1
aI1
aI0
aI0
aI0
aI1
aI1
aI1
aI0
aI1
aI0
aI1
aI0
aI1
aI0
aI3643470
aS'_4518530152'
p92
aa(lp93
I1
aI0
aI1
aI0
aI0
aI0
aI0
aI1
aI1
aI1
aI0
aI0
aI1
aI0
aI1
aI0
aI4359770
aS'_4518530152'
p94
aa(lp95
I1
aI0
aI1
aI1
aI1
aI0
aI1
aI1
aI1
aI0
aI0
aI1
aI1
aI0
aI1
aI0
aI4452130
aS'_4518530152'
p96
aa(lp97
I1
aI1
aI1
aI1
aI1
aI0
aI1
aI0
aI1
aI0
aI1
aI0
aI1
aI0
aI1
aI0
aI4272430
aS'_4518530152'
p98
aa(lp99
I1
aI1
aI0
aI0
aI0
aI0
aI0
aI1
aI1
aI0
aI1
aI0
aI1
aI0
aI1
aI0
aI4248200
aS'_4518530152'
p100
aa(lp101
I1
aI0
aI1
aI0
aI1
aI0
aI0
aI1
aI1
aI0
aI1
aI0
aI1
aI0
aI1
aI0
aI5073900
aS'_4518530152'
p102
aaaa(lp103
S'_4518530008'
p104
a(lp105
(lp106
I1
aI1
aI0
aI1
aI0
aI1
aI1
aI1
aI1
aI0
aI0
aI1
aI1
aI0
aI0
aI1
aI5613330
ag104
aa(lp107
I1
aI1
aI0
aI0
aI0
aI1
aI1
aI0
aI1
aI0
aI0
aI1
aI1
aI0
aI0
aI1
aI5618470
aS'_4518530008'
p108
aa(lp109
I1
aI1
aI1
aI1
aI0
aI1
aI1
aI0
aI1
aI0
aI0
aI1
aI1
aI0
aI0
aI1
aI5556330
aS'_4518530008'
p110
aa(lp111
I1
aI0
aI1
aI1
aI1
aI1
aI0
aI1
aI1
aI0
aI0
aI1
aI1
aI0
aI0
aI1
aI8095300
aS'_4518530008'
p112
aa(lp113
I1
aI1
aI0
aI1
aI1
aI1
aI1
aI1
aI1
aI0
aI0
aI1
aI1
aI1
aI0
aI0
aI2912370
aS'_4518530008'
p114
aa(lp115
I1
aI1
aI0
aI1
aI0
aI1
aI1
aI0
aI1
aI0
aI0
aI1
aI1
aI1
aI0
aI0
aI2864700
aS'_4518530008'
p116
aa(lp117
I1
aI0
aI0
aI1
aI0
aI1
aI1
aI1
aI1
aI0
aI1
aI0
aI1
aI0
aI0
aI1
aI5805770
aS'_4518530008'
p118
aaaa(lp119
S'_4518528136'
p120
a(lp121
(lp122
I1
aI1
aI1
aI1
aI1
aI1
aI0
aI1
aI1
aI0
aI0
aI1
aI1
aI1
aI0
aI0
aI2792170
ag120
aa(lp123
I1
aI0
aI0
aI1
aI1
aI1
aI0
aI1
aI1
aI0
aI0
aI1
aI1
aI1
aI0
aI0
aI3103270
aS'_4518528136'
p124
aa(lp125
I1
aI1
aI0
aI1
aI0
aI1
aI0
aI1
aI1
aI0
aI1
aI0
aI1
aI0
aI0
aI1
aI6902170
aS'_4518528136'
p126
aa(lp127
I1
aI0
aI0
aI1
aI0
aI1
aI0
aI0
aI1
aI1
aI0
aI0
aI1
aI1
aI0
aI0
aI3049000
aS'_4518528136'
p128
aa(lp129
I1
aI1
aI0
aI0
aI1
aI1
aI0
aI1
aI1
aI0
aI1
aI0
aI1
aI0
aI0
aI1
aI7807569
aS'_4518528136'
p130
aa(lp131
I1
aI1
aI1
aI1
aI1
aI1
aI0
aI0
aI1
aI1
aI0
aI0
aI1
aI0
aI0
aI1
aI7758529
aS'_4518528136'
p132
aa(lp133
I1
aI1
aI0
aI1
aI1
aI0
aI0
aI0
aI1
aI0
aI1
aI0
aI1
aI0
aI1
aI0
aI4951000
aS'_4518528136'
p134
aaaa(lp135
S'_4518528208'
p136
a(lp137
(lp138
I1
aI1
aI1
aI1
aI0
aI1
aI0
aI1
aI1
aI1
aI0
aI0
aI1
aI0
aI0
aI1
aI6834200
ag136
aa(lp139
I1
aI1
aI1
aI0
aI0
aI1
aI0
aI1
aI1
aI1
aI0
aI0
aI1
aI0
aI0
aI1
aI6806170
aS'_4518528208'
p140
aa(lp141
I1
aI1
aI1
aI0
aI0
aI0
aI0
aI1
aI1
aI1
aI0
aI0
aI1
aI0
aI0
aI1
aI5790230
aS'_4518528208'
p142
aa(lp143
I1
aI1
aI1
aI0
aI0
aI1
aI1
aI0
aI1
aI0
aI1
aI0
aI1
aI0
aI0
aI1
aI5565130
aS'_4518528208'
p144
aa(lp145
I1
aI1
aI1
aI0
aI0
aI1
aI1
aI0
aI1
aI1
aI0
aI0
aI1
aI1
aI0
aI0
aI2759930
aS'_4518528208'
p146
aa(lp147
I1
aI1
aI1
aI1
aI0
aI1
aI0
aI0
aI1
aI0
aI0
aI1
aI1
aI0
aI1
aI0
aI4869730
aS'_4518528208'
p148
aa(lp149
I1
aI1
aI1
aI0
aI0
aI1
aI1
aI0
aI1
aI1
aI0
aI0
aI1
aI0
aI1
aI0
aI4088399
aS'_4518528208'
p150
aaaa(lp151
S'_4518530368'
p152
a(lp153
(lp154
I1
aI1
aI1
aI0
aI0
aI1
aI1
aI1
aI1
aI1
aI0
aI0
aI1
aI0
aI1
aI0
aI4086270
ag152
aa(lp155
I1
aI0
aI1
aI1
aI0
aI1
aI1
aI1
aI1
aI0
aI0
aI1
aI1
aI1
aI0
aI0
aI2954100
aS'_4518530368'
p156
aa(lp157
I1
aI1
aI0
aI1
aI1
aI1
aI1
aI0
aI1
aI1
aI0
aI0
aI1
aI0
aI1
aI0
aI4626270
aS'_4518530368'
p158
aa(lp159
I1
aI0
aI1
aI0
aI0
aI1
aI0
aI0
aI1
aI0
aI0
aI1
aI1
aI0
aI1
aI0
aI5113730
aS'_4518530368'
p160
aa(lp161
I1
aI1
aI1
aI0
aI0
aI1
aI1
aI1
aI1
aI0
aI0
aI1
aI1
aI1
aI0
aI0
aI2760730
aS'_4518530368'
p162
aa(lp163
I1
aI1
aI0
aI0
aI0
aI1
aI1
aI0
aI1
aI0
aI0
aI1
aI1
aI1
aI0
aI0
aI2870530
aS'_4518530368'
p164
aa(lp165
I1
aI1
aI0
aI0
aI0
aI0
aI1
aI1
aI1
aI0
aI0
aI1
aI1
aI0
aI1
aI0
aI3705570
aS'_4518530368'
p166
aaaa(lp167
S'_4518527704'
p168
a(lp169
(lp170
I1
aI0
aI1
aI1
aI0
aI0
aI1
aI1
aI1
aI1
aI0
aI0
aI1
aI0
aI1
aI0
aI3775030
ag168
aa(lp171
I1
aI0
aI1
aI0
aI1
aI1
aI1
aI1
aI1
aI1
aI0
aI0
aI1
aI0
aI0
aI1
aI6662500
aS'_4518527704'
p172
aa(lp173
I1
aI0
aI0
aI1
aI0
aI1
aI1
aI1
aI1
aI1
aI0
aI0
aI1
aI0
aI0
aI1
aI5803730
aS'_4518527704'
p174
aa(lp175
I1
aI1
aI0
aI1
aI1
aI0
aI1
aI1
aI1
aI0
aI1
aI0
aI1
aI0
aI1
aI0
aI4327700
aS'_4518527704'
p176
aa(lp177
I1
aI1
aI1
aI0
aI1
aI1
aI0
aI1
aI1
aI1
aI0
aI0
aI1
aI0
aI0
aI1
aI7732770
aS'_4518527704'
p178
aa(lp179
I1
aI1
aI0
aI1
aI0
aI0
aI1
aI1
aI1
aI1
aI0
aI0
aI1
aI0
aI0
aI1
aI4954900
aS'_4518527704'
p180
aa(lp181
I1
aI1
aI1
aI1
aI1
aI1
aI1
aI1
aI1
aI1
aI0
aI0
aI1
aI0
aI0
aI1
aI6439600
aS'_4518527704'
p182
aa(lp183
I1
aI0
aI1
aI1
aI0
aI1
aI1
aI1
aI1
aI0
aI1
aI0
aI1
aI0
aI0
aI1
aI5753970
aS'_4518527704'
p184
aaaa(lp185
S'_4518528784'
p186
a(lp187
(lp188
I1
aI0
aI1
aI1
aI1
aI1
aI0
aI1
aI1
aI1
aI0
aI0
aI1
aI1
aI0
aI0
aI2996470
ag186
aa(lp189
I1
aI1
aI1
aI1
aI1
aI1
aI0
aI1
aI1
aI0
aI1
aI0
aI1
aI1
aI0
aI0
aI2791570
aS'_4518528784'
p190
aa(lp191
I1
aI0
aI0
aI0
aI1
aI1
aI0
aI1
aI1
aI1
aI0
aI0
aI1
aI1
aI0
aI0
aI3105770
aS'_4518528784'
p192
aa(lp193
I1
aI0
aI1
aI1
aI0
aI1
aI0
aI1
aI1
aI0
aI1
aI0
aI1
aI1
aI0
aI0
aI2955030
aS'_4518528784'
p194
aa(lp195
I1
aI0
aI1
aI0
aI0
aI0
aI0
aI1
aI1
aI1
aI0
aI0
aI1
aI1
aI0
aI0
aI2604100
aS'_4518528784'
p196
aa(lp197
I1
aI1
aI1
aI0
aI1
aI1
aI1
aI0
aI1
aI0
aI1
aI0
aI1
aI1
aI0
aI0
aI2797400
aS'_4518528784'
p198
aa(lp199
I1
aI0
aI1
aI0
aI1
aI1
aI1
aI1
aI1
aI0
aI1
aI0
aI1
aI1
aI0
aI0
aI2998399
aS'_4518528784'
p200
aaaa(lp201
S'_4518528856'
p202
a(lp203
(lp204
I1
aI1
aI1
aI1
aI0
aI1
aI1
aI1
aI1
aI1
aI0
aI0
aI1
aI0
aI1
aI0
aI4077570
ag202
aa(lp205
I1
aI1
aI1
aI1
aI0
aI0
aI1
aI1
aI1
aI1
aI0
aI0
aI1
aI0
aI1
aI0
aI3617029
aS'_4518528856'
p206
aa(lp207
I1
aI1
aI1
aI1
aI0
aI1
aI0
aI1
aI1
aI1
aI0
aI0
aI1
aI0
aI1
aI0
aI4868170
aS'_4518528856'
p208
aa(lp209
I1
aI1
aI0
aI0
aI0
aI0
aI0
aI1
aI1
aI1
aI0
aI0
aI1
aI0
aI1
aI0
aI4226470
aS'_4518528856'
p210
aa(lp211
I1
aI0
aI1
aI1
aI0
aI0
aI0
aI0
aI1
aI1
aI0
aI0
aI1
aI0
aI1
aI0
aI4379200
aS'_4518528856'
p212
aa(lp213
I1
aI0
aI1
aI1
aI0
aI0
aI0
aI1
aI1
aI1
aI0
aI0
aI1
aI0
aI1
aI0
aI4374830
aS'_4518528856'
p214
aa(lp215
I1
aI1
aI0
aI1
aI0
aI1
aI0
aI1
aI1
aI0
aI1
aI0
aI1
aI0
aI1
aI0
aI4937100
aS'_4518528856'
p216
aaaa(lp217
S'_4518530944'
p218
a(lp219
(lp220
I1
aI1
aI0
aI0
aI1
aI0
aI0
aI1
aI1
aI0
aI0
aI1
aI1
aI0
aI1
aI0
aI4943200
ag218
aa(lp221
I1
aI0
aI1
aI1
aI1
aI0
aI0
aI0
aI1
aI0
aI0
aI1
aI1
aI0
aI0
aI1
aI7342100
aS'_4518530944'
p222
aa(lp223
I1
aI0
aI1
aI0
aI1
aI0
aI1
aI0
aI1
aI0
aI0
aI1
aI1
aI0
aI1
aI0
aI4466400
aS'_4518530944'
p224
aa(lp225
I1
aI1
aI1
aI1
aI1
aI0
aI1
aI0
aI1
aI0
aI0
aI1
aI1
aI0
aI1
aI0
aI4282630
aS'_4518530944'
p226
aa(lp227
I1
aI0
aI0
aI0
aI0
aI0
aI0
aI0
aI1
aI0
aI0
aI1
aI1
aI0
aI1
aI0
aI4455770
aS'_4518530944'
p228
aa(lp229
I1
aI0
aI0
aI1
aI1
aI0
aI1
aI0
aI1
aI0
aI0
aI1
aI1
aI0
aI1
aI0
aI4493830
aS'_4518530944'
p230
aa(lp231
I1
aI0
aI0
aI1
aI0
aI0
aI1
aI0
aI1
aI0
aI0
aI1
aI1
aI0
aI1
aI0
aI3832600
aS'_4518530944'
p232
aaaa(lp233
S'_4518530656'
p234
a(lp235
(lp236
I1
aI0
aI1
aI1
aI1
aI1
aI1
aI1
aI1
aI0
aI1
aI0
aI1
aI0
aI1
aI0
aI4761270
ag234
aa(lp237
I1
aI0
aI1
aI0
aI0
aI1
aI1
aI1
aI1
aI1
aI0
aI0
aI1
aI0
aI1
aI0
aI4280830
aS'_4518530656'
p238
aa(lp239
I1
aI1
aI1
aI0
aI1
aI1
aI1
aI1
aI1
aI0
aI1
aI0
aI1
aI0
aI0
aI1
aI6453030
aS'_4518530656'
p240
aa(lp241
I1
aI0
aI1
aI0
aI0
aI0
aI1
aI1
aI1
aI0
aI1
aI0
aI1
aI1
aI0
aI0
aI2625299
aS'_4518530656'
p242
aa(lp243
I1
aI0
aI0
aI0
aI1
aI1
aI1
aI0
aI1
aI0
aI1
aI0
aI1
aI0
aI1
aI0
aI4828770
aS'_4518530656'
p244
aa(lp245
I1
aI1
aI0
aI0
aI0
aI0
aI1
aI0
aI1
aI0
aI1
aI0
aI1
aI1
aI0
aI0
aI2568200
aS'_4518530656'
p246
aa(lp247
I1
aI0
aI0
aI0
aI0
aI0
aI1
aI1
aI1
aI0
aI1
aI0
aI1
aI0
aI1
aI0
aI3828830
aS'_4518530656'
p248
aaaa(lp249
S'_4518527344'
p250
a(lp251
(lp252
I1
aI1
aI1
aI1
aI1
aI0
aI0
aI0
aI1
aI0
aI0
aI1
aI1
aI0
aI0
aI1
aI7075970
ag250
aa(lp253
I1
aI1
aI1
aI0
aI1
aI0
aI0
aI0
aI1
aI0
aI1
aI0
aI1
aI0
aI0
aI1
aI7053970
aS'_4518527344'
p254
aa(lp255
I1
aI1
aI1
aI1
aI0
aI0
aI0
aI0
aI1
aI0
aI1
aI0
aI1
aI0
aI0
aI1
aI5835270
aS'_4518527344'
p256
aa(lp257
I1
aI1
aI1
aI1
aI1
aI0
aI0
aI1
aI1
aI0
aI1
aI0
aI1
aI0
aI0
aI1
aI7065900
aS'_4518527344'
p258
aa(lp259
I1
aI1
aI0
aI1
aI0
aI0
aI1
aI0
aI1
aI0
aI1
aI0
aI1
aI0
aI0
aI1
aI4973330
aS'_4518527344'
p260
aa(lp261
I1
aI0
aI1
aI1
aI1
aI0
aI1
aI1
aI1
aI0
aI1
aI0
aI1
aI0
aI0
aI1
aI6272400
aS'_4518527344'
p262
aa(lp263
I1
aI0
aI1
aI1
aI0
aI0
aI0
aI0
aI1
aI0
aI1
aI0
aI1
aI0
aI0
aI1
aI6075370
aS'_4518527344'
p264
aaaa.