(lp0
(lp1
S'_4484129640'
p2
a(lp3
(lp4
I1
aI1
aI0
aI1
aI1
aI0
aI0
aI1
aI0
aI11400000
ag2
aa(lp5
I1
aI1
aI0
aI1
aI0
aI1
aI1
aI0
aI0
aI9000000
aS'_4484129640'
p6
aa(lp7
I1
aI1
aI1
aI1
aI1
aI0
aI0
aI0
aI0
aI22200000
aS'_4484129640'
p8
aa(lp9
I1
aI1
aI0
aI1
aI1
aI0
aI1
aI0
aI0
aI9900000
aS'_4484129640'
p10
aa(lp11
I1
aI1
aI0
aI1
aI1
aI0
aI1
aI0
aI1
aI9900000
aS'_4484129640'
p12
aa(lp13
I1
aI1
aI0
aI1
aI1
aI1
aI0
aI0
aI0
aI9600000
aS'_4484129640'
p14
aa(lp15
I1
aI1
aI1
aI1
aI1
aI0
aI1
aI0
aI1
aI12000000
aS'_4484129640'
p16
aa(lp17
I1
aI0
aI0
aI1
aI1
aI0
aI0
aI0
aI1
aI12000000
aS'_4484129640'
p18
aa(lp19
I1
aI1
aI0
aI1
aI1
aI1
aI1
aI0
aI1
aI8700000
aS'_4484129640'
p20
aaaa(lp21
S'_4484351184'
p22
a(lp23
(lp24
I1
aI1
aI1
aI0
aI1
aI1
aI1
aI1
aI0
aI19200000
ag22
aa(lp25
I1
aI1
aI0
aI0
aI1
aI0
aI1
aI1
aI0
aI10500000
aS'_4484351184'
p26
aa(lp27
I1
aI1
aI0
aI0
aI1
aI1
aI1
aI0
aI0
aI8400000
aS'_4484351184'
p28
aa(lp29
I1
aI0
aI0
aI0
aI1
aI0
aI1
aI0
aI0
aI11400000
aS'_4484351184'
p30
aa(lp31
I1
aI1
aI0
aI0
aI1
aI1
aI0
aI1
aI0
aI10200000
aS'_4484351184'
p32
aa(lp33
I1
aI1
aI1
aI0
aI1
aI1
aI1
aI0
aI0
aI16800000
aS'_4484351184'
p34
aa(lp35
I1
aI1
aI1
aI0
aI1
aI0
aI1
aI0
aI0
aI18900000
aS'_4484351184'
p36
aa(lp37
I1
aI1
aI1
aI0
aI0
aI0
aI1
aI0
aI0
aI18300000
aS'_4484351184'
p38
aa(lp39
I1
aI1
aI1
aI0
aI1
aI0
aI0
aI0
aI0
aI19500000
aS'_4484351184'
p40
aaaa(lp41
S'_4484130288'
p42
a(lp43
(lp44
I1
aI0
aI0
aI1
aI0
aI1
aI1
aI0
aI0
aI10800000
ag42
aa(lp45
I1
aI0
aI0
aI1
aI0
aI1
aI1
aI0
aI1
aI10500000
aS'_4484130288'
p46
aa(lp47
I1
aI0
aI0
aI0
aI0
aI0
aI1
aI0
aI1
aI10800000
aS'_4484130288'
p48
aa(lp49
I1
aI0
aI0
aI1
aI0
aI0
aI0
aI0
aI1
aI12000000
aS'_4484130288'
p50
aa(lp51
I1
aI0
aI0
aI0
aI0
aI0
aI0
aI0
aI0
aI12000000
aS'_4484130288'
p52
aa(lp53
I1
aI0
aI0
aI1
aI1
aI1
aI0
aI0
aI1
aI11400000
aS'_4484130288'
p54
aa(lp55
I1
aI0
aI0
aI0
aI0
aI1
aI0
aI0
aI1
aI10500000
aS'_4484130288'
p56
aa(lp57
I1
aI0
aI0
aI0
aI1
aI0
aI1
aI0
aI1
aI12000000
aS'_4484130288'
p58
aaaa(lp59
S'_4484130072'
p60
a(lp61
(lp62
I1
aI0
aI0
aI0
aI1
aI0
aI0
aI0
aI0
aI12000000
ag60
aa(lp63
I1
aI0
aI0
aI1
aI1
aI0
aI0
aI0
aI0
aI13500000
aS'_4484130072'
p64
aa(lp65
I1
aI0
aI0
aI1
aI0
aI0
aI1
aI0
aI0
aI12300000
aS'_4484130072'
p66
aa(lp67
I1
aI1
aI0
aI0
aI0
aI0
aI0
aI0
aI0
aI9900000
aS'_4484130072'
p68
aa(lp69
I1
aI0
aI0
aI1
aI0
aI0
aI0
aI0
aI0
aI13200000
aS'_4484130072'
p70
aa(lp71
I1
aI0
aI0
aI1
aI1
aI0
aI0
aI1
aI0
aI14700000
aS'_4484130072'
p72
aa(lp73
I1
aI1
aI0
aI0
aI1
aI0
aI0
aI1
aI0
aI11400000
aS'_4484130072'
p74
aa(lp75
I1
aI1
aI1
aI1
aI0
aI0
aI0
aI0
aI0
aI21300000
aS'_4484130072'
p76
aaaa(lp77
S'_4484129784'
p78
a(lp79
(lp80
I1
aI1
aI0
aI0
aI0
aI0
aI1
aI0
aI0
aI9000000
ag78
aa(lp81
I1
aI1
aI0
aI1
aI0
aI0
aI1
aI0
aI0
aI9600000
aS'_4484129784'
p82
aa(lp83
I1
aI1
aI0
aI0
aI1
aI0
aI1
aI0
aI0
aI9300000
aS'_4484129784'
p84
aa(lp85
I1
aI1
aI0
aI1
aI0
aI0
aI1
aI1
aI0
aI10200000
aS'_4484129784'
p86
aa(lp87
I1
aI1
aI0
aI0
aI1
aI0
aI0
aI0
aI0
aI9600000
aS'_4484129784'
p88
aa(lp89
I1
aI1
aI0
aI1
aI1
aI0
aI0
aI0
aI0
aI10800000
aS'_4484129784'
p90
aa(lp91
I1
aI1
aI0
aI0
aI1
aI0
aI0
aI0
aI1
aI10200000
aS'_4484129784'
p92
aa(lp93
I1
aI1
aI0
aI0
aI1
aI0
aI1
aI0
aI1
aI9600000
aS'_4484129784'
p94
aaaa(lp95
S'_4484350824'
p96
a(lp97
(lp98
I1
aI0
aI1
aI1
aI1
aI0
aI0
aI1
aI0
aI26400000
ag96
aa(lp99
I1
aI1
aI1
aI0
aI0
aI1
aI0
aI1
aI0
aI19800000
aS'_4484350824'
p100
aa(lp101
I1
aI1
aI1
aI0
aI0
aI0
aI1
aI1
aI0
aI21600000
aS'_4484350824'
p102
aa(lp103
I1
aI0
aI0
aI1
aI1
aI0
aI1
aI1
aI0
aI13800000
aS'_4484350824'
p104
aa(lp105
I1
aI0
aI0
aI1
aI1
aI0
aI1
aI0
aI0
aI11700000
aS'_4484350824'
p106
aa(lp107
I1
aI0
aI1
aI0
aI1
aI0
aI1
aI0
aI0
aI19500000
aS'_4484350824'
p108
aa(lp109
I1
aI1
aI1
aI1
aI1
aI0
aI0
aI1
aI0
aI23400000
aS'_4484350824'
p110
aa(lp111
I1
aI0
aI1
aI0
aI1
aI1
aI1
aI1
aI0
aI21000000
aS'_4484350824'
p112
aa(lp113
I1
aI1
aI1
aI1
aI1
aI1
aI1
aI1
aI0
aI18600000
aS'_4484350824'
p114
aaaa(lp115
S'_4484353992'
p116
a(lp117
(lp118
I1
aI0
aI1
aI1
aI1
aI1
aI0
aI0
aI0
aI20400000
ag116
aa(lp119
I1
aI0
aI1
aI0
aI1
aI1
aI1
aI0
aI0
aI17400000
aS'_4484353992'
p120
aa(lp121
I1
aI0
aI1
aI1
aI1
aI0
aI1
aI0
aI1
aI11100000
aS'_4484353992'
p122
aa(lp123
I1
aI0
aI1
aI1
aI0
aI1
aI1
aI0
aI1
aI12300000
aS'_4484353992'
p124
aa(lp125
I1
aI0
aI1
aI0
aI1
aI0
aI1
aI0
aI1
aI11100000
aS'_4484353992'
p126
aa(lp127
I1
aI0
aI1
aI0
aI0
aI0
aI1
aI0
aI1
aI13500000
aS'_4484353992'
p128
aa(lp129
I1
aI1
aI1
aI0
aI1
aI1
aI1
aI0
aI1
aI15000000
aS'_4484353992'
p130
aa(lp131
I1
aI0
aI1
aI0
aI1
aI0
aI0
aI0
aI1
aI13800000
aS'_4484353992'
p132
aa(lp133
I1
aI1
aI1
aI0
aI1
aI1
aI0
aI0
aI1
aI10800000
aS'_4484353992'
p134
aaaa(lp135
S'_4484129712'
p136
a(lp137
(lp138
I1
aI0
aI1
aI1
aI0
aI0
aI0
aI1
aI0
aI24600000
ag136
aa(lp139
I1
aI1
aI0
aI0
aI0
aI0
aI1
aI1
aI0
aI10200000
aS'_4484129712'
p140
aa(lp141
I1
aI1
aI1
aI0
aI0
aI0
aI0
aI1
aI0
aI22800000
aS'_4484129712'
p142
aa(lp143
I1
aI0
aI0
aI1
aI0
aI0
aI0
aI1
aI0
aI14100000
aS'_4484129712'
p144
aa(lp145
I1
aI1
aI0
aI0
aI0
aI0
aI0
aI1
aI0
aI11100000
aS'_4484129712'
p146
aa(lp147
I1
aI1
aI0
aI1
aI0
aI0
aI0
aI0
aI0
aI10500000
aS'_4484129712'
p148
aa(lp149
I1
aI1
aI1
aI1
aI0
aI0
aI1
aI0
aI0
aI20100000
aS'_4484129712'
p150
aa(lp151
I1
aI1
aI1
aI1
aI0
aI0
aI0
aI1
aI0
aI21600000
aS'_4484129712'
p152
aa(lp153
I1
aI1
aI0
aI1
aI0
aI1
aI0
aI1
aI0
aI9900000
aS'_4484129712'
p154
aaaa(lp155
S'_4484353920'
p156
a(lp157
(lp158
I1
aI0
aI0
aI0
aI0
aI0
aI0
aI1
aI0
aI14100000
ag156
aa(lp159
I1
aI0
aI0
aI0
aI0
aI1
aI0
aI1
aI0
aI12600000
aS'_4484353920'
p160
aa(lp161
I1
aI0
aI0
aI0
aI1
aI0
aI0
aI1
aI0
aI14100000
aS'_4484353920'
p162
aa(lp163
I1
aI0
aI1
aI0
aI0
aI0
aI0
aI1
aI0
aI24900000
aS'_4484353920'
p164
aa(lp165
I1
aI0
aI1
aI0
aI1
aI0
aI0
aI1
aI0
aI24000000
aS'_4484353920'
p166
aa(lp167
I1
aI0
aI0
aI0
aI1
aI0
aI1
aI1
aI0
aI13800000
aS'_4484353920'
p168
aa(lp169
I1
aI0
aI1
aI0
aI1
aI0
aI0
aI0
aI0
aI21000000
aS'_4484353920'
p170
aa(lp171
I1
aI0
aI1
aI0
aI1
aI1
aI0
aI1
aI0
aI21900000
aS'_4484353920'
p172
aaaa(lp173
S'_4484350680'
p174
a(lp175
(lp176
I1
aI0
aI1
aI0
aI1
aI1
aI0
aI0
aI1
aI13500000
ag174
aa(lp177
I1
aI0
aI1
aI0
aI0
aI1
aI0
aI0
aI0
aI17700000
aS'_4484350680'
p178
aa(lp179
I1
aI0
aI0
aI1
aI0
aI1
aI1
aI1
aI0
aI11400000
aS'_4484350680'
p180
aa(lp181
I1
aI0
aI1
aI0
aI0
aI1
aI1
aI1
aI0
aI19800000
aS'_4484350680'
p182
aa(lp183
I1
aI0
aI1
aI0
aI0
aI0
aI1
aI0
aI0
aI19200000
aS'_4484350680'
p184
aa(lp185
I1
aI0
aI0
aI0
aI0
aI1
aI1
aI1
aI0
aI11400000
aS'_4484350680'
p186
aa(lp187
I1
aI0
aI0
aI0
aI0
aI1
aI0
aI0
aI0
aI10800000
aS'_4484350680'
p188
aa(lp189
I1
aI0
aI1
aI0
aI0
aI1
aI1
aI0
aI0
aI16800000
aS'_4484350680'
p190
aa(lp191
I1
aI0
aI0
aI0
aI0
aI1
aI1
aI0
aI0
aI10200000
aS'_4484350680'
p192
aaaa(lp193
S'_4484351112'
p194
a(lp195
(lp196
I1
aI0
aI0
aI0
aI1
aI1
aI1
aI1
aI0
aI12300000
ag194
aa(lp197
I1
aI1
aI0
aI0
aI1
aI1
aI1
aI1
aI0
aI9600000
aS'_4484351112'
p198
aa(lp199
I1
aI0
aI0
aI0
aI1
aI1
aI1
aI0
aI0
aI9900000
aS'_4484351112'
p200
aa(lp201
I1
aI0
aI0
aI0
aI1
aI1
aI0
aI1
aI0
aI13200000
aS'_4484351112'
p202
aa(lp203
I1
aI1
aI0
aI1
aI1
aI1
aI1
aI1
aI0
aI9900000
aS'_4484351112'
p204
aa(lp205
I1
aI1
aI0
aI0
aI0
aI1
aI1
aI1
aI0
aI9300000
aS'_4484351112'
p206
aa(lp207
I1
aI1
aI0
aI0
aI1
aI1
aI1
aI0
aI1
aI9000000
aS'_4484351112'
p208
aa(lp209
I1
aI1
aI0
aI0
aI0
aI1
aI0
aI1
aI0
aI10200000
aS'_4484351112'
p210
aaaa(lp211
S'_4484129136'
p212
a(lp213
(lp214
I1
aI0
aI1
aI0
aI0
aI1
aI0
aI0
aI1
aI12300000
ag212
aa(lp215
I1
aI1
aI1
aI1
aI0
aI1
aI0
aI0
aI1
aI10800000
aS'_4484129136'
p216
aa(lp217
I1
aI0
aI0
aI1
aI0
aI1
aI0
aI0
aI1
aI11100000
aS'_4484129136'
p218
aa(lp219
I1
aI0
aI1
aI1
aI0
aI1
aI0
aI0
aI1
aI10200000
aS'_4484129136'
p220
aa(lp221
I1
aI1
aI1
aI1
aI1
aI1
aI0
aI0
aI1
aI11700000
aS'_4484129136'
p222
aa(lp223
I1
aI1
aI1
aI1
aI0
aI0
aI0
aI0
aI1
aI11700000
aS'_4484129136'
p224
aa(lp225
I1
aI0
aI1
aI0
aI0
aI0
aI0
aI0
aI0
aI20400000
aS'_4484129136'
p226
aa(lp227
I1
aI0
aI1
aI1
aI1
aI0
aI0
aI0
aI0
aI23700000
aS'_4484129136'
p228
aaaa(lp229
S'_4484129208'
p230
a(lp231
(lp232
I1
aI1
aI0
aI0
aI0
aI1
aI1
aI0
aI0
aI8400000
ag230
aa(lp233
I1
aI1
aI0
aI0
aI0
aI1
aI0
aI0
aI0
aI9000000
aS'_4484129208'
p234
aa(lp235
I1
aI1
aI1
aI0
aI0
aI1
aI0
aI0
aI0
aI17100000
aS'_4484129208'
p236
aa(lp237
I1
aI1
aI1
aI0
aI0
aI1
aI0
aI0
aI1
aI12000000
aS'_4484129208'
p238
aa(lp239
I1
aI1
aI0
aI1
aI0
aI1
aI0
aI0
aI1
aI9300000
aS'_4484129208'
p240
aa(lp241
I1
aI0
aI0
aI1
aI0
aI1
aI0
aI0
aI0
aI11700000
aS'_4484129208'
p242
aa(lp243
I1
aI1
aI1
aI1
aI0
aI1
aI0
aI0
aI0
aI18900000
aS'_4484129208'
p244
aa(lp245
I1
aI1
aI0
aI1
aI0
aI0
aI0
aI0
aI1
aI9900000
aS'_4484129208'
p246
aaaa(lp247
S'_4484350752'
p248
a(lp249
(lp250
I1
aI0
aI0
aI1
aI1
aI1
aI1
aI1
aI0
aI12300000
ag248
aa(lp251
I1
aI0
aI0
aI1
aI1
aI1
aI1
aI0
aI0
aI11100000
aS'_4484350752'
p252
aa(lp253
I1
aI0
aI1
aI1
aI1
aI1
aI1
aI1
aI0
aI20700000
aS'_4484350752'
p254
aa(lp255
I1
aI0
aI1
aI1
aI1
aI1
aI1
aI0
aI0
aI18900000
aS'_4484350752'
p256
aa(lp257
I1
aI1
aI0
aI1
aI1
aI1
aI1
aI0
aI0
aI9000000
aS'_4484350752'
p258
aa(lp259
I1
aI0
aI0
aI1
aI1
aI1
aI0
aI0
aI0
aI12000000
aS'_4484350752'
p260
aa(lp261
I1
aI0
aI0
aI0
aI1
aI1
aI1
aI0
aI1
aI10500000
aS'_4484350752'
p262
aa(lp263
I1
aI0
aI1
aI1
aI1
aI1
aI1
aI0
aI1
aI11700000
aS'_4484350752'
p264
aaaa(lp265
S'_4484129496'
p266
a(lp267
(lp268
I1
aI0
aI0
aI0
aI1
aI1
aI0
aI0
aI1
aI12000000
ag266
aa(lp269
I1
aI1
aI1
aI0
aI0
aI1
aI1
aI0
aI1
aI11400000
aS'_4484129496'
p270
aa(lp271
I1
aI1
aI1
aI1
aI0
aI0
aI1
aI0
aI1
aI11700000
aS'_4484129496'
p272
aa(lp273
I1
aI0
aI0
aI0
aI1
aI0
aI0
aI0
aI1
aI12600000
aS'_4484129496'
p274
aa(lp275
I1
aI0
aI1
aI0
aI0
aI0
aI0
aI0
aI1
aI12000000
aS'_4484129496'
p276
aa(lp277
I1
aI1
aI0
aI0
aI0
aI0
aI0
aI0
aI1
aI9900000
aS'_4484129496'
p278
aa(lp279
I1
aI1
aI0
aI0
aI1
aI1
aI0
aI0
aI1
aI9300000
aS'_4484129496'
p280
aa(lp281
I1
aI1
aI1
aI0
aI0
aI0
aI0
aI0
aI1
aI11400000
aS'_4484129496'
p282
aa(lp283
I1
aI1
aI1
aI0
aI1
aI0
aI0
aI0
aI1
aI13200000
aS'_4484129496'
p284
aaaa(lp285
S'_4484350464'
p286
a(lp287
(lp288
I1
aI1
aI1
aI1
aI0
aI1
aI0
aI1
aI0
aI18900000
ag286
aa(lp289
I1
aI1
aI1
aI1
aI0
aI1
aI1
aI1
aI0
aI18600000
aS'_4484350464'
p290
aa(lp291
I1
aI0
aI1
aI1
aI1
aI1
aI0
aI1
aI0
aI21900000
aS'_4484350464'
p292
aa(lp293
I1
aI0
aI1
aI0
aI0
aI1
aI0
aI1
aI0
aI21300000
aS'_4484350464'
p294
aa(lp295
I1
aI0
aI1
aI1
aI0
aI1
aI1
aI1
aI0
aI19800000
aS'_4484350464'
p296
aa(lp297
I1
aI0
aI1
aI0
aI0
aI0
aI1
aI1
aI0
aI22500000
aS'_4484350464'
p298
aa(lp299
I1
aI0
aI1
aI0
aI1
aI1
aI0
aI0
aI0
aI18300000
aS'_4484350464'
p300
aa(lp301
I1
aI1
aI1
aI0
aI0
aI1
aI1
aI0
aI0
aI16200000
aS'_4484350464'
p302
aaaa.