(lp0
(lp1
S'_4444936960'
p2
a(lp3
(lp4
I1
aI0
aI0
aI1
aI0
aI1
aI0
aI0
aI0
aI1
aI0
aI2095833
ag2
aa(lp5
I1
aI0
aI1
aI1
aI1
aI1
aI1
aI0
aI0
aI0
aI0
aI2245066
aS'_4444936960'
p6
aa(lp7
I1
aI0
aI1
aI0
aI0
aI1
aI1
aI1
aI1
aI0
aI0
aI2212600
aS'_4444936960'
p8
aa(lp9
I1
aI0
aI0
aI1
aI1
aI1
aI1
aI0
aI1
aI0
aI0
aI2134066
aS'_4444936960'
p10
aa(lp11
I1
aI0
aI1
aI0
aI1
aI1
aI1
aI1
aI1
aI1
aI0
aI2329600
aS'_4444936960'
p12
aa(lp13
I1
aI1
aI0
aI0
aI1
aI1
aI0
aI0
aI0
aI1
aI0
aI2230133
aS'_4444936960'
p14
aa(lp15
I1
aI0
aI0
aI1
aI1
aI1
aI1
aI1
aI0
aI1
aI0
aI2140500
aS'_4444936960'
p16
aa(lp17
I1
aI0
aI1
aI1
aI1
aI1
aI1
aI1
aI0
aI0
aI0
aI2226266
aS'_4444936960'
p18
aa(lp19
I1
aI0
aI0
aI1
aI0
aI1
aI0
aI1
aI0
aI0
aI0
aI2148866
aS'_4444936960'
p20
aa(lp21
I1
aI0
aI1
aI0
aI1
aI1
aI0
aI0
aI0
aI0
aI0
aI2332766
aS'_4444936960'
p22
aa(lp23
I1
aI0
aI0
aI0
aI1
aI1
aI0
aI1
aI1
aI1
aI0
aI2062266
aS'_4444936960'
p24
aa(lp25
I1
aI0
aI0
aI1
aI1
aI1
aI0
aI1
aI0
aI0
aI0
aI2127133
aS'_4444936960'
p26
aa(lp27
I1
aI0
aI0
aI0
aI1
aI1
aI0
aI1
aI0
aI0
aI0
aI2029366
aS'_4444936960'
p28
aaaa(lp29
S'_4519143184'
p30
a(lp31
(lp32
I1
aI1
aI0
aI1
aI0
aI1
aI1
aI1
aI1
aI0
aI1
aI2500400
ag30
aa(lp33
I1
aI0
aI0
aI0
aI0
aI1
aI1
aI1
aI0
aI0
aI0
aI2031900
aS'_4519143184'
p34
aa(lp35
I1
aI1
aI1
aI1
aI0
aI1
aI1
aI1
aI0
aI0
aI0
aI2526833
aS'_4519143184'
p36
aa(lp37
I1
aI1
aI0
aI1
aI1
aI1
aI1
aI1
aI0
aI0
aI1
aI2382733
aS'_4519143184'
p38
aa(lp39
I1
aI1
aI1
aI1
aI0
aI1
aI1
aI1
aI0
aI0
aI1
aI2649266
aS'_4519143184'
p40
aa(lp41
I1
aI1
aI0
aI0
aI0
aI0
aI1
aI1
aI1
aI0
aI1
aI2340533
aS'_4519143184'
p42
aa(lp43
I1
aI0
aI0
aI0
aI0
aI1
aI0
aI0
aI0
aI0
aI1
aI2194966
aS'_4519143184'
p44
aa(lp45
I1
aI0
aI0
aI1
aI0
aI0
aI0
aI1
aI0
aI0
aI0
aI2131833
aS'_4519143184'
p46
aa(lp47
I1
aI0
aI1
aI1
aI0
aI0
aI1
aI1
aI0
aI0
aI0
aI2327600
aS'_4519143184'
p48
aa(lp49
I1
aI1
aI0
aI0
aI0
aI0
aI1
aI0
aI0
aI0
aI1
aI2371333
aS'_4519143184'
p50
aa(lp51
I1
aI0
aI0
aI0
aI1
aI0
aI1
aI1
aI1
aI0
aI1
aI2180366
aS'_4519143184'
p52
aa(lp53
I1
aI0
aI0
aI0
aI0
aI1
aI1
aI1
aI0
aI1
aI1
aI2162700
aS'_4519143184'
p54
aa(lp55
I1
aI1
aI0
aI1
aI0
aI0
aI1
aI1
aI0
aI1
aI0
aI2334333
aS'_4519143184'
p56
aaaa(lp57
S'_4519144264'
p58
a(lp59
(lp60
I1
aI0
aI1
aI0
aI0
aI0
aI1
aI0
aI1
aI1
aI1
aI2360600
ag58
aa(lp61
I1
aI1
aI1
aI1
aI1
aI0
aI1
aI0
aI1
aI0
aI1
aI2622200
aS'_4519144264'
p62
aa(lp63
I1
aI0
aI0
aI1
aI0
aI1
aI1
aI0
aI1
aI1
aI1
aI2654000
aS'_4519144264'
p64
aa(lp65
I1
aI0
aI0
aI0
aI0
aI0
aI1
aI0
aI1
aI1
aI0
aI2051300
aS'_4519144264'
p66
aa(lp67
I1
aI1
aI1
aI0
aI0
aI0
aI1
aI0
aI1
aI1
aI1
aI2508666
aS'_4519144264'
p68
aa(lp69
I1
aI1
aI0
aI0
aI1
aI0
aI1
aI1
aI1
aI0
aI0
aI2301333
aS'_4519144264'
p70
aa(lp71
I1
aI1
aI1
aI0
aI0
aI0
aI1
aI0
aI0
aI0
aI0
aI2445000
aS'_4519144264'
p72
aa(lp73
I1
aI1
aI0
aI1
aI0
aI0
aI1
aI0
aI1
aI1
aI1
aI2487833
aS'_4519144264'
p74
aa(lp75
I1
aI1
aI0
aI0
aI0
aI0
aI1
aI0
aI0
aI1
aI0
aI2212500
aS'_4519144264'
p76
aa(lp77
I1
aI1
aI0
aI0
aI0
aI0
aI1
aI1
aI1
aI1
aI0
aI2297900
aS'_4519144264'
p78
aa(lp79
I1
aI1
aI0
aI1
aI0
aI0
aI1
aI0
aI0
aI1
aI0
aI2328600
aS'_4519144264'
p80
aa(lp81
I1
aI1
aI1
aI1
aI0
aI0
aI1
aI0
aI0
aI1
aI0
aI2470766
aS'_4519144264'
p82
aa(lp83
I1
aI1
aI0
aI1
aI0
aI0
aI1
aI1
aI1
aI1
aI0
aI2409933
aS'_4519144264'
p84
aaaa(lp85
S'_4519144048'
p86
a(lp87
(lp88
I1
aI1
aI0
aI0
aI0
aI0
aI0
aI1
aI1
aI1
aI0
aI2256200
ag86
aa(lp89
I1
aI1
aI0
aI0
aI0
aI0
aI0
aI0
aI0
aI1
aI0
aI2191533
aS'_4519144048'
p90
aa(lp91
I1
aI1
aI0
aI0
aI0
aI0
aI0
aI0
aI1
aI1
aI1
aI2321800
aS'_4519144048'
p92
aa(lp93
I1
aI1
aI0
aI0
aI1
aI0
aI0
aI1
aI1
aI1
aI1
aI2353133
aS'_4519144048'
p94
aa(lp95
I1
aI0
aI0
aI0
aI0
aI1
aI1
aI1
aI0
aI1
aI0
aI2031900
aS'_4519144048'
p96
aa(lp97
I1
aI1
aI1
aI0
aI0
aI0
aI0
aI0
aI1
aI1
aI1
aI2486900
aS'_4519144048'
p98
aa(lp99
I1
aI1
aI0
aI0
aI0
aI1
aI1
aI1
aI1
aI1
aI1
aI2388233
aS'_4519144048'
p100
aa(lp101
I1
aI1
aI0
aI0
aI1
aI0
aI0
aI0
aI0
aI1
aI0
aI2216066
aS'_4519144048'
p102
aa(lp103
I1
aI1
aI0
aI0
aI1
aI1
aI0
aI1
aI0
aI1
aI1
aI2355733
aS'_4519144048'
p104
aa(lp105
I1
aI1
aI0
aI1
aI1
aI0
aI1
aI1
aI0
aI1
aI0
aI2350300
aS'_4519144048'
p106
aa(lp107
I1
aI1
aI0
aI0
aI0
aI1
aI1
aI1
aI0
aI0
aI0
aI2274433
aS'_4519144048'
p108
aa(lp109
I1
aI1
aI0
aI0
aI0
aI1
aI1
aI0
aI0
aI1
aI0
aI2271833
aS'_4519144048'
p110
aaaa(lp111
S'_4444937536'
p112
a(lp113
(lp114
I1
aI1
aI1
aI1
aI0
aI0
aI0
aI0
aI1
aI1
aI0
aI2475033
ag112
aa(lp115
I1
aI1
aI1
aI1
aI0
aI1
aI0
aI0
aI1
aI1
aI0
aI2506800
aS'_4444937536'
p116
aa(lp117
I1
aI1
aI0
aI1
aI0
aI1
aI0
aI1
aI1
aI1
aI0
aI2393200
aS'_4444937536'
p118
aa(lp119
I1
aI1
aI1
aI1
aI1
aI1
aI0
aI0
aI0
aI1
aI0
aI2485366
aS'_4444937536'
p120
aa(lp121
I1
aI1
aI1
aI0
aI1
aI1
aI0
aI0
aI1
aI1
aI0
aI2427366
aS'_4444937536'
p122
aa(lp123
I1
aI1
aI0
aI1
aI0
aI1
aI0
aI1
aI0
aI1
aI0
aI2329566
aS'_4444937536'
p124
aa(lp125
I1
aI0
aI1
aI1
aI0
aI1
aI0
aI0
aI0
aI0
aI0
aI2305366
aS'_4444937536'
p126
aa(lp127
I1
aI1
aI1
aI1
aI0
aI1
aI0
aI1
aI0
aI1
aI1
aI2597600
aS'_4444937536'
p128
aa(lp129
I1
aI0
aI1
aI1
aI0
aI0
aI0
aI1
aI0
aI0
aI0
aI2292766
aS'_4444937536'
p130
aa(lp131
I1
aI1
aI1
aI1
aI0
aI1
aI1
aI1
aI1
aI0
aI0
aI2510000
aS'_4444937536'
p132
aa(lp133
I1
aI0
aI1
aI0
aI0
aI1
aI0
aI0
aI1
aI1
aI1
aI2334300
aS'_4444937536'
p134
aa(lp135
I1
aI0
aI1
aI1
aI0
aI1
aI0
aI1
aI0
aI1
aI1
aI2466533
aS'_4444937536'
p136
aa(lp137
I1
aI0
aI1
aI1
aI0
aI1
aI0
aI1
aI0
aI1
aI0
aI2265700
aS'_4444937536'
p138
aaaa(lp139
S'_4519143616'
p140
a(lp141
(lp142
I1
aI0
aI0
aI1
aI0
aI0
aI0
aI1
aI0
aI0
aI1
aI2469566
ag140
aa(lp143
I1
aI1
aI0
aI0
aI0
aI0
aI0
aI0
aI0
aI0
aI1
aI2674266
aS'_4519143616'
p144
aa(lp145
I1
aI0
aI0
aI1
aI1
aI0
aI0
aI1
aI0
aI0
aI1
aI2647366
aS'_4519143616'
p146
aa(lp147
I1
aI1
aI1
aI1
aI0
aI0
aI0
aI1
aI0
aI0
aI0
aI2530533
aS'_4519143616'
p148
aa(lp149
I1
aI0
aI1
aI1
aI1
aI0
aI1
aI1
aI0
aI0
aI1
aI2503666
aS'_4519143616'
p150
aa(lp151
I1
aI1
aI0
aI0
aI0
aI1
aI0
aI1
aI0
aI1
aI1
aI2318866
aS'_4519143616'
p152
aa(lp153
I1
aI1
aI0
aI1
aI0
aI0
aI0
aI1
aI0
aI1
aI1
aI2476266
aS'_4519143616'
p154
aa(lp155
I1
aI1
aI0
aI1
aI1
aI0
aI1
aI1
aI0
aI1
aI1
aI2470133
aS'_4519143616'
p156
aa(lp157
I1
aI1
aI0
aI0
aI0
aI0
aI0
aI1
aI0
aI0
aI1
aI2362100
aS'_4519143616'
p158
aa(lp159
I1
aI0
aI0
aI0
aI1
aI0
aI0
aI0
aI0
aI0
aI1
aI2200800
aS'_4519143616'
p160
aa(lp161
I1
aI0
aI0
aI0
aI1
aI0
aI0
aI1
aI0
aI0
aI1
aI2170633
aS'_4519143616'
p162
aa(lp163
I1
aI0
aI1
aI0
aI1
aI0
aI1
aI1
aI0
aI0
aI1
aI2374100
aS'_4519143616'
p164
aa(lp165
I1
aI1
aI1
aI0
aI1
aI0
aI0
aI1
aI0
aI1
aI1
aI2476133
aS'_4519143616'
p166
aaaa(lp167
S'_4519144624'
p168
a(lp169
(lp170
I1
aI1
aI1
aI1
aI0
aI0
aI0
aI0
aI0
aI0
aI1
aI2531500
ag168
aa(lp171
I1
aI1
aI0
aI0
aI0
aI0
aI0
aI1
aI1
aI0
aI0
aI2213333
aS'_4519144624'
p172
aa(lp173
I1
aI1
aI1
aI1
aI0
aI0
aI0
aI0
aI0
aI0
aI0
aI2440300
aS'_4519144624'
p174
aa(lp175
I1
aI0
aI1
aI0
aI0
aI0
aI0
aI0
aI1
aI0
aI0
aI2188166
aS'_4519144624'
p176
aa(lp177
I1
aI0
aI1
aI0
aI0
aI0
aI0
aI1
aI0
aI0
aI0
aI2213766
aS'_4519144624'
p178
aa(lp179
I1
aI1
aI1
aI0
aI0
aI0
aI0
aI0
aI0
aI1
aI1
aI2460033
aS'_4519144624'
p180
aa(lp181
I1
aI0
aI0
aI0
aI0
aI0
aI0
aI1
aI1
aI0
aI0
aI1999533
aS'_4519144624'
p182
aa(lp183
I1
aI0
aI0
aI0
aI0
aI0
aI0
aI0
aI1
aI0
aI0
aI2011533
aS'_4519144624'
p184
aa(lp185
I1
aI0
aI1
aI0
aI0
aI0
aI0
aI0
aI0
aI0
aI0
aI2196366
aS'_4519144624'
p186
aa(lp187
I1
aI0
aI1
aI0
aI1
aI0
aI0
aI0
aI0
aI0
aI0
aI2340800
aS'_4519144624'
p188
aa(lp189
I1
aI1
aI1
aI0
aI0
aI0
aI0
aI0
aI0
aI0
aI0
aI2327000
aS'_4519144624'
p190
aa(lp191
I1
aI0
aI0
aI0
aI0
aI0
aI0
aI0
aI0
aI1
aI0
aI2103400
aS'_4519144624'
p192
aa(lp193
I1
aI0
aI0
aI0
aI0
aI1
aI0
aI0
aI0
aI0
aI0
aI2069000
aS'_4519144624'
p194
aaaa(lp195
S'_4444937032'
p196
a(lp197
(lp198
I1
aI1
aI1
aI1
aI0
aI1
aI1
aI0
aI1
aI1
aI0
aI2554700
ag196
aa(lp199
I1
aI0
aI1
aI1
aI0
aI1
aI1
aI0
aI1
aI0
aI0
aI2282666
aS'_4444937032'
p200
aa(lp201
I1
aI0
aI0
aI1
aI0
aI1
aI0
aI0
aI1
aI1
aI0
aI2136033
aS'_4444937032'
p202
aa(lp203
I1
aI0
aI1
aI1
aI1
aI1
aI1
aI1
aI1
aI1
aI0
aI2251566
aS'_4444937032'
p204
aa(lp205
I1
aI0
aI0
aI1
aI1
aI1
aI1
aI0
aI1
aI1
aI0
aI2153666
aS'_4444937032'
p206
aa(lp207
I1
aI0
aI1
aI0
aI1
aI1
aI1
aI0
aI1
aI1
aI0
aI2225566
aS'_4444937032'
p208
aa(lp209
I1
aI0
aI1
aI0
aI1
aI1
aI1
aI0
aI1
aI1
aI1
aI2357800
aS'_4444937032'
p210
aa(lp211
I1
aI0
aI1
aI1
aI1
aI0
aI1
aI1
aI1
aI1
aI0
aI2312066
aS'_4444937032'
p212
aa(lp213
I1
aI0
aI1
aI1
aI0
aI0
aI1
aI1
aI1
aI0
aI0
aI2306866
aS'_4444937032'
p214
aa(lp215
I1
aI0
aI0
aI1
aI0
aI1
aI1
aI1
aI0
aI1
aI0
aI2130000
aS'_4444937032'
p216
aa(lp217
I1
aI0
aI1
aI1
aI1
aI0
aI0
aI0
aI0
aI1
aI0
aI2253400
aS'_4444937032'
p218
aa(lp219
I1
aI0
aI1
aI1
aI0
aI0
aI0
aI0
aI0
aI0
aI0
aI2249500
aS'_4444937032'
p220
aaaa(lp221
S'_4444937752'
p222
a(lp223
(lp224
I1
aI0
aI1
aI1
aI0
aI1
aI1
aI0
aI0
aI1
aI0
aI2312533
ag222
aa(lp225
I1
aI0
aI1
aI0
aI0
aI0
aI1
aI1
aI1
aI1
aI0
aI2232966
aS'_4444937752'
p226
aa(lp227
I1
aI0
aI1
aI1
aI0
aI0
aI1
aI1
aI0
aI1
aI0
aI2271900
aS'_4444937752'
p228
aa(lp229
I1
aI0
aI1
aI0
aI0
aI1
aI0
aI1
aI1
aI1
aI0
aI2230700
aS'_4444937752'
p230
aa(lp231
I1
aI0
aI1
aI0
aI0
aI0
aI0
aI1
aI0
aI1
aI0
aI2203966
aS'_4444937752'
p232
aa(lp233
I1
aI0
aI1
aI0
aI0
aI1
aI0
aI1
aI0
aI1
aI0
aI2185633
aS'_4444937752'
p234
aa(lp235
I1
aI0
aI0
aI1
aI1
aI1
aI0
aI1
aI0
aI1
aI0
aI2114800
aS'_4444937752'
p236
aa(lp237
I1
aI0
aI1
aI0
aI0
aI1
aI1
aI1
aI1
aI1
aI1
aI2361700
aS'_4444937752'
p238
aa(lp239
I1
aI0
aI1
aI1
aI1
aI1
aI0
aI1
aI0
aI0
aI0
aI2292966
aS'_4444937752'
p240
aa(lp241
I1
aI0
aI1
aI1
aI0
aI1
aI1
aI1
aI0
aI1
aI1
aI2486500
aS'_4444937752'
p242
aa(lp243
I1
aI0
aI1
aI1
aI1
aI1
aI1
aI1
aI0
aI1
aI0
aI2295533
aS'_4444937752'
p244
aa(lp245
I1
aI1
aI1
aI0
aI1
aI1
aI1
aI1
aI0
aI1
aI0
aI2417800
aS'_4444937752'
p246
aa(lp247
I1
aI0
aI1
aI0
aI1
aI1
aI1
aI1
aI0
aI1
aI0
aI2208200
aS'_4444937752'
p248
aaaa(lp249
S'_4519143544'
p250
a(lp251
(lp252
I1
aI0
aI0
aI0
aI1
aI1
aI0
aI0
aI1
aI0
aI1
aI2162966
ag250
aa(lp253
I1
aI0
aI0
aI0
aI1
aI0
aI1
aI0
aI1
aI0
aI1
aI2158533
aS'_4519143544'
p254
aa(lp255
I1
aI1
aI1
aI0
aI1
aI0
aI0
aI0
aI0
aI0
aI0
aI2459366
aS'_4519143544'
p256
aa(lp257
I1
aI0
aI1
aI0
aI1
aI0
aI1
aI0
aI0
aI0
aI0
aI2228233
aS'_4519143544'
p258
aa(lp259
I1
aI1
aI1
aI0
aI1
aI1
aI1
aI0
aI0
aI0
aI0
aI2464966
aS'_4519143544'
p260
aa(lp261
I1
aI1
aI0
aI0
aI1
aI0
aI1
aI0
aI1
aI0
aI1
aI2369766
aS'_4519143544'
p262
aa(lp263
I1
aI0
aI0
aI0
aI0
aI1
aI1
aI0
aI0
aI0
aI0
aI2052066
aS'_4519143544'
p264
aa(lp265
I1
aI0
aI1
aI0
aI1
aI0
aI1
aI0
aI1
aI0
aI0
aI2216233
aS'_4519143544'
p266
aa(lp267
I1
aI1
aI1
aI1
aI0
aI1
aI1
aI0
aI1
aI0
aI1
aI2626800
aS'_4519143544'
p268
aa(lp269
I1
aI0
aI0
aI1
aI1
aI0
aI1
aI0
aI1
aI1
aI1
aI2595000
aS'_4519143544'
p270
aa(lp271
I1
aI1
aI0
aI0
aI1
aI1
aI1
aI0
aI1
aI1
aI0
aI2298166
aS'_4519143544'
p272
aa(lp273
I1
aI1
aI0
aI0
aI0
aI0
aI1
aI0
aI1
aI0
aI1
aI2357333
aS'_4519143544'
p274
aa(lp275
I1
aI1
aI1
aI0
aI0
aI1
aI1
aI0
aI1
aI1
aI1
aI2511633
aS'_4519143544'
p276
aaaa(lp277
S'_4519144984'
p278
a(lp279
(lp280
I1
aI1
aI0
aI0
aI0
aI1
aI1
aI1
aI1
aI0
aI1
aI2349500
ag278
aa(lp281
I1
aI1
aI0
aI0
aI0
aI1
aI1
aI0
aI1
aI0
aI1
aI2331166
aS'_4519144984'
p282
aa(lp283
I1
aI1
aI1
aI0
aI0
aI1
aI1
aI1
aI0
aI1
aI1
aI2494600
aS'_4519144984'
p284
aa(lp285
I1
aI1
aI0
aI1
aI0
aI1
aI1
aI0
aI1
aI1
aI1
aI2542666
aS'_4519144984'
p286
aa(lp287
I1
aI0
aI0
aI0
aI1
aI1
aI1
aI1
aI0
aI1
aI1
aI2169066
aS'_4519144984'
p288
aa(lp289
I1
aI1
aI0
aI1
aI1
aI0
aI1
aI0
aI0
aI1
aI1
aI2496800
aS'_4519144984'
p290
aa(lp291
I1
aI1
aI1
aI0
aI1
aI1
aI1
aI1
aI0
aI1
aI1
aI2504800
aS'_4519144984'
p292
aa(lp293
I1
aI1
aI0
aI1
aI1
aI1
aI1
aI1
aI0
aI1
aI1
aI2487400
aS'_4519144984'
p294
aa(lp295
I1
aI1
aI1
aI0
aI1
aI1
aI0
aI0
aI0
aI0
aI1
aI2540733
aS'_4519144984'
p296
aa(lp297
I1
aI1
aI0
aI1
aI1
aI1
aI1
aI0
aI1
aI0
aI1
aI2496166
aS'_4519144984'
p298
aa(lp299
I1
aI1
aI0
aI0
aI1
aI1
aI1
aI0
aI0
aI0
aI1
aI2551200
aS'_4519144984'
p300
aa(lp301
I1
aI0
aI0
aI1
aI1
aI1
aI1
aI0
aI0
aI1
aI1
aI2661200
aS'_4519144984'
p302
aa(lp303
I1
aI1
aI1
aI1
aI1
aI1
aI1
aI0
aI0
aI0
aI1
aI2526833
aS'_4519144984'
p304
aaaa(lp305
S'_4444938112'
p306
a(lp307
(lp308
I1
aI1
aI1
aI0
aI0
aI1
aI0
aI1
aI1
aI0
aI0
aI2393666
ag306
aa(lp309
I1
aI1
aI1
aI0
aI1
aI1
aI0
aI1
aI0
aI0
aI0
aI2442833
aS'_4444938112'
p310
aa(lp311
I1
aI1
aI1
aI0
aI1
aI1
aI0
aI1
aI1
aI1
aI0
aI2457000
aS'_4444938112'
p312
aa(lp313
I1
aI1
aI1
aI0
aI1
aI1
aI0
aI1
aI1
aI0
aI1
aI2505333
aS'_4444938112'
p314
aa(lp315
I1
aI1
aI1
aI0
aI0
aI0
aI1
aI1
aI1
aI1
aI0
aI2451566
aS'_4444938112'
p316
aa(lp317
I1
aI1
aI1
aI0
aI0
aI0
aI0
aI1
aI1
aI1
aI1
aI2502400
aS'_4444938112'
p318
aa(lp319
I1
aI1
aI1
aI1
aI0
aI1
aI0
aI1
aI1
aI1
aI1
aI2665166
aS'_4444938112'
p320
aa(lp321
I1
aI1
aI0
aI1
aI0
aI1
aI0
aI1
aI0
aI1
aI1
aI2455633
aS'_4444938112'
p322
aa(lp323
I1
aI1
aI0
aI1
aI1
aI1
aI0
aI1
aI0
aI1
aI0
aI2384600
aS'_4444938112'
p324
aa(lp325
I1
aI1
aI1
aI0
aI1
aI0
aI0
aI1
aI0
aI1
aI0
aI2387033
aS'_4444938112'
p326
aa(lp327
I1
aI1
aI0
aI1
aI1
aI1
aI1
aI1
aI1
aI0
aI0
aI2556233
aS'_4444938112'
p328
aa(lp329
I1
aI1
aI1
aI0
aI1
aI1
aI1
aI0
aI1
aI1
aI1
aI2544200
aS'_4444938112'
p330
aa(lp331
I1
aI1
aI1
aI1
aI1
aI0
aI0
aI1
aI0
aI1
aI0
aI2470800
aS'_4444938112'
p332
aaaa(lp333
S'_4444938184'
p334
a(lp335
(lp336
I1
aI0
aI1
aI0
aI1
aI1
aI0
aI0
aI1
aI1
aI1
aI2357933
ag334
aa(lp337
I1
aI0
aI0
aI0
aI1
aI1
aI0
aI1
aI1
aI1
aI1
aI2185033
aS'_4444938184'
p338
aa(lp339
I1
aI1
aI1
aI1
aI1
aI1
aI0
aI1
aI0
aI1
aI1
aI2606933
aS'_4444938184'
p340
aa(lp341
I1
aI1
aI0
aI1
aI1
aI1
aI0
aI1
aI0
aI1
aI1
aI2465033
aS'_4444938184'
p342
aa(lp343
I1
aI1
aI1
aI0
aI1
aI1
aI1
aI1
aI1
aI1
aI1
aI2554300
aS'_4444938184'
p344
aa(lp345
I1
aI1
aI1
aI1
aI1
aI1
aI1
aI1
aI1
aI1
aI1
aI2536733
aS'_4444938184'
p346
aa(lp347
I1
aI0
aI1
aI0
aI1
aI1
aI1
aI1
aI1
aI1
aI1
aI2373600
aS'_4444938184'
p348
aa(lp349
I1
aI0
aI1
aI1
aI1
aI1
aI0
aI1
aI1
aI1
aI1
aI2485833
aS'_4444938184'
p350
aa(lp351
I1
aI1
aI0
aI1
aI1
aI1
aI1
aI1
aI1
aI1
aI1
aI2412266
aS'_4444938184'
p352
aa(lp353
I1
aI0
aI0
aI0
aI1
aI0
aI0
aI1
aI1
aI1
aI1
aI2150266
aS'_4444938184'
p354
aa(lp355
I1
aI1
aI1
aI1
aI1
aI0
aI0
aI0
aI1
aI1
aI1
aI2616866
aS'_4444938184'
p356
aa(lp357
I1
aI0
aI1
aI0
aI1
aI0
aI1
aI1
aI1
aI1
aI1
aI2372266
aS'_4444938184'
p358
aa(lp359
I1
aI0
aI1
aI1
aI1
aI0
aI1
aI1
aI1
aI1
aI1
aI2512466
aS'_4444938184'
p360
aaaa(lp361
S'_4444937968'
p362
a(lp363
(lp364
I1
aI0
aI0
aI1
aI1
aI1
aI0
aI1
aI1
aI1
aI1
aI2640400
ag362
aa(lp365
I1
aI1
aI0
aI1
aI1
aI1
aI0
aI1
aI1
aI0
aI1
aI2490466
aS'_4444937968'
p366
aa(lp367
I1
aI0
aI1
aI0
aI1
aI0
aI0
aI1
aI0
aI0
aI0
aI2217833
aS'_4444937968'
p368
aa(lp369
I1
aI0
aI0
aI1
aI0
aI0
aI0
aI0
aI1
aI0
aI0
aI2097033
aS'_4444937968'
p370
aa(lp371
I1
aI0
aI1
aI0
aI1
aI0
aI0
aI1
aI1
aI1
aI0
aI2199133
aS'_4444937968'
p372
aa(lp373
I1
aI0
aI0
aI1
aI1
aI0
aI0
aI1
aI1
aI1
aI0
aI2169133
aS'_4444937968'
p374
aa(lp375
I1
aI1
aI0
aI1
aI1
aI0
aI0
aI1
aI1
aI0
aI0
aI2319133
aS'_4444937968'
p376
aa(lp377
I1
aI0
aI0
aI1
aI0
aI0
aI0
aI1
aI1
aI0
aI0
aI2083700
aS'_4444937968'
p378
aa(lp379
I1
aI1
aI0
aI1
aI1
aI1
aI0
aI1
aI1
aI1
aI0
aI2392433
aS'_4444937968'
p380
aa(lp381
I1
aI1
aI1
aI0
aI0
aI0
aI0
aI1
aI1
aI0
aI0
aI2368866
aS'_4444937968'
p382
aa(lp383
I1
aI1
aI0
aI0
aI0
aI1
aI0
aI1
aI1
aI0
aI0
aI2293133
aS'_4444937968'
p384
aa(lp385
I1
aI1
aI0
aI1
aI1
aI0
aI0
aI1
aI0
aI1
aI0
aI2359733
aS'_4444937968'
p386
aa(lp387
I1
aI1
aI0
aI1
aI0
aI0
aI0
aI1
aI1
aI1
aI0
aI2359200
aS'_4444937968'
p388
aaaa(lp389
S'_4444937896'
p390
a(lp391
(lp392
I1
aI0
aI1
aI1
aI1
aI1
aI1
aI0
aI1
aI0
aI1
aI2517866
ag390
aa(lp393
I1
aI0
aI1
aI1
aI0
aI1
aI0
aI0
aI1
aI0
aI1
aI2492533
aS'_4444937896'
p394
aa(lp395
I1
aI0
aI0
aI1
aI1
aI1
aI1
aI1
aI1
aI0
aI1
aI2663866
aS'_4444937896'
p396
aa(lp397
I1
aI1
aI1
aI1
aI1
aI1
aI0
aI0
aI1
aI0
aI0
aI2536533
aS'_4444937896'
p398
aa(lp399
I1
aI0
aI1
aI0
aI1
aI0
aI0
aI1
aI1
aI0
aI1
aI2317566
aS'_4444937896'
p400
aa(lp401
I1
aI1
aI1
aI0
aI1
aI1
aI0
aI0
aI1
aI0
aI0
aI2439633
aS'_4444937896'
p402
aa(lp403
I1
aI0
aI1
aI1
aI1
aI0
aI0
aI0
aI0
aI1
aI1
aI2457933
aS'_4444937896'
p404
aa(lp405
I1
aI0
aI1
aI0
aI1
aI1
aI0
aI1
aI1
aI0
aI0
aI2190766
aS'_4444937896'
p406
aa(lp407
I1
aI0
aI1
aI0
aI0
aI1
aI0
aI1
aI1
aI0
aI1
aI2342500
aS'_4444937896'
p408
aa(lp409
I1
aI1
aI1
aI1
aI1
aI0
aI0
aI1
aI1
aI0
aI1
aI2660933
aS'_4444937896'
p410
aa(lp411
I1
aI0
aI1
aI1
aI1
aI1
aI0
aI1
aI1
aI1
aI0
aI2311966
aS'_4444937896'
p412
aa(lp413
I1
aI0
aI1
aI1
aI0
aI1
aI0
aI1
aI1
aI0
aI0
aI2290700
aS'_4444937896'
p414
aaaa(lp415
S'_4519142968'
p416
a(lp417
(lp418
I1
aI0
aI1
aI1
aI0
aI0
aI1
aI1
aI1
aI0
aI1
aI2501200
ag416
aa(lp419
I1
aI0
aI1
aI1
aI0
aI0
aI1
aI0
aI1
aI1
aI1
aI2512366
aS'_4519142968'
p420
aa(lp421
I1
aI1
aI1
aI1
aI0
aI0
aI0
aI1
aI1
aI0
aI1
aI2580233
aS'_4519142968'
p422
aa(lp423
I1
aI0
aI1
aI0
aI0
aI0
aI1
aI1
aI1
aI0
aI1
aI2351633
aS'_4519142968'
p424
aa(lp425
I1
aI0
aI0
aI1
aI0
aI0
aI1
aI0
aI1
aI1
aI1
aI2653800
aS'_4519142968'
p426
aa(lp427
I1
aI0
aI0
aI0
aI0
aI0
aI1
aI1
aI1
aI1
aI1
aI2184033
aS'_4519142968'
p428
aa(lp429
I1
aI0
aI1
aI0
aI0
aI0
aI1
aI1
aI1
aI0
aI0
aI2210100
aS'_4519142968'
p430
aa(lp431
I1
aI0
aI1
aI0
aI0
aI0
aI1
aI1
aI0
aI0
aI1
aI2335433
aS'_4519142968'
p432
aa(lp433
I1
aI0
aI1
aI1
aI0
aI0
aI1
aI0
aI1
aI0
aI0
aI2291866
aS'_4519142968'
p434
aa(lp435
I1
aI0
aI1
aI0
aI0
aI0
aI1
aI0
aI0
aI0
aI1
aI2348666
aS'_4519142968'
p436
aa(lp437
I1
aI1
aI1
aI1
aI1
aI0
aI0
aI0
aI0
aI1
aI1
aI2601666
aS'_4519142968'
p438
aa(lp439
I1
aI0
aI1
aI0
aI0
aI0
aI1
aI0
aI0
aI1
aI1
aI2322200
aS'_4519142968'
p440
aa(lp441
I1
aI0
aI1
aI0
aI0
aI0
aI0
aI0
aI1
aI1
aI1
aI2334466
aS'_4519142968'
p442
aaaa.