(lp0
(lp1
S'_4445715056'
p2
a(lp3
(lp4
I1
aI0
aI0
aI0
aI0
aI0
aI1
aI1
aI0
aI0
aI0
aI2023866
ag2
aa(lp5
I1
aI0
aI0
aI1
aI0
aI0
aI1
aI0
aI1
aI1
aI1
aI2653800
aS'_4445715056'
p6
aa(lp7
I1
aI1
aI0
aI0
aI0
aI0
aI0
aI1
aI1
aI1
aI1
aI2341000
aS'_4445715056'
p8
aa(lp9
I1
aI1
aI0
aI1
aI0
aI0
aI1
aI0
aI0
aI1
aI0
aI2328600
aS'_4445715056'
p10
aa(lp11
I1
aI0
aI0
aI0
aI0
aI0
aI0
aI0
aI1
aI1
aI0
aI2022333
aS'_4445715056'
p12
aa(lp13
I1
aI1
aI0
aI1
aI0
aI0
aI0
aI1
aI1
aI0
aI0
aI2310366
aS'_4445715056'
p14
aaaa(lp15
S'_4445679984'
p16
a(lp17
(lp18
I1
aI0
aI0
aI0
aI0
aI1
aI0
aI1
aI0
aI1
aI0
aI2014700
ag16
aa(lp19
I1
aI0
aI0
aI0
aI0
aI1
aI0
aI1
aI0
aI0
aI0
aI2071200
aS'_4445679984'
p20
aa(lp21
I1
aI1
aI0
aI0
aI0
aI1
aI1
aI1
aI0
aI1
aI1
aI2337933
aS'_4445679984'
p22
aa(lp23
I1
aI1
aI0
aI0
aI0
aI1
aI0
aI1
aI1
aI1
aI1
aI2365866
aS'_4445679984'
p24
aa(lp25
I1
aI1
aI0
aI1
aI0
aI1
aI1
aI1
aI0
aI1
aI0
aI2355333
aS'_4445679984'
p26
aa(lp27
I1
aI1
aI0
aI0
aI0
aI1
aI1
aI1
aI0
aI1
aI0
aI2252600
aS'_4445679984'
p28
aaaa(lp29
S'_4445715632'
p30
a(lp31
(lp32
I1
aI1
aI1
aI0
aI0
aI1
aI0
aI0
aI1
aI1
aI1
aI2497166
ag30
aa(lp33
I1
aI1
aI1
aI0
aI0
aI0
aI1
aI0
aI1
aI1
aI1
aI2508666
aS'_4445715632'
p34
aa(lp35
I1
aI0
aI1
aI0
aI0
aI1
aI0
aI1
aI1
aI1
aI1
aI2365300
aS'_4445715632'
p36
aa(lp37
I1
aI1
aI0
aI0
aI0
aI0
aI1
aI0
aI0
aI1
aI1
aI2304666
aS'_4445715632'
p38
aa(lp39
I1
aI0
aI0
aI0
aI0
aI0
aI1
aI1
aI1
aI1
aI1
aI2184033
aS'_4445715632'
p40
aa(lp41
I1
aI0
aI0
aI0
aI0
aI1
aI1
aI0
aI1
aI1
aI1
aI2162300
aS'_4445715632'
p42
aa(lp43
I1
aI0
aI0
aI0
aI1
aI0
aI1
aI0
aI1
aI1
aI1
aI2180200
aS'_4445715632'
p44
aaaa(lp45
S'_4445716064'
p46
a(lp47
(lp48
I1
aI1
aI0
aI0
aI1
aI0
aI1
aI0
aI0
aI0
aI0
aI2311900
ag46
aa(lp49
I1
aI0
aI1
aI0
aI1
aI1
aI0
aI1
aI0
aI0
aI1
aI2340633
aS'_4445716064'
p50
aa(lp51
I1
aI0
aI1
aI1
aI1
aI0
aI1
aI1
aI1
aI0
aI0
aI2295600
aS'_4445716064'
p52
aa(lp53
I1
aI1
aI1
aI1
aI1
aI1
aI0
aI0
aI1
aI1
aI1
aI2638200
aS'_4445716064'
p54
aa(lp55
I1
aI1
aI1
aI1
aI1
aI1
aI1
aI0
aI1
aI0
aI0
aI2507266
aS'_4445716064'
p56
aa(lp57
I1
aI1
aI1
aI1
aI1
aI1
aI0
aI1
aI0
aI0
aI1
aI2675933
aS'_4445716064'
p58
aa(lp59
I1
aI1
aI0
aI1
aI1
aI1
aI0
aI1
aI1
aI0
aI0
aI2343366
aS'_4445716064'
p60
aaaa(lp61
S'_4445679768'
p62
a(lp63
(lp64
I1
aI1
aI1
aI1
aI1
aI1
aI0
aI1
aI0
aI1
aI1
aI2606933
ag62
aa(lp65
I1
aI1
aI0
aI0
aI1
aI1
aI0
aI0
aI0
aI1
aI1
aI2322166
aS'_4445679768'
p66
aa(lp67
I1
aI1
aI1
aI1
aI0
aI1
aI0
aI1
aI0
aI0
aI1
aI2664500
aS'_4445679768'
p68
aa(lp69
I1
aI1
aI0
aI1
aI1
aI1
aI0
aI1
aI0
aI0
aI1
aI2528933
aS'_4445679768'
p70
aa(lp71
I1
aI1
aI0
aI0
aI1
aI1
aI0
aI1
aI0
aI0
aI1
aI2387366
aS'_4445679768'
p72
aa(lp73
I1
aI1
aI0
aI1
aI1
aI0
aI0
aI1
aI0
aI0
aI1
aI2543933
aS'_4445679768'
p74
aaaa(lp75
S'_4445713040'
p76
a(lp77
(lp78
I1
aI0
aI1
aI1
aI1
aI1
aI0
aI0
aI0
aI0
aI0
aI2237733
ag76
aa(lp79
I1
aI0
aI0
aI0
aI0
aI1
aI0
aI0
aI0
aI0
aI1
aI2194966
aS'_4445713040'
p80
aa(lp81
I1
aI0
aI1
aI0
aI1
aI1
aI0
aI0
aI0
aI0
aI0
aI2332766
aS'_4445713040'
p82
aa(lp83
I1
aI0
aI1
aI0
aI1
aI1
aI0
aI0
aI1
aI0
aI1
aI2341333
aS'_4445713040'
p84
aa(lp85
I1
aI0
aI1
aI1
aI1
aI0
aI0
aI1
aI1
aI0
aI0
aI2299466
aS'_4445713040'
p86
aa(lp87
I1
aI0
aI1
aI0
aI0
aI1
aI0
aI0
aI1
aI0
aI0
aI2199666
aS'_4445713040'
p88
aa(lp89
I1
aI0
aI1
aI0
aI0
aI0
aI0
aI0
aI1
aI0
aI0
aI2188166
aS'_4445713040'
p90
aaaa(lp91
S'_4445716280'
p92
a(lp93
(lp94
I1
aI1
aI0
aI1
aI0
aI0
aI0
aI0
aI1
aI0
aI0
aI2362433
ag92
aa(lp95
I1
aI1
aI0
aI1
aI0
aI0
aI0
aI0
aI0
aI1
aI0
aI2301666
aS'_4445716280'
p96
aa(lp97
I1
aI1
aI1
aI0
aI0
aI0
aI0
aI0
aI1
aI0
aI0
aI2401633
aS'_4445716280'
p98
aa(lp99
I1
aI1
aI0
aI1
aI1
aI0
aI1
aI0
aI1
aI1
aI1
aI2538200
aS'_4445716280'
p100
aa(lp101
I1
aI1
aI0
aI1
aI0
aI1
aI0
aI1
aI1
aI1
aI0
aI2393200
aS'_4445716280'
p102
aa(lp103
I1
aI1
aI1
aI0
aI1
aI0
aI0
aI0
aI1
aI1
aI0
aI2402200
aS'_4445716280'
p104
aa(lp105
I1
aI1
aI1
aI1
aI0
aI0
aI0
aI0
aI1
aI1
aI0
aI2475033
aS'_4445716280'
p106
aaaa(lp107
S'_4445714264'
p108
a(lp109
(lp110
I1
aI1
aI0
aI1
aI1
aI1
aI1
aI0
aI0
aI0
aI1
aI2404300
ag108
aa(lp111
I1
aI1
aI0
aI0
aI1
aI1
aI0
aI0
aI0
aI0
aI1
aI2556433
aS'_4445714264'
p112
aa(lp113
I1
aI0
aI1
aI1
aI0
aI1
aI1
aI0
aI0
aI0
aI1
aI2502433
aS'_4445714264'
p114
aa(lp115
I1
aI0
aI0
aI0
aI0
aI1
aI1
aI0
aI0
aI0
aI1
aI2176800
aS'_4445714264'
p116
aa(lp117
I1
aI0
aI1
aI1
aI1
aI0
aI1
aI0
aI1
aI1
aI1
aI2515166
aS'_4445714264'
p118
aa(lp119
I1
aI0
aI1
aI0
aI1
aI0
aI1
aI0
aI0
aI0
aI1
aI2367366
aS'_4445714264'
p120
aaaa(lp121
S'_4445712968'
p122
a(lp123
(lp124
I1
aI1
aI1
aI1
aI0
aI0
aI1
aI1
aI0
aI1
aI0
aI2477166
ag122
aa(lp125
I1
aI1
aI1
aI0
aI0
aI1
aI1
aI0
aI1
aI1
aI0
aI2424266
aS'_4445712968'
p126
aa(lp127
I1
aI1
aI1
aI0
aI0
aI0
aI0
aI1
aI1
aI1
aI1
aI2502400
aS'_4445712968'
p128
aa(lp129
I1
aI1
aI1
aI0
aI0
aI1
aI1
aI0
aI1
aI1
aI1
aI2511633
aS'_4445712968'
p130
aa(lp131
I1
aI0
aI1
aI0
aI0
aI0
aI0
aI0
aI0
aI1
aI1
aI2307400
aS'_4445712968'
p132
aa(lp133
I1
aI0
aI1
aI0
aI0
aI1
aI1
aI1
aI1
aI1
aI1
aI2361700
aS'_4445712968'
p134
aaaa(lp135
S'_4445713760'
p136
a(lp137
(lp138
I1
aI0
aI1
aI0
aI1
aI1
aI1
aI0
aI0
aI1
aI0
aI2198700
ag136
aa(lp139
I1
aI0
aI1
aI0
aI1
aI0
aI1
aI0
aI1
aI0
aI0
aI2216233
aS'_4445713760'
p140
aa(lp141
I1
aI1
aI1
aI1
aI1
aI1
aI1
aI0
aI0
aI0
aI0
aI2442533
aS'_4445713760'
p142
aa(lp143
I1
aI1
aI1
aI0
aI1
aI0
aI1
aI1
aI0
aI0
aI0
aI2425600
aS'_4445713760'
p144
aa(lp145
I1
aI0
aI1
aI0
aI1
aI0
aI1
aI1
aI1
aI0
aI0
aI2214433
aS'_4445713760'
p146
aa(lp147
I1
aI1
aI1
aI0
aI1
aI1
aI1
aI0
aI1
aI0
aI1
aI2505966
aS'_4445713760'
p148
aaaa(lp149
S'_4445712752'
p150
a(lp151
(lp152
I1
aI1
aI0
aI1
aI1
aI1
aI0
aI1
aI0
aI0
aI0
aI2418966
ag150
aa(lp153
I1
aI0
aI1
aI0
aI0
aI1
aI1
aI0
aI1
aI1
aI0
aI2217266
aS'_4445712752'
p154
aa(lp155
I1
aI0
aI1
aI1
aI1
aI1
aI0
aI1
aI1
aI1
aI0
aI2311966
aS'_4445712752'
p156
aa(lp157
I1
aI0
aI1
aI1
aI0
aI1
aI0
aI1
aI0
aI1
aI0
aI2265700
aS'_4445712752'
p158
aa(lp159
I1
aI0
aI1
aI0
aI0
aI1
aI0
aI0
aI0
aI1
aI0
aI2176966
aS'_4445712752'
p160
aa(lp161
I1
aI1
aI0
aI1
aI1
aI1
aI0
aI0
aI0
aI1
aI0
aI2337433
aS'_4445712752'
p162
aa(lp163
I1
aI1
aI1
aI1
aI0
aI1
aI0
aI0
aI1
aI1
aI0
aI2506800
aS'_4445712752'
p164
aaaa(lp165
S'_4445714912'
p166
a(lp167
(lp168
I1
aI0
aI1
aI1
aI1
aI0
aI1
aI1
aI0
aI0
aI0
aI2275300
ag166
aa(lp169
I1
aI0
aI1
aI1
aI0
aI0
aI1
aI0
aI0
aI0
aI1
aI2501633
aS'_4445714912'
p170
aa(lp171
I1
aI0
aI1
aI1
aI0
aI0
aI1
aI0
aI0
aI1
aI0
aI2268833
aS'_4445714912'
p172
aa(lp173
I1
aI0
aI0
aI1
aI0
aI0
aI0
aI0
aI0
aI0
aI1
aI2208666
aS'_4445714912'
p174
aa(lp175
I1
aI0
aI1
aI1
aI0
aI1
aI0
aI0
aI0
aI1
aI0
aI2261300
aS'_4445714912'
p176
aa(lp177
I1
aI0
aI0
aI1
aI0
aI1
aI1
aI0
aI0
aI0
aI1
aI2656900
aS'_4445714912'
p178
aaaa(lp179
S'_4445715416'
p180
a(lp181
(lp182
I1
aI0
aI1
aI0
aI1
aI1
aI1
aI1
aI0
aI1
aI0
aI2208200
ag180
aa(lp183
I1
aI1
aI1
aI0
aI1
aI1
aI1
aI1
aI0
aI1
aI0
aI2417800
aS'_4445715416'
p184
aa(lp185
I1
aI0
aI0
aI1
aI1
aI1
aI1
aI1
aI1
aI0
aI0
aI2172933
aS'_4445715416'
p186
aa(lp187
I1
aI1
aI1
aI1
aI1
aI1
aI1
aI1
aI0
aI1
aI1
aI2621133
aS'_4445715416'
p188
aa(lp189
I1
aI0
aI0
aI1
aI0
aI1
aI1
aI1
aI0
aI1
aI0
aI2130000
aS'_4445715416'
p190
aa(lp191
I1
aI0
aI1
aI1
aI0
aI1
aI1
aI1
aI0
aI0
aI0
aI2291233
aS'_4445715416'
p192
aaaa(lp193
S'_4445680128'
p194
a(lp195
(lp196
I1
aI1
aI0
aI0
aI1
aI0
aI0
aI0
aI0
aI1
aI1
aI2307900
ag194
aa(lp197
I1
aI1
aI0
aI0
aI1
aI1
aI1
aI1
aI0
aI0
aI1
aI2562266
aS'_4445680128'
p198
aa(lp199
I1
aI0
aI0
aI0
aI1
aI1
aI0
aI0
aI0
aI1
aI1
aI2142433
aS'_4445680128'
p200
aa(lp201
I1
aI0
aI0
aI0
aI1
aI1
aI0
aI1
aI0
aI1
aI0
aI2019733
aS'_4445680128'
p202
aa(lp203
I1
aI1
aI0
aI0
aI1
aI0
aI0
aI1
aI0
aI0
aI0
aI2289366
aS'_4445680128'
p204
aa(lp205
I1
aI1
aI0
aI0
aI0
aI0
aI1
aI0
aI0
aI0
aI1
aI2371333
aS'_4445680128'
p206
aa(lp207
I1
aI0
aI0
aI0
aI0
aI0
aI0
aI1
aI1
aI0
aI0
aI1999533
aS'_4445680128'
p208
aaaa(lp209
S'_4445680056'
p210
a(lp211
(lp212
I1
aI1
aI0
aI0
aI0
aI1
aI0
aI1
aI1
aI0
aI0
aI2293133
ag210
aa(lp213
I1
aI1
aI1
aI0
aI0
aI1
aI0
aI0
aI1
aI0
aI1
aI2519333
aS'_4445680056'
p214
aa(lp215
I1
aI1
aI1
aI0
aI0
aI1
aI0
aI1
aI1
aI0
aI0
aI2393666
aS'_4445680056'
p216
aa(lp217
I1
aI1
aI1
aI0
aI0
aI1
aI1
aI1
aI1
aI0
aI0
aI2455966
aS'_4445680056'
p218
aa(lp219
I1
aI1
aI1
aI0
aI0
aI0
aI1
aI1
aI1
aI0
aI1
aI2500500
aS'_4445680056'
p220
aa(lp221
I1
aI1
aI1
aI0
aI1
aI0
aI1
aI1
aI1
aI0
aI0
aI2413266
aS'_4445680056'
p222
aaaa(lp223
S'_4445713256'
p224
a(lp225
(lp226
I1
aI0
aI0
aI1
aI0
aI0
aI0
aI0
aI0
aI1
aI0
aI2077466
ag224
aa(lp227
I1
aI1
aI0
aI1
aI1
aI1
aI1
aI0
aI0
aI0
aI0
aI2569700
aS'_4445713256'
p228
aa(lp229
I1
aI1
aI0
aI1
aI1
aI0
aI1
aI0
aI0
aI0
aI1
aI2520433
aS'_4445713256'
p230
aa(lp231
I1
aI0
aI0
aI0
aI0
aI1
aI0
aI0
aI0
aI0
aI0
aI2069000
aS'_4445713256'
p232
aa(lp233
I1
aI1
aI0
aI1
aI1
aI0
aI0
aI0
aI0
aI0
aI0
aI2575133
aS'_4445713256'
p234
aa(lp235
I1
aI1
aI0
aI1
aI0
aI1
aI1
aI0
aI0
aI0
aI1
aI2533933
aS'_4445713256'
p236
aa(lp237
I1
aI1
aI0
aI1
aI1
aI1
aI0
aI0
aI0
aI1
aI1
aI2469433
aS'_4445713256'
p238
aaaa.