(lp0
(lp1
S'_4445093328'
p2
a(lp3
(lp4
I1
aI0
aI1
aI0
aI1
aI1
aI1
aI1
aI1
aI0
aI0
aI1
aI1
aI1
aI0
aI0
aI2999600
ag2
aa(lp5
I1
aI0
aI0
aI1
aI1
aI1
aI0
aI1
aI1
aI0
aI0
aI1
aI1
aI1
aI0
aI0
aI3103270
aS'_4445093328'
p6
aa(lp7
I1
aI1
aI1
aI1
aI1
aI1
aI1
aI1
aI1
aI0
aI0
aI1
aI1
aI1
aI0
aI0
aI2792470
aS'_4445093328'
p8
aa(lp9
I1
aI0
aI1
aI1
aI0
aI0
aI1
aI1
aI1
aI0
aI1
aI0
aI1
aI1
aI0
aI0
aI2622770
aS'_4445093328'
p10
aa(lp11
I1
aI0
aI1
aI0
aI1
aI1
aI1
aI1
aI1
aI1
aI0
aI0
aI1
aI0
aI1
aI0
aI4769370
aS'_4445093328'
p12
aa(lp13
I1
aI1
aI0
aI1
aI1
aI1
aI1
aI1
aI1
aI0
aI0
aI1
aI1
aI1
aI0
aI0
aI2912370
aS'_4445093328'
p14
aa(lp15
I1
aI1
aI1
aI1
aI1
aI0
aI1
aI1
aI1
aI0
aI0
aI1
aI1
aI1
aI0
aI0
aI2526300
aS'_4445093328'
p16
aaaa(lp17
S'_4521876872'
p18
a(lp19
(lp20
I1
aI1
aI0
aI1
aI1
aI1
aI0
aI1
aI1
aI1
aI0
aI0
aI1
aI0
aI0
aI1
aI7834930
ag18
aa(lp21
I1
aI1
aI0
aI1
aI1
aI1
aI1
aI1
aI1
aI1
aI0
aI0
aI1
aI1
aI0
aI0
aI2909169
aS'_4521876872'
p22
aa(lp23
I1
aI0
aI0
aI0
aI1
aI1
aI1
aI1
aI1
aI1
aI0
aI0
aI1
aI0
aI1
aI0
aI4825900
aS'_4521876872'
p24
aa(lp25
I1
aI1
aI0
aI0
aI1
aI0
aI0
aI1
aI1
aI1
aI0
aI0
aI1
aI0
aI1
aI0
aI4916870
aS'_4521876872'
p26
aa(lp27
I1
aI1
aI0
aI0
aI0
aI1
aI1
aI1
aI1
aI0
aI0
aI1
aI1
aI0
aI0
aI1
aI5619700
aS'_4521876872'
p28
aa(lp29
I1
aI0
aI0
aI1
aI0
aI1
aI1
aI1
aI1
aI1
aI0
aI0
aI1
aI1
aI0
aI0
aI3049400
aS'_4521876872'
p30
aa(lp31
I1
aI1
aI0
aI1
aI1
aI1
aI0
aI1
aI1
aI0
aI0
aI1
aI1
aI1
aI0
aI0
aI2910570
aS'_4521876872'
p32
aaaa(lp33
S'_4521874640'
p34
a(lp35
(lp36
I1
aI1
aI0
aI1
aI0
aI0
aI0
aI1
aI1
aI0
aI0
aI1
aI1
aI0
aI0
aI1
aI5908370
ag34
aa(lp37
I1
aI1
aI1
aI1
aI0
aI1
aI1
aI1
aI1
aI0
aI1
aI0
aI1
aI1
aI0
aI0
aI2754070
aS'_4521874640'
p38
aa(lp39
I1
aI0
aI0
aI1
aI0
aI1
aI1
aI0
aI1
aI0
aI0
aI1
aI1
aI0
aI0
aI1
aI5804770
aS'_4521874640'
p40
aa(lp41
I1
aI1
aI0
aI1
aI0
aI1
aI1
aI0
aI1
aI0
aI1
aI0
aI1
aI0
aI0
aI1
aI5617430
aS'_4521874640'
p42
aa(lp43
I1
aI1
aI0
aI0
aI0
aI1
aI0
aI0
aI1
aI0
aI0
aI1
aI1
aI0
aI0
aI1
aI6874730
aS'_4521874640'
p44
aa(lp45
I1
aI1
aI1
aI1
aI1
aI1
aI0
aI1
aI1
aI0
aI0
aI1
aI1
aI0
aI1
aI0
aI5368500
aS'_4521874640'
p46
aa(lp47
I1
aI1
aI0
aI0
aI1
aI1
aI0
aI1
aI1
aI0
aI0
aI1
aI1
aI0
aI1
aI0
aI5430830
aS'_4521874640'
p48
aa(lp49
I1
aI1
aI0
aI1
aI0
aI1
aI1
aI0
aI1
aI0
aI0
aI1
aI1
aI0
aI1
aI0
aI4142430
aS'_4521874640'
p50
aaaa(lp51
S'_4521876800'
p52
a(lp53
(lp54
I1
aI1
aI0
aI1
aI0
aI1
aI1
aI1
aI1
aI0
aI0
aI1
aI1
aI1
aI0
aI0
aI2864570
ag52
aa(lp55
I1
aI0
aI0
aI0
aI1
aI1
aI1
aI0
aI1
aI1
aI0
aI0
aI1
aI1
aI0
aI0
aI3105200
aS'_4521876800'
p56
aa(lp57
I1
aI1
aI1
aI0
aI1
aI1
aI0
aI1
aI1
aI0
aI0
aI1
aI1
aI1
aI0
aI0
aI2797570
aS'_4521876800'
p58
aa(lp59
I1
aI1
aI0
aI0
aI1
aI0
aI1
aI1
aI1
aI0
aI1
aI0
aI1
aI1
aI0
aI0
aI2630730
aS'_4521876800'
p60
aa(lp61
I1
aI1
aI0
aI0
aI1
aI0
aI1
aI0
aI1
aI0
aI1
aI0
aI1
aI1
aI0
aI0
aI2632070
aS'_4521876800'
p62
aa(lp63
I1
aI0
aI1
aI0
aI0
aI1
aI1
aI1
aI1
aI0
aI0
aI1
aI1
aI1
aI0
aI0
aI2956830
aS'_4521876800'
p64
aa(lp65
I1
aI0
aI0
aI0
aI0
aI1
aI1
aI0
aI1
aI0
aI1
aI0
aI1
aI1
aI0
aI0
aI3055030
aS'_4521876800'
p66
aa(lp67
I1
aI0
aI0
aI0
aI0
aI0
aI0
aI0
aI1
aI0
aI0
aI1
aI1
aI1
aI0
aI0
aI2719670
aS'_4521876800'
p68
aaaa(lp69
S'_4521875072'
p70
a(lp71
(lp72
I1
aI1
aI1
aI1
aI1
aI1
aI1
aI0
aI1
aI0
aI0
aI1
aI1
aI0
aI1
aI0
aI4557200
ag70
aa(lp73
I1
aI1
aI1
aI0
aI1
aI0
aI1
aI0
aI1
aI0
aI0
aI1
aI1
aI0
aI1
aI0
aI4296430
aS'_4521875072'
p74
aa(lp75
I1
aI1
aI1
aI1
aI0
aI0
aI1
aI0
aI1
aI0
aI0
aI1
aI1
aI0
aI1
aI0
aI3650400
aS'_4521875072'
p76
aa(lp77
I1
aI0
aI1
aI1
aI1
aI0
aI0
aI0
aI1
aI1
aI0
aI0
aI1
aI0
aI1
aI0
aI5074030
aS'_4521875072'
p78
aa(lp79
I1
aI0
aI1
aI0
aI0
aI0
aI1
aI0
aI1
aI0
aI0
aI1
aI1
aI0
aI1
aI0
aI3814030
aS'_4521875072'
p80
aa(lp81
I1
aI1
aI0
aI1
aI0
aI0
aI1
aI0
aI1
aI0
aI0
aI1
aI1
aI0
aI1
aI0
aI3696800
aS'_4521875072'
p82
aa(lp83
I1
aI1
aI1
aI1
aI0
aI1
aI0
aI0
aI1
aI0
aI1
aI0
aI1
aI0
aI1
aI0
aI4870100
aS'_4521875072'
p84
aaaa(lp85
S'_4521876440'
p86
a(lp87
(lp88
I1
aI1
aI0
aI0
aI0
aI1
aI1
aI1
aI1
aI0
aI0
aI1
aI1
aI0
aI1
aI0
aI4146700
ag86
aa(lp89
I1
aI1
aI0
aI0
aI0
aI1
aI1
aI0
aI1
aI1
aI0
aI0
aI1
aI0
aI1
aI0
aI4148330
aS'_4521876440'
p90
aa(lp91
I1
aI1
aI1
aI0
aI0
aI1
aI0
aI0
aI1
aI1
aI0
aI0
aI1
aI0
aI1
aI0
aI4856600
aS'_4521876440'
p92
aa(lp93
I1
aI1
aI1
aI0
aI0
aI1
aI0
aI0
aI1
aI0
aI0
aI1
aI1
aI1
aI0
aI0
aI2759700
aS'_4521876440'
p94
aa(lp95
I1
aI1
aI0
aI1
aI0
aI1
aI0
aI1
aI1
aI1
aI0
aI0
aI1
aI0
aI1
aI0
aI4939870
aS'_4521876440'
p96
aa(lp97
I1
aI1
aI0
aI0
aI0
aI1
aI0
aI0
aI1
aI1
aI0
aI0
aI1
aI0
aI1
aI0
aI4926230
aS'_4521876440'
p98
aa(lp99
I1
aI0
aI1
aI1
aI1
aI1
aI0
aI1
aI1
aI1
aI0
aI0
aI1
aI0
aI1
aI0
aI5640630
aS'_4521876440'
p100
aaaa(lp101
S'_4445091024'
p102
a(lp103
(lp104
I1
aI0
aI0
aI0
aI1
aI0
aI1
aI1
aI1
aI1
aI0
aI0
aI1
aI1
aI0
aI0
aI2759570
ag102
aa(lp105
I1
aI0
aI1
aI1
aI0
aI0
aI0
aI1
aI1
aI1
aI0
aI0
aI1
aI1
aI0
aI0
aI2599030
aS'_4445091024'
p106
aa(lp107
I1
aI1
aI0
aI1
aI1
aI0
aI0
aI1
aI1
aI1
aI0
aI0
aI1
aI1
aI0
aI0
aI2606170
aS'_4445091024'
p108
aa(lp109
I1
aI1
aI1
aI1
aI1
aI1
aI0
aI1
aI1
aI1
aI0
aI0
aI1
aI1
aI0
aI0
aI2791500
aS'_4445091024'
p110
aa(lp111
I1
aI1
aI0
aI1
aI1
aI0
aI1
aI1
aI1
aI1
aI0
aI0
aI1
aI1
aI0
aI0
aI2605500
aS'_4445091024'
p112
aa(lp113
I1
aI0
aI1
aI0
aI0
aI0
aI1
aI1
aI1
aI1
aI0
aI0
aI1
aI0
aI1
aI0
aI3782830
aS'_4445091024'
p114
aa(lp115
I1
aI1
aI1
aI1
aI1
aI0
aI1
aI1
aI1
aI1
aI0
aI0
aI1
aI0
aI1
aI0
aI4248900
aS'_4445091024'
p116
aaaa(lp117
S'_4521876224'
p118
a(lp119
(lp120
I1
aI0
aI1
aI0
aI0
aI1
aI1
aI1
aI1
aI0
aI1
aI0
aI1
aI0
aI0
aI1
aI5762770
ag118
aa(lp121
I1
aI1
aI1
aI0
aI1
aI1
aI0
aI1
aI1
aI0
aI1
aI0
aI1
aI1
aI0
aI0
aI2798900
aS'_4521876224'
p122
aa(lp123
I1
aI0
aI0
aI0
aI1
aI1
aI0
aI0
aI1
aI0
aI1
aI0
aI1
aI0
aI0
aI1
aI8180400
aS'_4521876224'
p124
aa(lp125
I1
aI1
aI1
aI0
aI0
aI1
aI1
aI0
aI1
aI0
aI1
aI0
aI1
aI0
aI1
aI0
aI4087500
aS'_4521876224'
p126
aa(lp127
I1
aI0
aI1
aI0
aI1
aI0
aI1
aI0
aI1
aI0
aI1
aI0
aI1
aI0
aI1
aI0
aI4458370
aS'_4521876224'
p128
aa(lp129
I1
aI0
aI0
aI0
aI1
aI1
aI1
aI0
aI1
aI0
aI1
aI0
aI1
aI0
aI1
aI0
aI4828770
aS'_4521876224'
p130
aa(lp131
I1
aI0
aI0
aI1
aI0
aI0
aI1
aI1
aI1
aI0
aI1
aI0
aI1
aI0
aI1
aI0
aI3820100
aS'_4521876224'
p132
aa(lp133
I1
aI0
aI0
aI0
aI0
aI1
aI0
aI1
aI1
aI0
aI1
aI0
aI1
aI0
aI1
aI0
aI5191530
aS'_4521876224'
p134
aaaa(lp135
S'_4521875936'
p136
a(lp137
(lp138
I1
aI1
aI1
aI0
aI1
aI0
aI0
aI0
aI1
aI0
aI1
aI0
aI1
aI0
aI1
aI0
aI4866370
ag136
aa(lp139
I1
aI1
aI0
aI1
aI1
aI0
aI0
aI1
aI1
aI0
aI1
aI0
aI1
aI0
aI1
aI0
aI4942670
aS'_4521875936'
p140
aa(lp141
I1
aI1
aI0
aI1
aI1
aI0
aI1
aI0
aI1
aI0
aI1
aI0
aI1
aI0
aI0
aI1
aI6150930
aS'_4521875936'
p142
aa(lp143
I1
aI1
aI0
aI1
aI0
aI0
aI0
aI0
aI1
aI0
aI1
aI0
aI1
aI0
aI1
aI0
aI4270700
aS'_4521875936'
p144
aa(lp145
I1
aI1
aI1
aI0
aI0
aI0
aI0
aI0
aI1
aI0
aI0
aI1
aI1
aI1
aI0
aI0
aI2477300
aS'_4521875936'
p146
aa(lp147
I1
aI0
aI0
aI0
aI1
aI0
aI0
aI0
aI1
aI0
aI1
aI0
aI1
aI0
aI1
aI0
aI5155430
aS'_4521875936'
p148
aa(lp149
I1
aI1
aI0
aI0
aI0
aI0
aI0
aI0
aI1
aI0
aI1
aI0
aI1
aI1
aI0
aI0
aI2567269
aS'_4521875936'
p150
aaaa(lp151
S'_4521873776'
p152
a(lp153
(lp154
I1
aI0
aI1
aI1
aI0
aI1
aI0
aI1
aI1
aI1
aI0
aI0
aI1
aI0
aI0
aI1
aI7159230
ag152
aa(lp155
I1
aI0
aI1
aI1
aI0
aI1
aI0
aI1
aI1
aI0
aI0
aI1
aI1
aI0
aI0
aI1
aI7157470
aS'_4521873776'
p156
aa(lp157
I1
aI1
aI0
aI1
aI0
aI1
aI0
aI1
aI1
aI1
aI0
aI0
aI1
aI0
aI0
aI1
aI6904630
aS'_4521873776'
p158
aa(lp159
I1
aI1
aI1
aI1
aI0
aI0
aI0
aI0
aI1
aI0
aI1
aI0
aI1
aI0
aI0
aI1
aI5835270
aS'_4521873776'
p160
aa(lp161
I1
aI1
aI0
aI1
aI0
aI0
aI0
aI1
aI1
aI0
aI1
aI0
aI1
aI0
aI0
aI1
aI5897400
aS'_4521873776'
p162
aa(lp163
I1
aI1
aI0
aI1
aI1
aI1
aI0
aI0
aI1
aI1
aI0
aI0
aI1
aI0
aI0
aI1
aI7840200
aS'_4521873776'
p164
aa(lp165
I1
aI1
aI1
aI1
aI1
aI1
aI1
aI1
aI1
aI0
aI0
aI1
aI1
aI0
aI0
aI1
aI6440330
aS'_4521873776'
p166
aaaa(lp167
S'_4445093472'
p168
a(lp169
(lp170
I1
aI0
aI1
aI0
aI1
aI1
aI1
aI1
aI1
aI0
aI0
aI1
aI1
aI0
aI1
aI0
aI4769000
ag168
aa(lp171
I1
aI0
aI1
aI0
aI1
aI0
aI0
aI1
aI1
aI0
aI0
aI1
aI1
aI1
aI0
aI0
aI2699500
aS'_4445093472'
p172
aa(lp173
I1
aI0
aI1
aI1
aI1
aI0
aI0
aI1
aI1
aI0
aI0
aI1
aI1
aI0
aI1
aI0
aI5098030
aS'_4445093472'
p174
aa(lp175
I1
aI0
aI0
aI0
aI0
aI0
aI1
aI0
aI1
aI0
aI0
aI1
aI1
aI0
aI1
aI0
aI3841970
aS'_4445093472'
p176
aa(lp177
I1
aI0
aI0
aI0
aI0
aI0
aI1
aI1
aI1
aI0
aI0
aI1
aI1
aI0
aI1
aI0
aI3838900
aS'_4445093472'
p178
aa(lp179
I1
aI0
aI0
aI1
aI0
aI0
aI1
aI1
aI1
aI0
aI0
aI1
aI1
aI0
aI1
aI0
aI3829800
aS'_4445093472'
p180
aa(lp181
I1
aI0
aI1
aI1
aI1
aI0
aI0
aI1
aI1
aI0
aI0
aI1
aI1
aI0
aI0
aI1
aI7337630
aS'_4445093472'
p182
aaaa(lp183
S'_4445091528'
p184
a(lp185
(lp186
I1
aI0
aI1
aI0
aI1
aI0
aI1
aI0
aI1
aI1
aI0
aI0
aI1
aI1
aI0
aI0
aI2666700
ag184
aa(lp187
I1
aI0
aI1
aI1
aI1
aI1
aI1
aI0
aI1
aI1
aI0
aI0
aI1
aI1
aI0
aI0
aI2996370
aS'_4445091528'
p188
aa(lp189
I1
aI0
aI1
aI1
aI1
aI0
aI1
aI0
aI1
aI0
aI0
aI1
aI1
aI0
aI0
aI1
aI6281500
aS'_4445091528'
p190
aa(lp191
I1
aI0
aI1
aI0
aI1
aI0
aI1
aI0
aI1
aI1
aI0
aI0
aI1
aI0
aI0
aI1
aI6270530
aS'_4445091528'
p192
aa(lp193
I1
aI0
aI0
aI1
aI1
aI0
aI1
aI1
aI1
aI1
aI0
aI0
aI1
aI0
aI1
aI0
aI4462500
aS'_4445091528'
p194
aa(lp195
I1
aI0
aI0
aI1
aI1
aI0
aI1
aI1
aI1
aI1
aI0
aI0
aI1
aI0
aI0
aI1
aI6293900
aS'_4445091528'
p196
aa(lp197
I1
aI0
aI1
aI1
aI0
aI0
aI1
aI0
aI1
aI1
aI0
aI0
aI1
aI0
aI0
aI1
aI5063600
aS'_4445091528'
p198
aa(lp199
I1
aI1
aI0
aI1
aI1
aI0
aI1
aI0
aI1
aI1
aI0
aI0
aI1
aI0
aI0
aI1
aI6137630
aS'_4445091528'
p200
aaaa(lp201
S'_4521874280'
p202
a(lp203
(lp204
I1
aI1
aI0
aI1
aI0
aI1
aI0
aI0
aI1
aI0
aI0
aI1
aI1
aI1
aI0
aI0
aI2863530
ag202
aa(lp205
I1
aI1
aI0
aI0
aI0
aI1
aI0
aI0
aI1
aI1
aI0
aI0
aI1
aI0
aI0
aI1
aI6873900
aS'_4521874280'
p206
aa(lp207
I1
aI1
aI1
aI1
aI1
aI1
aI0
aI0
aI1
aI1
aI0
aI0
aI1
aI1
aI0
aI0
aI2791500
aS'_4521874280'
p208
aa(lp209
I1
aI0
aI1
aI0
aI0
aI1
aI0
aI0
aI1
aI1
aI0
aI0
aI1
aI0
aI0
aI1
aI7127430
aS'_4521874280'
p210
aa(lp211
I1
aI1
aI0
aI1
aI1
aI1
aI0
aI0
aI1
aI0
aI1
aI0
aI1
aI1
aI0
aI0
aI2910670
aS'_4521874280'
p212
aa(lp213
I1
aI0
aI0
aI1
aI0
aI1
aI0
aI0
aI1
aI1
aI0
aI0
aI1
aI0
aI0
aI1
aI7268900
aS'_4521874280'
p214
aa(lp215
I1
aI0
aI0
aI1
aI0
aI0
aI0
aI0
aI1
aI0
aI1
aI0
aI1
aI0
aI0
aI1
aI6166200
aS'_4521874280'
p216
aaaa(lp217
S'_4445090448'
p218
a(lp219
(lp220
I1
aI0
aI1
aI1
aI1
aI0
aI1
aI1
aI1
aI0
aI0
aI1
aI1
aI0
aI0
aI1
aI6278130
ag218
aa(lp221
I1
aI0
aI0
aI0
aI0
aI1
aI1
aI1
aI1
aI0
aI0
aI1
aI1
aI0
aI0
aI1
aI5806070
aS'_4445090448'
p222
aa(lp223
I1
aI0
aI0
aI1
aI1
aI0
aI1
aI1
aI1
aI0
aI1
aI0
aI1
aI0
aI1
aI0
aI4481100
aS'_4445090448'
p224
aa(lp225
I1
aI1
aI1
aI0
aI1
aI0
aI1
aI1
aI1
aI0
aI1
aI0
aI1
aI0
aI0
aI1
aI6106870
aS'_4445090448'
p226
aa(lp227
I1
aI0
aI1
aI0
aI0
aI0
aI1
aI1
aI1
aI0
aI1
aI0
aI1
aI0
aI0
aI1
aI5090330
aS'_4445090448'
p228
aa(lp229
I1
aI0
aI0
aI1
aI0
aI0
aI1
aI0
aI1
aI0
aI0
aI1
aI1
aI0
aI0
aI1
aI5108370
aS'_4445090448'
p230
aa(lp231
I1
aI0
aI0
aI1
aI0
aI0
aI1
aI1
aI1
aI0
aI1
aI0
aI1
aI0
aI0
aI1
aI5100170
aS'_4445090448'
p232
aaaa(lp233
S'_4445091312'
p234
a(lp235
(lp236
I1
aI1
aI0
aI0
aI0
aI0
aI0
aI0
aI1
aI1
aI0
aI0
aI1
aI1
aI0
aI0
aI2545870
ag234
aa(lp237
I1
aI1
aI0
aI0
aI0
aI0
aI0
aI1
aI1
aI1
aI0
aI0
aI1
aI1
aI0
aI0
aI2547330
aS'_4445091312'
p238
aa(lp239
I1
aI0
aI1
aI0
aI0
aI1
aI1
aI0
aI1
aI1
aI0
aI0
aI1
aI1
aI0
aI0
aI2955070
aS'_4445091312'
p240
aa(lp241
I1
aI0
aI0
aI0
aI1
aI0
aI1
aI0
aI1
aI1
aI0
aI0
aI1
aI1
aI0
aI0
aI2760299
aS'_4445091312'
p242
aa(lp243
I1
aI0
aI0
aI0
aI0
aI0
aI0
aI0
aI1
aI1
aI0
aI0
aI1
aI0
aI1
aI0
aI4422500
aS'_4445091312'
p244
aa(lp245
I1
aI0
aI1
aI0
aI0
aI0
aI1
aI0
aI1
aI1
aI0
aI0
aI1
aI1
aI0
aI0
aI2604800
aS'_4445091312'
p246
aa(lp247
I1
aI0
aI0
aI1
aI1
aI1
aI0
aI1
aI1
aI1
aI0
aI0
aI1
aI1
aI0
aI0
aI3102170
aS'_4445091312'
p248
aaaa(lp249
S'_4521873560'
p250
a(lp251
(lp252
I1
aI1
aI1
aI1
aI1
aI1
aI1
aI0
aI1
aI0
aI0
aI1
aI1
aI0
aI0
aI1
aI6441600
ag250
aa(lp253
I1
aI0
aI1
aI1
aI1
aI0
aI1
aI0
aI1
aI0
aI1
aI0
aI1
aI0
aI0
aI1
aI6275000
aS'_4521873560'
p254
aa(lp255
I1
aI0
aI1
aI1
aI0
aI1
aI1
aI0
aI1
aI0
aI0
aI1
aI1
aI1
aI0
aI0
aI2954130
aS'_4521873560'
p256
aa(lp257
I1
aI1
aI1
aI0
aI1
aI0
aI0
aI0
aI1
aI0
aI1
aI0
aI1
aI0
aI0
aI1
aI7053970
aS'_4521873560'
p258
aa(lp259
I1
aI1
aI1
aI0
aI0
aI0
aI1
aI0
aI1
aI0
aI1
aI0
aI1
aI0
aI0
aI1
aI4932770
aS'_4521873560'
p260
aa(lp261
I1
aI0
aI1
aI1
aI0
aI0
aI1
aI0
aI1
aI0
aI1
aI0
aI1
aI1
aI0
aI0
aI2621700
aS'_4521873560'
p262
aa(lp263
I1
aI0
aI1
aI0
aI0
aI0
aI1
aI0
aI1
aI0
aI1
aI0
aI1
aI0
aI0
aI1
aI5093700
aS'_4521873560'
p264
aaaa.