(lp0
(lp1
S'_4483038024'
p2
a(lp3
(lp4
I1
aI1
aI0
aI0
aI0
aI1
aI0
aI1
aI0
aI10200000
ag2
aa(lp5
I1
aI0
aI0
aI0
aI0
aI1
aI1
aI1
aI0
aI11400000
aS'_4483038024'
p6
aa(lp7
I1
aI0
aI0
aI0
aI0
aI1
aI0
aI1
aI0
aI12600000
aS'_4483038024'
p8
aa(lp9
I1
aI1
aI0
aI0
aI0
aI0
aI0
aI1
aI0
aI11100000
aS'_4483038024'
p10
aa(lp11
I1
aI0
aI0
aI0
aI0
aI0
aI0
aI1
aI0
aI14100000
aS'_4483038024'
p12
aaaa(lp13
S'_4446000984'
p14
a(lp15
(lp16
I1
aI1
aI1
aI0
aI0
aI0
aI0
aI1
aI0
aI22800000
ag14
aa(lp17
I1
aI0
aI1
aI1
aI0
aI0
aI0
aI1
aI0
aI24600000
aS'_4446000984'
p18
aa(lp19
I1
aI1
aI0
aI1
aI0
aI0
aI0
aI1
aI0
aI11100000
aS'_4446000984'
p20
aa(lp21
I1
aI0
aI1
aI1
aI0
aI0
aI0
aI0
aI0
aI22200000
aS'_4446000984'
p22
aa(lp23
I1
aI1
aI0
aI1
aI1
aI0
aI0
aI1
aI0
aI11400000
aS'_4446000984'
p24
aaaa(lp25
S'_4483138264'
p26
a(lp27
(lp28
I1
aI0
aI1
aI0
aI1
aI1
aI1
aI0
aI1
aI12300000
ag26
aa(lp29
I1
aI0
aI0
aI0
aI1
aI1
aI1
aI0
aI1
aI10500000
aS'_4483138264'
p30
aa(lp31
I1
aI0
aI0
aI0
aI1
aI1
aI1
aI0
aI0
aI9900000
aS'_4483138264'
p32
aa(lp33
I1
aI0
aI0
aI1
aI1
aI1
aI1
aI0
aI1
aI11100000
aS'_4483138264'
p34
aa(lp35
I1
aI0
aI0
aI0
aI0
aI1
aI1
aI0
aI1
aI10800000
aS'_4483138264'
p36
aaaa(lp37
S'_4483137616'
p38
a(lp39
(lp40
I1
aI1
aI1
aI1
aI1
aI1
aI1
aI1
aI0
aI18600000
ag38
aa(lp41
I1
aI0
aI0
aI1
aI1
aI1
aI1
aI1
aI0
aI12300000
aS'_4483137616'
p42
aa(lp43
I1
aI0
aI0
aI1
aI1
aI1
aI0
aI1
aI0
aI12600000
aS'_4483137616'
p44
aa(lp45
I1
aI0
aI1
aI1
aI1
aI1
aI1
aI1
aI0
aI20700000
aS'_4483137616'
p46
aa(lp47
I1
aI0
aI1
aI1
aI1
aI1
aI0
aI1
aI0
aI21900000
aS'_4483137616'
p48
aaaa(lp49
S'_4446001128'
p50
a(lp51
(lp52
I1
aI1
aI0
aI0
aI0
aI0
aI0
aI0
aI1
aI9900000
ag50
aa(lp53
I1
aI1
aI1
aI0
aI0
aI0
aI1
aI0
aI1
aI10200000
aS'_4446001128'
p54
aa(lp55
I1
aI0
aI1
aI1
aI0
aI0
aI1
aI0
aI1
aI13200000
aS'_4446001128'
p56
aa(lp57
I1
aI1
aI0
aI1
aI0
aI0
aI1
aI0
aI1
aI9600000
aS'_4446001128'
p58
aa(lp59
I1
aI1
aI1
aI1
aI0
aI0
aI0
aI0
aI1
aI11700000
aS'_4446001128'
p60
aaaa(lp61
S'_4446002424'
p62
a(lp63
(lp64
I1
aI1
aI1
aI0
aI1
aI0
aI1
aI0
aI1
aI11700000
ag62
aa(lp65
I1
aI1
aI1
aI1
aI1
aI1
aI1
aI0
aI0
aI18000000
aS'_4446002424'
p66
aa(lp67
I1
aI1
aI1
aI1
aI1
aI1
aI0
aI0
aI1
aI11700000
aS'_4446002424'
p68
aa(lp69
I1
aI1
aI1
aI1
aI0
aI0
aI1
aI0
aI1
aI11700000
aS'_4446002424'
p70
aa(lp71
I1
aI1
aI1
aI1
aI0
aI1
aI1
aI0
aI1
aI14700000
aS'_4446002424'
p72
aaaa(lp73
S'_4446002712'
p74
a(lp75
(lp76
I1
aI1
aI0
aI1
aI1
aI0
aI1
aI1
aI0
aI10800000
ag74
aa(lp77
I1
aI1
aI0
aI0
aI1
aI1
aI1
aI1
aI0
aI9600000
aS'_4446002712'
p78
aa(lp79
I1
aI0
aI0
aI1
aI1
aI1
aI1
aI0
aI0
aI11100000
aS'_4446002712'
p80
aa(lp81
I1
aI0
aI0
aI0
aI1
aI1
aI1
aI1
aI0
aI12300000
aS'_4446002712'
p82
aaaa(lp83
S'_4446000480'
p84
a(lp85
(lp86
I1
aI0
aI0
aI1
aI1
aI1
aI0
aI0
aI1
aI11400000
ag84
aa(lp87
I1
aI0
aI0
aI0
aI0
aI0
aI0
aI0
aI1
aI12300000
aS'_4446000480'
p88
aa(lp89
I1
aI0
aI1
aI1
aI0
aI0
aI0
aI0
aI1
aI12900000
aS'_4446000480'
p90
aa(lp91
I1
aI0
aI1
aI1
aI1
aI0
aI0
aI0
aI1
aI12000000
aS'_4446000480'
p92
aa(lp93
I1
aI0
aI1
aI0
aI1
aI0
aI0
aI0
aI1
aI13800000
aS'_4446000480'
p94
aaaa(lp95
S'_4483138480'
p96
a(lp97
(lp98
I1
aI0
aI1
aI0
aI1
aI0
aI0
aI1
aI0
aI24000000
ag96
aa(lp99
I1
aI0
aI0
aI0
aI1
aI0
aI1
aI1
aI0
aI13800000
aS'_4483138480'
p100
aa(lp101
I1
aI0
aI0
aI1
aI1
aI0
aI1
aI0
aI0
aI11700000
aS'_4483138480'
p102
aa(lp103
I1
aI0
aI1
aI0
aI0
aI0
aI1
aI0
aI0
aI19200000
aS'_4483138480'
p104
aa(lp105
I1
aI0
aI1
aI1
aI1
aI0
aI1
aI1
aI0
aI24300000
aS'_4483138480'
p106
aaaa(lp107
S'_4446003144'
p108
a(lp109
(lp110
I1
aI1
aI0
aI1
aI0
aI0
aI0
aI0
aI1
aI9900000
ag108
aa(lp111
I1
aI0
aI0
aI1
aI0
aI0
aI0
aI0
aI1
aI12000000
aS'_4446003144'
p112
aa(lp113
I1
aI0
aI0
aI1
aI1
aI0
aI0
aI0
aI0
aI13500000
aS'_4446003144'
p114
aa(lp115
I1
aI0
aI0
aI1
aI1
aI0
aI1
aI0
aI1
aI12300000
aS'_4446003144'
p116
aaaa(lp117
S'_4446002064'
p118
a(lp119
(lp120
I1
aI0
aI1
aI0
aI1
aI1
aI0
aI0
aI1
aI13500000
ag118
aa(lp121
I1
aI0
aI1
aI0
aI0
aI1
aI0
aI0
aI1
aI12300000
aS'_4446002064'
p122
aa(lp123
I1
aI1
aI1
aI0
aI0
aI1
aI1
aI0
aI1
aI11400000
aS'_4446002064'
p124
aa(lp125
I1
aI1
aI0
aI0
aI0
aI1
aI1
aI0
aI1
aI8700000
aS'_4446002064'
p126
aa(lp127
I1
aI0
aI1
aI0
aI0
aI0
aI0
aI0
aI1
aI12000000
aS'_4446002064'
p128
aaaa(lp129
S'_4483138552'
p130
a(lp131
(lp132
I1
aI0
aI0
aI0
aI0
aI1
aI1
aI0
aI0
aI10200000
ag130
aa(lp133
I1
aI0
aI0
aI0
aI0
aI1
aI0
aI0
aI1
aI10500000
aS'_4483138552'
p134
aa(lp135
I1
aI0
aI0
aI0
aI0
aI0
aI0
aI0
aI0
aI12000000
aS'_4483138552'
p136
aa(lp137
I1
aI0
aI0
aI1
aI0
aI1
aI1
aI0
aI0
aI10800000
aS'_4483138552'
p138
aa(lp139
I1
aI0
aI0
aI1
aI0
aI1
aI0
aI0
aI0
aI11700000
aS'_4483138552'
p140
aaaa(lp141
S'_4446001056'
p142
a(lp143
(lp144
I1
aI1
aI0
aI0
aI1
aI0
aI0
aI0
aI0
aI9600000
ag142
aa(lp145
I1
aI0
aI1
aI0
aI1
aI0
aI0
aI0
aI0
aI21000000
aS'_4446001056'
p146
aa(lp147
I1
aI1
aI1
aI0
aI0
aI0
aI0
aI0
aI0
aI19500000
aS'_4446001056'
p148
aa(lp149
I1
aI1
aI1
aI0
aI1
aI0
aI1
aI0
aI0
aI18900000
aS'_4446001056'
p150
aaaa(lp151
S'_4445999904'
p152
a(lp153
(lp154
I1
aI1
aI1
aI1
aI1
aI1
aI0
aI1
aI0
aI21000000
ag152
aa(lp155
I1
aI1
aI1
aI1
aI0
aI1
aI1
aI0
aI0
aI17700000
aS'_4445999904'
p156
aa(lp157
I1
aI0
aI1
aI1
aI1
aI0
aI0
aI0
aI0
aI23700000
aS'_4445999904'
p158
aa(lp159
I1
aI1
aI1
aI1
aI1
aI0
aI0
aI0
aI0
aI22200000
aS'_4445999904'
p160
aa(lp161
I1
aI1
aI1
aI1
aI1
aI1
aI0
aI0
aI0
aI19200000
aS'_4445999904'
p162
aaaa(lp163
S'_4483037808'
p164
a(lp165
(lp166
I1
aI1
aI0
aI0
aI1
aI1
aI1
aI0
aI0
aI8400000
ag164
aa(lp167
I1
aI0
aI1
aI1
aI0
aI1
aI1
aI0
aI0
aI18300000
aS'_4483037808'
p168
aa(lp169
I1
aI1
aI1
aI0
aI0
aI1
aI1
aI1
aI0
aI18600000
aS'_4483037808'
p170
aa(lp171
I1
aI1
aI0
aI1
aI0
aI1
aI0
aI1
aI0
aI9900000
aS'_4483037808'
p172
aa(lp173
I1
aI1
aI1
aI0
aI0
aI1
aI0
aI1
aI0
aI19800000
aS'_4483037808'
p174
aaaa(lp175
S'_4483141576'
p176
a(lp177
(lp178
I1
aI1
aI1
aI0
aI1
aI1
aI1
aI0
aI0
aI16800000
ag176
aa(lp179
I1
aI0
aI1
aI1
aI0
aI0
aI1
aI1
aI0
aI23100000
aS'_4483141576'
p180
aa(lp181
I1
aI1
aI0
aI1
aI0
aI0
aI1
aI1
aI0
aI10200000
aS'_4483141576'
p182
aa(lp183
I1
aI0
aI1
aI1
aI0
aI1
aI1
aI1
aI0
aI19800000
aS'_4483141576'
p184
aa(lp185
I1
aI1
aI1
aI1
aI0
aI1
aI1
aI1
aI0
aI18600000
aS'_4483141576'
p186
aaaa.