(lp0
(lp1
S'_4483891280'
p2
a(lp3
(lp4
I1
aI0
aI0
aI0
aI1
aI0
aI1
aI0
aI0
aI11400000
ag2
aa(lp5
I1
aI0
aI1
aI0
aI1
aI0
aI1
aI1
aI0
aI24300000
aS'_4483891280'
p6
aa(lp7
I1
aI0
aI0
aI0
aI0
aI0
aI1
aI1
aI0
aI12900000
aS'_4483891280'
p8
aa(lp9
I1
aI0
aI0
aI1
aI1
aI0
aI1
aI0
aI0
aI11700000
aS'_4483891280'
p10
aa(lp11
I1
aI0
aI1
aI1
aI1
aI0
aI1
aI1
aI0
aI24300000
aS'_4483891280'
p12
aa(lp13
I1
aI1
aI1
aI1
aI1
aI0
aI0
aI1
aI0
aI23400000
aS'_4483891280'
p14
aa(lp15
I1
aI0
aI1
aI0
aI1
aI0
aI0
aI1
aI0
aI24000000
aS'_4483891280'
p16
aa(lp17
I1
aI0
aI0
aI0
aI1
aI0
aI1
aI1
aI0
aI13800000
aS'_4483891280'
p18
aa(lp19
I1
aI0
aI0
aI0
aI1
aI0
aI0
aI1
aI0
aI14100000
aS'_4483891280'
p20
aa(lp21
I1
aI0
aI0
aI1
aI1
aI0
aI0
aI1
aI0
aI14700000
aS'_4483891280'
p22
aaaa(lp23
S'_4445941056'
p24
a(lp25
(lp26
I1
aI0
aI1
aI0
aI1
aI1
aI0
aI0
aI0
aI18300000
ag24
aa(lp27
I1
aI0
aI0
aI0
aI1
aI0
aI1
aI0
aI1
aI12000000
aS'_4445941056'
p28
aa(lp29
I1
aI0
aI1
aI0
aI1
aI0
aI0
aI0
aI1
aI13800000
aS'_4445941056'
p30
aa(lp31
I1
aI0
aI1
aI0
aI1
aI0
aI1
aI0
aI1
aI11100000
aS'_4445941056'
p32
aa(lp33
I1
aI1
aI1
aI0
aI0
aI1
aI0
aI0
aI0
aI17100000
aS'_4445941056'
p34
aa(lp35
I1
aI0
aI0
aI0
aI0
aI1
aI1
aI0
aI1
aI10800000
aS'_4445941056'
p36
aa(lp37
I1
aI0
aI1
aI0
aI0
aI1
aI1
aI0
aI0
aI16800000
aS'_4445941056'
p38
aa(lp39
I1
aI0
aI1
aI0
aI0
aI1
aI1
aI0
aI1
aI12600000
aS'_4445941056'
p40
aa(lp41
I1
aI0
aI1
aI0
aI1
aI1
aI1
aI0
aI1
aI12300000
aS'_4445941056'
p42
aa(lp43
I1
aI1
aI1
aI0
aI0
aI1
aI1
aI0
aI1
aI11400000
aS'_4445941056'
p44
aaaa(lp45
S'_4445940264'
p46
a(lp47
(lp48
I1
aI1
aI0
aI0
aI1
aI1
aI1
aI0
aI1
aI9000000
ag46
aa(lp49
I1
aI1
aI1
aI0
aI1
aI0
aI0
aI0
aI0
aI19500000
aS'_4445940264'
p50
aa(lp51
I1
aI1
aI0
aI1
aI1
aI0
aI1
aI0
aI1
aI9900000
aS'_4445940264'
p52
aa(lp53
I1
aI1
aI0
aI1
aI1
aI0
aI0
aI0
aI0
aI10800000
aS'_4445940264'
p54
aa(lp55
I1
aI1
aI0
aI0
aI1
aI1
aI0
aI0
aI0
aI9000000
aS'_4445940264'
p56
aa(lp57
I1
aI1
aI1
aI1
aI1
aI0
aI0
aI0
aI1
aI10500000
aS'_4445940264'
p58
aa(lp59
I1
aI1
aI0
aI1
aI1
aI1
aI0
aI0
aI1
aI9300000
aS'_4445940264'
p60
aa(lp61
I1
aI1
aI0
aI0
aI1
aI1
aI0
aI0
aI1
aI9300000
aS'_4445940264'
p62
aa(lp63
I1
aI1
aI0
aI0
aI1
aI0
aI0
aI0
aI0
aI9600000
aS'_4445940264'
p64
aa(lp65
I1
aI1
aI0
aI0
aI1
aI0
aI0
aI0
aI1
aI10200000
aS'_4445940264'
p66
aaaa(lp67
S'_4445938968'
p68
a(lp69
(lp70
I1
aI1
aI1
aI0
aI0
aI0
aI1
aI1
aI0
aI21600000
ag68
aa(lp71
I1
aI0
aI1
aI1
aI0
aI0
aI0
aI0
aI0
aI22200000
aS'_4445938968'
p72
aa(lp73
I1
aI1
aI0
aI0
aI0
aI0
aI0
aI1
aI0
aI11100000
aS'_4445938968'
p74
aa(lp75
I1
aI1
aI1
aI1
aI0
aI0
aI1
aI0
aI0
aI20100000
aS'_4445938968'
p76
aa(lp77
I1
aI1
aI1
aI0
aI1
aI0
aI1
aI1
aI0
aI21900000
aS'_4445938968'
p78
aa(lp79
I1
aI1
aI1
aI0
aI1
aI0
aI0
aI1
aI0
aI22800000
aS'_4445938968'
p80
aa(lp81
I1
aI1
aI1
aI1
aI0
aI0
aI1
aI1
aI0
aI21600000
aS'_4445938968'
p82
aa(lp83
I1
aI1
aI1
aI0
aI0
aI1
aI0
aI1
aI0
aI19800000
aS'_4445938968'
p84
aa(lp85
I1
aI1
aI1
aI1
aI0
aI0
aI0
aI1
aI0
aI21600000
aS'_4445938968'
p86
aa(lp87
I1
aI1
aI1
aI1
aI0
aI1
aI0
aI1
aI0
aI18900000
aS'_4445938968'
p88
aaaa(lp89
S'_4483894448'
p90
a(lp91
(lp92
I1
aI0
aI1
aI1
aI0
aI1
aI1
aI1
aI0
aI19800000
ag90
aa(lp93
I1
aI0
aI0
aI1
aI0
aI1
aI1
aI1
aI0
aI11400000
aS'_4483894448'
p94
aa(lp95
I1
aI0
aI1
aI1
aI0
aI0
aI1
aI1
aI0
aI23100000
aS'_4483894448'
p96
aa(lp97
I1
aI0
aI1
aI0
aI1
aI1
aI1
aI0
aI0
aI17400000
aS'_4483894448'
p98
aa(lp99
I1
aI0
aI0
aI1
aI0
aI1
aI0
aI0
aI0
aI11700000
aS'_4483894448'
p100
aa(lp101
I1
aI0
aI0
aI1
aI0
aI0
aI0
aI1
aI0
aI14100000
aS'_4483894448'
p102
aa(lp103
I1
aI0
aI1
aI1
aI0
aI1
aI1
aI0
aI1
aI12300000
aS'_4483894448'
p104
aa(lp105
I1
aI0
aI1
aI1
aI1
aI1
aI0
aI0
aI1
aI12000000
aS'_4483894448'
p106
aa(lp107
I1
aI0
aI0
aI1
aI0
aI0
aI0
aI0
aI0
aI13200000
aS'_4483894448'
p108
aaaa(lp109
S'_4445941200'
p110
a(lp111
(lp112
I1
aI1
aI0
aI1
aI0
aI0
aI0
aI0
aI0
aI10500000
ag110
aa(lp113
I1
aI1
aI0
aI1
aI0
aI0
aI0
aI0
aI1
aI9900000
aS'_4445941200'
p114
aa(lp115
I1
aI1
aI0
aI0
aI0
aI0
aI0
aI0
aI0
aI9900000
aS'_4445941200'
p116
aa(lp117
I1
aI1
aI1
aI1
aI0
aI1
aI0
aI0
aI0
aI18900000
aS'_4445941200'
p118
aa(lp119
I1
aI1
aI1
aI1
aI0
aI0
aI0
aI0
aI1
aI11700000
aS'_4445941200'
p120
aa(lp121
I1
aI1
aI0
aI0
aI0
aI0
aI0
aI0
aI1
aI9900000
aS'_4445941200'
p122
aa(lp123
I1
aI1
aI1
aI1
aI0
aI0
aI1
aI0
aI1
aI11700000
aS'_4445941200'
p124
aa(lp125
I1
aI0
aI1
aI1
aI0
aI0
aI0
aI0
aI1
aI12900000
aS'_4445941200'
p126
aa(lp127
I1
aI1
aI1
aI0
aI0
aI0
aI0
aI0
aI1
aI11400000
aS'_4445941200'
p128
aaaa(lp129
S'_4445961824'
p130
a(lp131
(lp132
I1
aI1
aI0
aI0
aI0
aI1
aI1
aI0
aI0
aI8400000
ag130
aa(lp133
I1
aI1
aI0
aI1
aI1
aI1
aI1
aI0
aI0
aI9000000
aS'_4445961824'
p134
aa(lp135
I1
aI0
aI0
aI1
aI1
aI1
aI1
aI1
aI0
aI12300000
aS'_4445961824'
p136
aa(lp137
I1
aI1
aI0
aI1
aI1
aI0
aI1
aI1
aI0
aI10800000
aS'_4445961824'
p138
aa(lp139
I1
aI0
aI0
aI0
aI0
aI1
aI1
aI1
aI0
aI11400000
aS'_4445961824'
p140
aa(lp141
I1
aI0
aI1
aI0
aI0
aI1
aI1
aI1
aI0
aI19800000
aS'_4445961824'
p142
aa(lp143
I1
aI1
aI0
aI1
aI0
aI0
aI1
aI1
aI0
aI10200000
aS'_4445961824'
p144
aa(lp145
I1
aI1
aI0
aI1
aI0
aI0
aI1
aI0
aI0
aI9600000
aS'_4445961824'
p146
aa(lp147
I1
aI0
aI0
aI1
aI0
aI0
aI1
aI1
aI0
aI13200000
aS'_4445961824'
p148
aa(lp149
I1
aI0
aI0
aI1
aI0
aI0
aI1
aI0
aI0
aI12300000
aS'_4445961824'
p150
aaaa(lp151
S'_4483894664'
p152
a(lp153
(lp154
I1
aI0
aI0
aI1
aI1
aI1
aI1
aI0
aI0
aI11100000
ag152
aa(lp155
I1
aI0
aI1
aI1
aI1
aI0
aI1
aI0
aI0
aI21900000
aS'_4483894664'
p156
aa(lp157
I1
aI0
aI1
aI1
aI1
aI1
aI1
aI0
aI1
aI11700000
aS'_4483894664'
p158
aa(lp159
I1
aI0
aI0
aI0
aI1
aI1
aI1
aI0
aI1
aI10500000
aS'_4483894664'
p160
aa(lp161
I1
aI0
aI0
aI1
aI1
aI0
aI0
aI0
aI0
aI13500000
aS'_4483894664'
p162
aa(lp163
I1
aI0
aI0
aI1
aI0
aI0
aI1
aI0
aI1
aI11400000
aS'_4483894664'
p164
aa(lp165
I1
aI0
aI0
aI1
aI1
aI1
aI0
aI0
aI1
aI11400000
aS'_4483894664'
p166
aa(lp167
I1
aI0
aI0
aI1
aI1
aI1
aI1
aI0
aI1
aI11100000
aS'_4483894664'
p168
aa(lp169
I1
aI0
aI0
aI1
aI1
aI0
aI0
aI0
aI1
aI12000000
aS'_4483894664'
p170
aa(lp171
I1
aI0
aI0
aI1
aI1
aI0
aI1
aI0
aI1
aI12300000
aS'_4483894664'
p172
aaaa(lp173
S'_4445958224'
p174
a(lp175
(lp176
I1
aI1
aI0
aI0
aI1
aI1
aI0
aI1
aI0
aI10200000
ag174
aa(lp177
I1
aI1
aI0
aI0
aI1
aI1
aI1
aI1
aI0
aI9600000
aS'_4445958224'
p178
aa(lp179
I1
aI1
aI0
aI0
aI0
aI1
aI0
aI1
aI0
aI10200000
aS'_4445958224'
p180
aa(lp181
I1
aI1
aI0
aI0
aI1
aI0
aI1
aI1
aI0
aI10500000
aS'_4445958224'
p182
aa(lp183
I1
aI0
aI0
aI0
aI0
aI1
aI0
aI1
aI0
aI12600000
aS'_4445958224'
p184
aa(lp185
I1
aI1
aI0
aI0
aI0
aI1
aI1
aI1
aI0
aI9300000
aS'_4445958224'
p186
aa(lp187
I1
aI1
aI0
aI1
aI1
aI1
aI1
aI1
aI0
aI9900000
aS'_4445958224'
p188
aa(lp189
I1
aI1
aI0
aI1
aI1
aI0
aI0
aI1
aI0
aI11400000
aS'_4445958224'
p190
aa(lp191
I1
aI1
aI0
aI1
aI0
aI1
aI1
aI1
aI0
aI9600000
aS'_4445958224'
p192
aaaa(lp193
S'_4445941560'
p194
a(lp195
(lp196
I1
aI1
aI1
aI1
aI0
aI1
aI1
aI0
aI0
aI17700000
ag194
aa(lp197
I1
aI1
aI0
aI1
aI0
aI1
aI1
aI0
aI1
aI8700000
aS'_4445941560'
p198
aa(lp199
I1
aI1
aI0
aI1
aI0
aI1
aI0
aI0
aI1
aI9300000
aS'_4445941560'
p200
aa(lp201
I1
aI1
aI0
aI0
aI0
aI1
aI0
aI0
aI0
aI9000000
aS'_4445941560'
p202
aa(lp203
I1
aI1
aI0
aI0
aI0
aI1
aI1
aI0
aI1
aI8700000
aS'_4445941560'
p204
aa(lp205
I1
aI1
aI1
aI0
aI1
aI1
aI0
aI0
aI0
aI17700000
aS'_4445941560'
p206
aa(lp207
I1
aI0
aI0
aI1
aI0
aI1
aI0
aI0
aI1
aI11100000
aS'_4445941560'
p208
aa(lp209
I1
aI1
aI0
aI0
aI0
aI0
aI1
aI0
aI1
aI9600000
aS'_4445941560'
p210
aa(lp211
I1
aI1
aI0
aI0
aI1
aI0
aI1
aI0
aI0
aI9300000
aS'_4445941560'
p212
aaaa(lp213
S'_4483895240'
p214
a(lp215
(lp216
I1
aI0
aI1
aI1
aI0
aI0
aI0
aI1
aI0
aI24600000
ag214
aa(lp217
I1
aI0
aI1
aI1
aI0
aI1
aI0
aI1
aI0
aI21000000
aS'_4483895240'
p218
aa(lp219
I1
aI0
aI1
aI1
aI1
aI0
aI0
aI1
aI0
aI26400000
aS'_4483895240'
p220
aa(lp221
I1
aI0
aI0
aI1
aI0
aI1
aI0
aI1
aI0
aI12600000
aS'_4483895240'
p222
aa(lp223
I1
aI0
aI1
aI1
aI1
aI1
aI0
aI1
aI0
aI21900000
aS'_4483895240'
p224
aa(lp225
I1
aI0
aI0
aI1
aI1
aI1
aI0
aI1
aI0
aI12600000
aS'_4483895240'
p226
aa(lp227
I1
aI1
aI0
aI1
aI0
aI1
aI0
aI1
aI0
aI9900000
aS'_4483895240'
p228
aa(lp229
I1
aI0
aI0
aI0
aI1
aI0
aI0
aI0
aI0
aI12000000
aS'_4483895240'
p230
aa(lp231
I1
aI0
aI0
aI0
aI1
aI1
aI0
aI0
aI0
aI10200000
aS'_4483895240'
p232
aa(lp233
I1
aI0
aI1
aI1
aI1
aI1
aI1
aI1
aI0
aI20700000
aS'_4483895240'
p234
aaaa(lp235
S'_4445940624'
p236
a(lp237
(lp238
I1
aI0
aI0
aI0
aI0
aI0
aI0
aI0
aI1
aI12300000
ag236
aa(lp239
I1
aI1
aI1
aI1
aI0
aI1
aI1
aI0
aI1
aI14700000
aS'_4445940624'
p240
aa(lp241
I1
aI1
aI1
aI1
aI1
aI0
aI1
aI0
aI1
aI12000000
aS'_4445940624'
p242
aa(lp243
I1
aI1
aI1
aI0
aI0
aI1
aI0
aI0
aI1
aI12000000
aS'_4445940624'
p244
aa(lp245
I1
aI0
aI0
aI0
aI0
aI1
aI0
aI0
aI1
aI10500000
aS'_4445940624'
p246
aa(lp247
I1
aI0
aI1
aI1
aI1
aI0
aI0
aI0
aI1
aI12000000
aS'_4445940624'
p248
aa(lp249
I1
aI1
aI1
aI0
aI1
aI0
aI0
aI0
aI1
aI13200000
aS'_4445940624'
p250
aa(lp251
I1
aI0
aI1
aI1
aI0
aI1
aI0
aI0
aI1
aI10200000
aS'_4445940624'
p252
aa(lp253
I1
aI0
aI1
aI0
aI0
aI1
aI0
aI0
aI1
aI12300000
aS'_4445940624'
p254
aa(lp255
I1
aI0
aI1
aI0
aI1
aI1
aI0
aI0
aI1
aI13500000
aS'_4445940624'
p256
aaaa(lp257
S'_4483894736'
p258
a(lp259
(lp260
I1
aI1
aI1
aI1
aI0
aI1
aI1
aI1
aI0
aI18600000
ag258
aa(lp261
I1
aI0
aI0
aI1
aI1
aI1
aI0
aI0
aI0
aI12000000
aS'_4483894736'
p262
aa(lp263
I1
aI1
aI0
aI1
aI1
aI1
aI0
aI1
aI0
aI10200000
aS'_4483894736'
p264
aa(lp265
I1
aI0
aI1
aI0
aI1
aI1
aI1
aI1
aI0
aI21000000
aS'_4483894736'
p266
aa(lp267
I1
aI1
aI1
aI1
aI1
aI1
aI0
aI0
aI0
aI19200000
aS'_4483894736'
p268
aa(lp269
I1
aI0
aI1
aI1
aI1
aI1
aI1
aI0
aI0
aI18900000
aS'_4483894736'
p270
aa(lp271
I1
aI1
aI1
aI1
aI1
aI1
aI1
aI1
aI0
aI18600000
aS'_4483894736'
p272
aa(lp273
I1
aI0
aI0
aI0
aI1
aI1
aI1
aI0
aI0
aI9900000
aS'_4483894736'
p274
aa(lp275
I1
aI1
aI1
aI1
aI1
aI1
aI1
aI0
aI0
aI18000000
aS'_4483894736'
p276
aa(lp277
I1
aI1
aI1
aI1
aI1
aI1
aI1
aI0
aI1
aI8700000
aS'_4483894736'
p278
aaaa(lp279
S'_4445938320'
p280
a(lp281
(lp282
I1
aI0
aI0
aI0
aI0
aI0
aI0
aI1
aI0
aI14100000
ag280
aa(lp283
I1
aI1
aI0
aI0
aI1
aI0
aI0
aI1
aI0
aI11400000
aS'_4445938320'
p284
aa(lp285
I1
aI0
aI0
aI0
aI0
aI0
aI0
aI0
aI0
aI12000000
aS'_4445938320'
p286
aa(lp287
I1
aI0
aI1
aI0
aI0
aI0
aI0
aI0
aI0
aI20400000
aS'_4445938320'
p288
aa(lp289
I1
aI0
aI0
aI0
aI0
aI0
aI1
aI0
aI0
aI11100000
aS'_4445938320'
p290
aa(lp291
I1
aI0
aI0
aI0
aI0
aI1
aI0
aI0
aI0
aI10800000
aS'_4445938320'
p292
aa(lp293
I1
aI0
aI1
aI1
aI1
aI0
aI0
aI0
aI0
aI23700000
aS'_4445938320'
p294
aa(lp295
I1
aI0
aI1
aI0
aI0
aI1
aI0
aI0
aI0
aI17700000
aS'_4445938320'
p296
aa(lp297
I1
aI0
aI1
aI0
aI0
aI0
aI1
aI0
aI0
aI19200000
aS'_4445938320'
p298
aa(lp299
I1
aI1
aI1
aI0
aI0
aI0
aI0
aI0
aI0
aI19500000
aS'_4445938320'
p300
aaaa(lp301
S'_4483895096'
p302
a(lp303
(lp304
I1
aI1
aI1
aI0
aI1
aI1
aI1
aI0
aI0
aI16800000
ag302
aa(lp305
I1
aI1
aI1
aI0
aI1
aI1
aI1
aI1
aI0
aI19200000
aS'_4483895096'
p306
aa(lp307
I1
aI1
aI0
aI0
aI1
aI1
aI1
aI0
aI0
aI8400000
aS'_4483895096'
p308
aa(lp309
I1
aI1
aI1
aI0
aI1
aI1
aI0
aI1
aI0
aI20700000
aS'_4483895096'
p310
aa(lp311
I1
aI0
aI1
aI0
aI1
aI0
aI1
aI0
aI0
aI19500000
aS'_4483895096'
p312
aa(lp313
I1
aI1
aI1
aI1
aI1
aI0
aI1
aI0
aI0
aI20700000
aS'_4483895096'
p314
aa(lp315
I1
aI1
aI1
aI1
aI1
aI0
aI1
aI1
aI0
aI21900000
aS'_4483895096'
p316
aa(lp317
I1
aI1
aI0
aI1
aI1
aI0
aI1
aI0
aI0
aI9900000
aS'_4483895096'
p318
aa(lp319
I1
aI0
aI0
aI0
aI1
aI1
aI1
aI1
aI0
aI12300000
aS'_4483895096'
p320
aaaa(lp321
S'_4445937744'
p322
a(lp323
(lp324
I1
aI0
aI0
aI0
aI0
aI0
aI1
aI0
aI1
aI10800000
ag322
aa(lp325
I1
aI1
aI0
aI0
aI0
aI0
aI1
aI0
aI0
aI9000000
aS'_4445937744'
p326
aa(lp327
I1
aI0
aI1
aI1
aI0
aI0
aI1
aI0
aI1
aI13200000
aS'_4445937744'
p328
aa(lp329
I1
aI1
aI1
aI0
aI0
aI0
aI1
aI0
aI1
aI10200000
aS'_4445937744'
p330
aa(lp331
I1
aI1
aI1
aI0
aI0
aI0
aI1
aI0
aI0
aI18300000
aS'_4445937744'
p332
aa(lp333
I1
aI1
aI1
aI0
aI1
aI0
aI1
aI0
aI0
aI18900000
aS'_4445937744'
p334
aa(lp335
I1
aI0
aI1
aI0
aI0
aI0
aI1
aI1
aI0
aI22500000
aS'_4445937744'
p336
aa(lp337
I1
aI0
aI1
aI1
aI0
aI0
aI1
aI0
aI0
aI21300000
aS'_4445937744'
p338
aa(lp339
I1
aI1
aI1
aI0
aI0
aI1
aI1
aI0
aI0
aI16200000
aS'_4445937744'
p340
aaaa.