(lp0
(lp1
S'_4445009176'
p2
a(lp3
(lp4
I1
aI1
aI1
aI0
aI1
aI1
aI1
aI1
aI0
aI1
aI1
aI1
aI0
aI1
aI1
aI1
aI1
aI1
aI1
aI1
aI0
aI0
aI0
aI0
aI0
aI0
aI33410000
ag2
aa(lp5
I1
aI1
aI1
aI0
aI1
aI1
aI1
aI1
aI0
aI1
aI1
aI1
aI0
aI1
aI1
aI1
aI1
aI1
aI1
aI1
aI0
aI0
aI0
aI0
aI0
aI1
aI34290000
aS'_4445009176'
p6
aa(lp7
I1
aI1
aI1
aI0
aI1
aI1
aI1
aI1
aI0
aI0
aI1
aI1
aI0
aI1
aI1
aI1
aI1
aI1
aI1
aI0
aI0
aI0
aI0
aI0
aI0
aI1
aI34120000
aS'_4445009176'
p8
aa(lp9
I1
aI1
aI1
aI0
aI1
aI1
aI1
aI1
aI0
aI1
aI1
aI1
aI0
aI1
aI1
aI0
aI1
aI1
aI1
aI0
aI0
aI0
aI0
aI0
aI0
aI0
aI32990000
aS'_4445009176'
p10
aa(lp11
I1
aI1
aI1
aI0
aI1
aI1
aI1
aI1
aI0
aI1
aI1
aI1
aI0
aI1
aI1
aI1
aI1
aI1
aI1
aI0
aI0
aI0
aI0
aI0
aI0
aI1
aI36050000
aS'_4445009176'
p12
aaaa(lp13
S'_4445011840'
p14
a(lp15
(lp16
I1
aI1
aI1
aI0
aI1
aI1
aI1
aI1
aI0
aI1
aI1
aI1
aI0
aI1
aI1
aI0
aI1
aI1
aI1
aI0
aI1
aI1
aI1
aI0
aI1
aI0
aI48980000
ag14
aa(lp17
I1
aI1
aI1
aI0
aI1
aI1
aI1
aI1
aI0
aI0
aI1
aI1
aI0
aI1
aI1
aI0
aI1
aI1
aI1
aI0
aI1
aI1
aI1
aI0
aI1
aI1
aI49070000
aS'_4445011840'
p18
aa(lp19
I1
aI1
aI1
aI0
aI1
aI1
aI1
aI0
aI1
aI0
aI1
aI1
aI0
aI1
aI1
aI0
aI1
aI1
aI1
aI0
aI1
aI1
aI1
aI0
aI1
aI0
aI47050000
aS'_4445011840'
p20
aa(lp21
I1
aI1
aI1
aI0
aI1
aI1
aI1
aI0
aI1
aI1
aI1
aI1
aI0
aI1
aI1
aI1
aI1
aI1
aI1
aI0
aI1
aI1
aI1
aI0
aI1
aI0
aI49200000
aS'_4445011840'
p22
aa(lp23
I1
aI1
aI1
aI0
aI1
aI1
aI1
aI1
aI0
aI0
aI1
aI1
aI0
aI1
aI1
aI1
aI1
aI1
aI1
aI0
aI1
aI1
aI1
aI0
aI1
aI0
aI46980000
aS'_4445011840'
p24
aaaa(lp25
S'_4445008888'
p26
a(lp27
(lp28
I1
aI1
aI1
aI1
aI0
aI0
aI0
aI0
aI0
aI0
aI1
aI0
aI1
aI1
aI1
aI0
aI1
aI1
aI1
aI0
aI0
aI0
aI0
aI0
aI0
aI0
aI52310000
ag26
aa(lp29
I1
aI1
aI1
aI0
aI1
aI1
aI1
aI1
aI0
aI0
aI1
aI0
aI1
aI1
aI1
aI1
aI1
aI1
aI1
aI1
aI0
aI0
aI0
aI0
aI0
aI0
aI52630000
aS'_4445008888'
p30
aa(lp31
I1
aI1
aI1
aI0
aI1
aI1
aI1
aI1
aI0
aI0
aI1
aI0
aI1
aI1
aI1
aI0
aI1
aI1
aI1
aI0
aI0
aI0
aI0
aI0
aI0
aI1
aI53500000
aS'_4445008888'
p32
aa(lp33
I1
aI1
aI1
aI0
aI1
aI1
aI1
aI1
aI0
aI0
aI1
aI0
aI1
aI1
aI1
aI1
aI1
aI1
aI1
aI0
aI0
aI0
aI0
aI0
aI0
aI0
aI52310000
aS'_4445008888'
p34
aa(lp35
I1
aI1
aI1
aI0
aI1
aI1
aI1
aI1
aI0
aI1
aI1
aI0
aI1
aI1
aI1
aI0
aI1
aI1
aI1
aI0
aI0
aI0
aI0
aI0
aI0
aI0
aI54630000
aS'_4445008888'
p36
aaaa(lp37
S'_4445009104'
p38
a(lp39
(lp40
I1
aI1
aI1
aI0
aI1
aI1
aI1
aI0
aI1
aI1
aI1
aI1
aI0
aI1
aI1
aI1
aI1
aI1
aI1
aI1
aI0
aI0
aI0
aI0
aI0
aI0
aI33360000
ag38
aa(lp41
I1
aI1
aI1
aI0
aI1
aI1
aI1
aI0
aI1
aI0
aI1
aI0
aI1
aI1
aI1
aI0
aI1
aI1
aI1
aI0
aI0
aI0
aI0
aI0
aI0
aI0
aI52070000
aS'_4445009104'
p42
aa(lp43
I1
aI1
aI1
aI0
aI1
aI1
aI1
aI0
aI1
aI1
aI1
aI0
aI1
aI1
aI1
aI1
aI1
aI1
aI1
aI1
aI1
aI1
aI1
aI0
aI1
aI0
aI163920000
aS'_4445009104'
p44
aa(lp45
I1
aI1
aI1
aI0
aI1
aI1
aI1
aI0
aI1
aI1
aI1
aI1
aI0
aI1
aI1
aI1
aI1
aI1
aI1
aI0
aI0
aI0
aI0
aI0
aI0
aI0
aI30850000
aS'_4445009104'
p46
aa(lp47
I1
aI1
aI1
aI0
aI1
aI1
aI1
aI0
aI1
aI1
aI1
aI0
aI1
aI1
aI1
aI1
aI1
aI1
aI1
aI0
aI1
aI1
aI1
aI0
aI1
aI1
aI165310000
aS'_4445009104'
p48
aa(lp49
I1
aI1
aI1
aI0
aI1
aI1
aI1
aI0
aI1
aI1
aI1
aI1
aI0
aI1
aI1
aI0
aI1
aI1
aI1
aI0
aI1
aI1
aI1
aI1
aI0
aI1
aI33030000
aS'_4445009104'
p50
aaaa(lp51
S'_4445010328'
p52
a(lp53
(lp54
I1
aI1
aI1
aI0
aI1
aI1
aI1
aI1
aI0
aI0
aI1
aI1
aI0
aI1
aI1
aI1
aI1
aI1
aI1
aI1
aI1
aI1
aI1
aI0
aI1
aI1
aI48800000
ag52
aa(lp55
I1
aI1
aI1
aI0
aI1
aI1
aI1
aI1
aI0
aI0
aI1
aI1
aI0
aI1
aI1
aI1
aI1
aI1
aI1
aI1
aI1
aI1
aI1
aI0
aI1
aI0
aI47920000
aS'_4445010328'
p56
aa(lp57
I1
aI1
aI1
aI0
aI1
aI1
aI1
aI0
aI1
aI0
aI1
aI1
aI0
aI1
aI1
aI1
aI1
aI1
aI1
aI1
aI1
aI1
aI1
aI1
aI0
aI0
aI35320000
aS'_4445010328'
p58
aa(lp59
I1
aI1
aI1
aI0
aI1
aI1
aI1
aI1
aI0
aI0
aI1
aI0
aI1
aI1
aI1
aI1
aI1
aI1
aI1
aI0
aI1
aI1
aI1
aI0
aI1
aI0
aI145940000
aS'_4445010328'
p60
aa(lp61
I1
aI1
aI1
aI0
aI1
aI1
aI1
aI1
aI0
aI0
aI1
aI0
aI1
aI1
aI1
aI1
aI1
aI1
aI1
aI1
aI1
aI1
aI1
aI1
aI0
aI1
aI53140000
aS'_4445010328'
p62
aa(lp63
I1
aI1
aI1
aI0
aI1
aI1
aI1
aI1
aI0
aI0
aI1
aI0
aI1
aI1
aI1
aI1
aI1
aI1
aI1
aI0
aI1
aI1
aI1
aI1
aI0
aI1
aI53430000
aS'_4445010328'
p64
aaaa(lp65
S'_4445010976'
p66
a(lp67
(lp68
I1
aI1
aI1
aI0
aI1
aI1
aI1
aI1
aI0
aI1
aI1
aI1
aI0
aI1
aI1
aI1
aI1
aI1
aI1
aI0
aI1
aI1
aI1
aI0
aI1
aI0
aI49430000
ag66
aa(lp69
I1
aI1
aI1
aI0
aI1
aI1
aI1
aI1
aI0
aI1
aI1
aI1
aI0
aI1
aI1
aI1
aI1
aI1
aI1
aI1
aI1
aI1
aI1
aI1
aI0
aI0
aI32580000
aS'_4445010976'
p70
aa(lp71
I1
aI1
aI1
aI0
aI1
aI1
aI1
aI1
aI0
aI1
aI1
aI1
aI0
aI1
aI1
aI1
aI1
aI1
aI1
aI0
aI1
aI1
aI1
aI1
aI0
aI0
aI31540000
aS'_4445010976'
p72
aa(lp73
I1
aI1
aI1
aI0
aI1
aI1
aI1
aI1
aI0
aI0
aI1
aI1
aI0
aI1
aI1
aI1
aI1
aI1
aI1
aI0
aI1
aI1
aI1
aI0
aI1
aI1
aI49130000
aS'_4445010976'
p74
aa(lp75
I1
aI1
aI1
aI0
aI1
aI1
aI1
aI1
aI0
aI1
aI1
aI0
aI1
aI1
aI1
aI1
aI1
aI1
aI1
aI1
aI1
aI1
aI1
aI1
aI0
aI1
aI55080000
aS'_4445010976'
p76
aaaa(lp77
S'_4445010616'
p78
a(lp79
(lp80
I1
aI1
aI1
aI0
aI1
aI1
aI1
aI1
aI0
aI1
aI1
aI0
aI1
aI1
aI1
aI1
aI1
aI1
aI1
aI0
aI1
aI1
aI1
aI0
aI1
aI0
aI163510000
ag78
aa(lp81
I1
aI1
aI1
aI0
aI1
aI1
aI1
aI1
aI0
aI1
aI1
aI0
aI1
aI1
aI1
aI0
aI1
aI1
aI1
aI0
aI1
aI1
aI1
aI1
aI0
aI0
aI53610000
aS'_4445010616'
p82
aa(lp83
I1
aI1
aI1
aI0
aI1
aI1
aI1
aI0
aI1
aI1
aI1
aI0
aI1
aI1
aI1
aI0
aI1
aI1
aI1
aI0
aI1
aI1
aI1
aI0
aI1
aI1
aI164460000
aS'_4445010616'
p84
aa(lp85
I1
aI1
aI1
aI0
aI1
aI1
aI1
aI1
aI0
aI1
aI1
aI0
aI1
aI1
aI1
aI0
aI1
aI1
aI1
aI0
aI1
aI1
aI1
aI1
aI0
aI1
aI54620000
aS'_4445010616'
p86
aa(lp87
I1
aI1
aI1
aI0
aI1
aI1
aI1
aI0
aI1
aI1
aI1
aI0
aI1
aI1
aI1
aI1
aI1
aI1
aI1
aI1
aI1
aI1
aI1
aI1
aI0
aI0
aI54200000
aS'_4445010616'
p88
aaaa(lp89
S'_4445009824'
p90
a(lp91
(lp92
I1
aI1
aI1
aI0
aI1
aI1
aI1
aI0
aI1
aI1
aI1
aI1
aI0
aI1
aI1
aI1
aI1
aI1
aI1
aI1
aI1
aI1
aI1
aI0
aI1
aI1
aI50910000
ag90
aa(lp93
I1
aI1
aI1
aI0
aI1
aI1
aI1
aI0
aI1
aI1
aI1
aI1
aI0
aI1
aI1
aI1
aI1
aI1
aI1
aI0
aI1
aI1
aI1
aI0
aI1
aI1
aI50480000
aS'_4445009824'
p94
aa(lp95
I1
aI1
aI1
aI0
aI1
aI1
aI1
aI0
aI1
aI0
aI1
aI1
aI0
aI1
aI1
aI1
aI1
aI1
aI1
aI1
aI1
aI1
aI1
aI0
aI1
aI1
aI48970000
aS'_4445009824'
p96
aa(lp97
I1
aI1
aI1
aI0
aI1
aI1
aI1
aI0
aI1
aI1
aI1
aI0
aI1
aI1
aI1
aI1
aI1
aI1
aI1
aI1
aI1
aI1
aI1
aI0
aI1
aI1
aI164420000
aS'_4445009824'
p98
aa(lp99
I1
aI1
aI1
aI0
aI1
aI1
aI1
aI0
aI1
aI0
aI1
aI0
aI1
aI1
aI1
aI1
aI1
aI1
aI1
aI1
aI1
aI1
aI1
aI0
aI1
aI0
aI146670000
aS'_4445009824'
p100
aaaa(lp101
S'_4445010184'
p102
a(lp103
(lp104
I1
aI1
aI1
aI1
aI0
aI0
aI0
aI0
aI0
aI0
aI1
aI0
aI1
aI1
aI1
aI1
aI1
aI1
aI1
aI1
aI1
aI1
aI1
aI1
aI0
aI1
aI53280000
ag102
aa(lp105
I1
aI1
aI1
aI1
aI0
aI0
aI0
aI0
aI0
aI0
aI1
aI1
aI0
aI1
aI1
aI0
aI1
aI1
aI1
aI0
aI1
aI1
aI1
aI1
aI0
aI1
aI31390000
aS'_4445010184'
p106
aa(lp107
I1
aI1
aI1
aI1
aI0
aI0
aI0
aI0
aI0
aI0
aI1
aI1
aI0
aI1
aI1
aI1
aI1
aI1
aI1
aI1
aI1
aI1
aI1
aI1
aI0
aI0
aI31610000
aS'_4445010184'
p108
aa(lp109
I1
aI1
aI1
aI1
aI0
aI0
aI0
aI0
aI0
aI0
aI1
aI1
aI0
aI1
aI1
aI1
aI1
aI1
aI1
aI1
aI1
aI1
aI1
aI0
aI1
aI1
aI49030000
aS'_4445010184'
p110
aa(lp111
I1
aI1
aI1
aI1
aI0
aI0
aI0
aI0
aI0
aI0
aI1
aI0
aI1
aI1
aI1
aI0
aI1
aI1
aI1
aI0
aI0
aI0
aI0
aI0
aI0
aI1
aI52890000
aS'_4445010184'
p112
aa(lp113
I1
aI1
aI1
aI1
aI0
aI0
aI0
aI0
aI0
aI0
aI1
aI1
aI0
aI1
aI1
aI1
aI1
aI1
aI1
aI1
aI0
aI0
aI0
aI0
aI0
aI1
aI33330000
aS'_4445010184'
p114
aaaa(lp115
S'_4445011336'
p116
a(lp117
(lp118
I1
aI1
aI1
aI0
aI1
aI1
aI1
aI0
aI1
aI1
aI1
aI0
aI1
aI1
aI1
aI0
aI1
aI1
aI1
aI0
aI1
aI1
aI1
aI1
aI0
aI0
aI53540000
ag116
aa(lp119
I1
aI1
aI1
aI0
aI1
aI1
aI1
aI0
aI1
aI1
aI1
aI0
aI1
aI1
aI1
aI1
aI1
aI1
aI1
aI0
aI1
aI1
aI1
aI1
aI0
aI0
aI54650000
aS'_4445011336'
p120
aa(lp121
I1
aI1
aI1
aI0
aI1
aI1
aI1
aI0
aI1
aI0
aI1
aI0
aI1
aI1
aI1
aI0
aI1
aI1
aI1
aI0
aI1
aI1
aI1
aI1
aI0
aI0
aI51860000
aS'_4445011336'
p122
aa(lp123
I1
aI1
aI1
aI0
aI1
aI1
aI1
aI0
aI1
aI1
aI1
aI0
aI1
aI1
aI1
aI1
aI1
aI1
aI1
aI0
aI1
aI1
aI1
aI1
aI0
aI1
aI54570000
aS'_4445011336'
p124
aa(lp125
I1
aI1
aI1
aI0
aI1
aI1
aI1
aI0
aI1
aI1
aI1
aI0
aI1
aI1
aI1
aI0
aI1
aI1
aI1
aI0
aI1
aI1
aI1
aI1
aI0
aI1
aI54990000
aS'_4445011336'
p126
aa(lp127
I1
aI1
aI1
aI0
aI1
aI1
aI1
aI0
aI1
aI0
aI1
aI0
aI1
aI1
aI1
aI1
aI1
aI1
aI1
aI0
aI1
aI1
aI1
aI1
aI0
aI1
aI53140000
aS'_4445011336'
p128
aaaa(lp129
S'_4445010112'
p130
a(lp131
(lp132
I1
aI1
aI1
aI0
aI1
aI1
aI1
aI1
aI0
aI0
aI1
aI0
aI1
aI1
aI1
aI1
aI1
aI1
aI1
aI0
aI1
aI1
aI1
aI1
aI0
aI0
aI52330000
ag130
aa(lp133
I1
aI1
aI1
aI0
aI1
aI1
aI1
aI1
aI0
aI0
aI1
aI0
aI1
aI1
aI1
aI0
aI1
aI1
aI1
aI0
aI1
aI1
aI1
aI1
aI0
aI0
aI52160000
aS'_4445010112'
p134
aa(lp135
I1
aI1
aI1
aI0
aI1
aI1
aI1
aI0
aI1
aI0
aI1
aI0
aI1
aI1
aI1
aI0
aI1
aI1
aI1
aI0
aI1
aI1
aI1
aI1
aI0
aI1
aI53420000
aS'_4445010112'
p136
aa(lp137
I1
aI1
aI1
aI0
aI1
aI1
aI1
aI1
aI0
aI1
aI1
aI0
aI1
aI1
aI1
aI0
aI1
aI1
aI1
aI0
aI1
aI1
aI1
aI0
aI1
aI1
aI164790000
aS'_4445010112'
p138
aa(lp139
I1
aI1
aI1
aI0
aI1
aI1
aI1
aI0
aI1
aI0
aI1
aI0
aI1
aI1
aI1
aI0
aI1
aI1
aI1
aI0
aI1
aI1
aI1
aI0
aI1
aI1
aI148520000
aS'_4445010112'
p140
aa(lp141
I1
aI1
aI1
aI0
aI1
aI1
aI1
aI0
aI1
aI1
aI1
aI0
aI1
aI1
aI1
aI0
aI1
aI1
aI1
aI0
aI1
aI1
aI1
aI0
aI1
aI0
aI164270000
aS'_4445010112'
p142
aaaa(lp143
S'_4445009968'
p144
a(lp145
(lp146
I1
aI1
aI1
aI0
aI1
aI1
aI1
aI1
aI0
aI1
aI1
aI0
aI1
aI1
aI1
aI1
aI1
aI1
aI1
aI1
aI0
aI0
aI0
aI0
aI0
aI0
aI54350000
ag144
aa(lp147
I1
aI1
aI1
aI0
aI1
aI1
aI1
aI0
aI1
aI1
aI1
aI0
aI1
aI1
aI1
aI1
aI1
aI1
aI1
aI1
aI0
aI0
aI0
aI0
aI0
aI0
aI54210000
aS'_4445009968'
p148
aa(lp149
I1
aI1
aI1
aI0
aI1
aI1
aI1
aI0
aI1
aI0
aI1
aI0
aI1
aI1
aI1
aI1
aI1
aI1
aI1
aI0
aI0
aI0
aI0
aI0
aI0
aI0
aI52560000
aS'_4445009968'
p150
aa(lp151
I1
aI1
aI1
aI0
aI1
aI1
aI1
aI0
aI1
aI1
aI1
aI0
aI1
aI1
aI1
aI1
aI1
aI1
aI1
aI0
aI0
aI0
aI0
aI0
aI0
aI0
aI54490000
aS'_4445009968'
p152
aa(lp153
I1
aI1
aI1
aI0
aI1
aI1
aI1
aI0
aI1
aI1
aI1
aI0
aI1
aI1
aI1
aI1
aI1
aI1
aI1
aI0
aI0
aI0
aI0
aI0
aI0
aI1
aI55100000
aS'_4445009968'
p154
aa(lp155
I1
aI1
aI1
aI0
aI1
aI1
aI1
aI0
aI1
aI1
aI1
aI0
aI1
aI1
aI1
aI0
aI1
aI1
aI1
aI0
aI0
aI0
aI0
aI0
aI0
aI0
aI53650000
aS'_4445009968'
p156
aaaa(lp157
S'_4445011264'
p158
a(lp159
(lp160
I1
aI1
aI1
aI0
aI1
aI1
aI1
aI1
aI0
aI1
aI1
aI0
aI1
aI1
aI1
aI1
aI1
aI1
aI1
aI0
aI0
aI0
aI0
aI0
aI0
aI1
aI55150000
ag158
aa(lp161
I1
aI1
aI1
aI0
aI1
aI1
aI1
aI0
aI1
aI0
aI1
aI1
aI0
aI1
aI1
aI1
aI1
aI1
aI1
aI0
aI0
aI0
aI0
aI0
aI0
aI0
aI32630000
aS'_4445011264'
p162
aa(lp163
I1
aI1
aI1
aI0
aI1
aI1
aI1
aI1
aI0
aI0
aI1
aI1
aI0
aI1
aI1
aI0
aI1
aI1
aI1
aI0
aI0
aI0
aI0
aI0
aI0
aI1
aI32320000
aS'_4445011264'
p164
aa(lp165
I1
aI1
aI1
aI0
aI1
aI1
aI1
aI0
aI1
aI1
aI1
aI1
aI0
aI1
aI1
aI1
aI1
aI1
aI1
aI0
aI0
aI0
aI0
aI0
aI0
aI1
aI30580000
aS'_4445011264'
p166
aa(lp167
I1
aI1
aI1
aI0
aI1
aI1
aI1
aI0
aI1
aI1
aI1
aI1
aI0
aI1
aI1
aI0
aI1
aI1
aI1
aI0
aI0
aI0
aI0
aI0
aI0
aI1
aI32350000
aS'_4445011264'
p168
aa(lp169
I1
aI1
aI1
aI0
aI1
aI1
aI1
aI0
aI1
aI0
aI1
aI1
aI0
aI1
aI1
aI0
aI1
aI1
aI1
aI0
aI0
aI0
aI0
aI0
aI0
aI1
aI31770000
aS'_4445011264'
p170
aaaa(lp171
S'_4445008240'
p172
a(lp173
(lp174
I1
aI1
aI1
aI0
aI1
aI1
aI1
aI1
aI0
aI1
aI1
aI1
aI0
aI1
aI1
aI1
aI1
aI1
aI1
aI0
aI1
aI1
aI1
aI1
aI0
aI1
aI34240000
ag172
aa(lp175
I1
aI1
aI1
aI0
aI1
aI1
aI1
aI1
aI0
aI0
aI1
aI1
aI0
aI1
aI1
aI1
aI1
aI1
aI1
aI0
aI1
aI1
aI1
aI1
aI0
aI0
aI31570000
aS'_4445008240'
p176
aa(lp177
I1
aI1
aI1
aI0
aI1
aI1
aI1
aI1
aI0
aI1
aI1
aI1
aI0
aI1
aI1
aI1
aI1
aI1
aI1
aI1
aI1
aI1
aI1
aI1
aI0
aI1
aI34570000
aS'_4445008240'
p178
aa(lp179
I1
aI1
aI1
aI0
aI1
aI1
aI1
aI1
aI0
aI0
aI1
aI1
aI0
aI1
aI1
aI1
aI1
aI1
aI1
aI0
aI1
aI1
aI1
aI1
aI0
aI1
aI29600000
aS'_4445008240'
p180
aa(lp181
I1
aI1
aI1
aI0
aI1
aI1
aI1
aI0
aI1
aI1
aI1
aI1
aI0
aI1
aI1
aI1
aI1
aI1
aI1
aI0
aI1
aI1
aI1
aI1
aI0
aI1
aI31670000
aS'_4445008240'
p182
aa(lp183
I1
aI1
aI1
aI0
aI1
aI1
aI1
aI0
aI1
aI0
aI1
aI1
aI0
aI1
aI1
aI0
aI1
aI1
aI1
aI0
aI1
aI1
aI1
aI1
aI0
aI1
aI31060000
aS'_4445008240'
p184
aaaa(lp185
S'_4445008816'
p186
a(lp187
(lp188
I1
aI1
aI1
aI0
aI1
aI1
aI1
aI0
aI1
aI0
aI1
aI1
aI0
aI1
aI1
aI1
aI1
aI1
aI1
aI1
aI1
aI1
aI1
aI0
aI1
aI0
aI46680000
ag186
aa(lp189
I1
aI1
aI1
aI1
aI0
aI0
aI0
aI0
aI0
aI0
aI1
aI1
aI0
aI1
aI1
aI0
aI1
aI1
aI1
aI0
aI1
aI1
aI1
aI0
aI1
aI0
aI47140000
aS'_4445008816'
p190
aa(lp191
I1
aI1
aI1
aI1
aI0
aI0
aI0
aI0
aI0
aI0
aI1
aI1
aI0
aI1
aI1
aI1
aI1
aI1
aI1
aI1
aI1
aI1
aI1
aI0
aI1
aI0
aI47870000
aS'_4445008816'
p192
aa(lp193
I1
aI1
aI1
aI1
aI0
aI0
aI0
aI0
aI0
aI0
aI1
aI1
aI0
aI1
aI1
aI1
aI1
aI1
aI1
aI0
aI1
aI1
aI1
aI0
aI1
aI1
aI48790000
aS'_4445008816'
p194
aa(lp195
I1
aI1
aI1
aI1
aI0
aI0
aI0
aI0
aI0
aI0
aI1
aI1
aI0
aI1
aI1
aI0
aI1
aI1
aI1
aI0
aI0
aI0
aI0
aI0
aI0
aI0
aI34510000
aS'_4445008816'
p196
aa(lp197
I1
aI1
aI1
aI1
aI0
aI0
aI0
aI0
aI0
aI0
aI1
aI1
aI0
aI1
aI1
aI1
aI1
aI1
aI1
aI0
aI0
aI0
aI0
aI0
aI0
aI0
aI33140000
aS'_4445008816'
p198
aaaa(lp199
S'_4445008024'
p200
a(lp201
(lp202
I1
aI1
aI1
aI1
aI0
aI0
aI0
aI0
aI0
aI0
aI1
aI0
aI1
aI1
aI1
aI1
aI1
aI1
aI1
aI0
aI1
aI1
aI1
aI0
aI1
aI0
aI145620000
ag200
aa(lp203
I1
aI1
aI1
aI1
aI0
aI0
aI0
aI0
aI0
aI0
aI1
aI0
aI1
aI1
aI1
aI1
aI1
aI1
aI1
aI1
aI1
aI1
aI1
aI0
aI1
aI0
aI145800000
aS'_4445008024'
p204
aa(lp205
I1
aI1
aI1
aI1
aI0
aI0
aI0
aI0
aI0
aI0
aI1
aI0
aI1
aI1
aI1
aI1
aI1
aI1
aI1
aI0
aI1
aI1
aI1
aI0
aI1
aI1
aI147860000
aS'_4445008024'
p206
aa(lp207
I1
aI1
aI1
aI1
aI0
aI0
aI0
aI0
aI0
aI0
aI1
aI0
aI1
aI1
aI1
aI1
aI1
aI1
aI1
aI0
aI1
aI1
aI1
aI1
aI0
aI1
aI53100000
aS'_4445008024'
p208
aa(lp209
I1
aI1
aI1
aI1
aI0
aI0
aI0
aI0
aI0
aI0
aI1
aI0
aI1
aI1
aI1
aI0
aI1
aI1
aI1
aI0
aI1
aI1
aI1
aI1
aI0
aI1
aI53280000
aS'_4445008024'
p210
aa(lp211
I1
aI1
aI1
aI1
aI0
aI0
aI0
aI0
aI0
aI0
aI1
aI0
aI1
aI1
aI1
aI1
aI1
aI1
aI1
aI1
aI1
aI1
aI1
aI0
aI1
aI1
aI149050000
aS'_4445008024'
p212
aaaa.