(lp0
(lp1
S'_4445904624'
p2
a(lp3
(lp4
I1
aI1
aI0
aI1
aI1
aI1
aI0
aI0
aI1
aI9300000
ag2
aa(lp5
I1
aI1
aI1
aI0
aI0
aI0
aI0
aI0
aI1
aI11400000
aS'_4445904624'
p6
aa(lp7
I1
aI1
aI1
aI0
aI0
aI1
aI1
aI0
aI1
aI11400000
aS'_4445904624'
p8
aa(lp9
I1
aI1
aI1
aI1
aI0
aI1
aI0
aI0
aI1
aI10800000
aS'_4445904624'
p10
aa(lp11
I1
aI1
aI1
aI0
aI1
aI0
aI0
aI0
aI1
aI13200000
aS'_4445904624'
p12
aa(lp13
I1
aI1
aI0
aI0
aI0
aI1
aI0
aI0
aI1
aI9300000
aS'_4445904624'
p14
aa(lp15
I1
aI1
aI1
aI0
aI1
aI1
aI0
aI0
aI1
aI10800000
aS'_4445904624'
p16
aa(lp17
I1
aI1
aI1
aI0
aI0
aI0
aI0
aI0
aI0
aI19500000
aS'_4445904624'
p18
aa(lp19
I1
aI1
aI1
aI0
aI0
aI1
aI0
aI0
aI1
aI12000000
aS'_4445904624'
p20
aa(lp21
I1
aI1
aI1
aI0
aI0
aI1
aI0
aI0
aI0
aI17100000
aS'_4445904624'
p22
aa(lp23
I1
aI1
aI1
aI0
aI0
aI1
aI0
aI1
aI0
aI19800000
aS'_4445904624'
p24
aaaa(lp25
S'_4484215872'
p26
a(lp27
(lp28
I1
aI0
aI1
aI1
aI0
aI1
aI1
aI1
aI0
aI19800000
ag26
aa(lp29
I1
aI0
aI1
aI1
aI1
aI0
aI1
aI1
aI0
aI24300000
aS'_4484215872'
p30
aa(lp31
I1
aI0
aI0
aI1
aI1
aI0
aI1
aI1
aI0
aI13800000
aS'_4484215872'
p32
aa(lp33
I1
aI1
aI0
aI0
aI1
aI0
aI1
aI1
aI0
aI10500000
aS'_4484215872'
p34
aa(lp35
I1
aI1
aI1
aI1
aI0
aI0
aI0
aI1
aI0
aI21600000
aS'_4484215872'
p36
aa(lp37
I1
aI1
aI1
aI0
aI0
aI0
aI1
aI1
aI0
aI21600000
aS'_4484215872'
p38
aa(lp39
I1
aI0
aI1
aI1
aI0
aI0
aI1
aI1
aI0
aI23100000
aS'_4484215872'
p40
aa(lp41
I1
aI1
aI1
aI0
aI0
aI0
aI0
aI1
aI0
aI22800000
aS'_4484215872'
p42
aa(lp43
I1
aI0
aI1
aI1
aI0
aI0
aI0
aI1
aI0
aI24600000
aS'_4484215872'
p44
aa(lp45
I1
aI0
aI0
aI1
aI0
aI1
aI0
aI1
aI0
aI12600000
aS'_4484215872'
p46
aa(lp47
I1
aI0
aI0
aI0
aI0
aI0
aI0
aI1
aI0
aI14100000
aS'_4484215872'
p48
aaaa(lp49
S'_4446058976'
p50
a(lp51
(lp52
I1
aI0
aI0
aI1
aI0
aI1
aI1
aI0
aI1
aI10500000
ag50
aa(lp53
I1
aI0
aI0
aI1
aI1
aI0
aI1
aI0
aI0
aI11700000
aS'_4446058976'
p54
aa(lp55
I1
aI1
aI0
aI1
aI1
aI1
aI1
aI0
aI0
aI9000000
aS'_4446058976'
p56
aa(lp57
I1
aI0
aI0
aI1
aI0
aI0
aI0
aI0
aI0
aI13200000
aS'_4446058976'
p58
aa(lp59
I1
aI0
aI1
aI1
aI0
aI0
aI0
aI0
aI0
aI22200000
aS'_4446058976'
p60
aa(lp61
I1
aI1
aI0
aI1
aI0
aI1
aI0
aI0
aI0
aI9300000
aS'_4446058976'
p62
aa(lp63
I1
aI1
aI0
aI1
aI1
aI1
aI0
aI0
aI0
aI9600000
aS'_4446058976'
p64
aa(lp65
I1
aI0
aI0
aI1
aI1
aI1
aI0
aI1
aI0
aI12600000
aS'_4446058976'
p66
aa(lp67
I1
aI0
aI0
aI1
aI1
aI0
aI0
aI0
aI0
aI13500000
aS'_4446058976'
p68
aa(lp69
I1
aI1
aI0
aI1
aI0
aI1
aI0
aI1
aI0
aI9900000
aS'_4446058976'
p70
aa(lp71
I1
aI0
aI0
aI1
aI0
aI0
aI0
aI1
aI0
aI14100000
aS'_4446058976'
p72
aaaa(lp73
S'_4484216376'
p74
a(lp75
(lp76
I1
aI0
aI1
aI0
aI1
aI1
aI1
aI0
aI0
aI17400000
ag74
aa(lp77
I1
aI0
aI1
aI1
aI0
aI1
aI0
aI0
aI1
aI10200000
aS'_4484216376'
p78
aa(lp79
I1
aI0
aI0
aI0
aI1
aI0
aI0
aI0
aI1
aI12600000
aS'_4484216376'
p80
aa(lp81
I1
aI0
aI1
aI1
aI1
aI0
aI0
aI0
aI1
aI12000000
aS'_4484216376'
p82
aa(lp83
I1
aI1
aI1
aI1
aI1
aI0
aI0
aI0
aI1
aI10500000
aS'_4484216376'
p84
aa(lp85
I1
aI0
aI0
aI0
aI1
aI0
aI0
aI0
aI0
aI12000000
aS'_4484216376'
p86
aa(lp87
I1
aI0
aI1
aI0
aI1
aI0
aI1
aI0
aI0
aI19500000
aS'_4484216376'
p88
aa(lp89
I1
aI0
aI1
aI1
aI1
aI0
aI0
aI0
aI0
aI23700000
aS'_4484216376'
p90
aa(lp91
I1
aI0
aI1
aI1
aI0
aI0
aI0
aI0
aI1
aI12900000
aS'_4484216376'
p92
aa(lp93
I1
aI0
aI1
aI0
aI1
aI0
aI0
aI0
aI1
aI13800000
aS'_4484216376'
p94
aa(lp95
I1
aI0
aI1
aI0
aI0
aI0
aI0
aI0
aI0
aI20400000
aS'_4484216376'
p96
aaaa(lp97
S'_4445904840'
p98
a(lp99
(lp100
I1
aI0
aI1
aI1
aI0
aI0
aI1
aI0
aI1
aI13200000
ag98
aa(lp101
I1
aI0
aI1
aI1
aI0
aI1
aI1
aI0
aI1
aI12300000
aS'_4445904840'
p102
aa(lp103
I1
aI0
aI1
aI0
aI0
aI0
aI1
aI0
aI1
aI13500000
aS'_4445904840'
p104
aa(lp105
I1
aI1
aI1
aI0
aI0
aI0
aI1
aI0
aI1
aI10200000
aS'_4445904840'
p106
aa(lp107
I1
aI1
aI1
aI1
aI0
aI0
aI0
aI0
aI1
aI11700000
aS'_4445904840'
p108
aa(lp109
I1
aI0
aI1
aI0
aI0
aI0
aI0
aI0
aI1
aI12000000
aS'_4445904840'
p110
aa(lp111
I1
aI0
aI0
aI0
aI0
aI0
aI0
aI0
aI1
aI12300000
aS'_4445904840'
p112
aa(lp113
I1
aI0
aI0
aI1
aI0
aI1
aI0
aI0
aI1
aI11100000
aS'_4445904840'
p114
aa(lp115
I1
aI1
aI1
aI0
aI1
aI0
aI1
aI0
aI1
aI11700000
aS'_4445904840'
p116
aa(lp117
I1
aI1
aI0
aI0
aI1
aI0
aI0
aI0
aI1
aI10200000
aS'_4445904840'
p118
aaaa(lp119
S'_4446058256'
p120
a(lp121
(lp122
I1
aI1
aI0
aI1
aI0
aI0
aI1
aI1
aI0
aI10200000
ag120
aa(lp123
I1
aI0
aI0
aI0
aI1
aI0
aI1
aI0
aI0
aI11400000
aS'_4446058256'
p124
aa(lp125
I1
aI0
aI0
aI0
aI0
aI0
aI0
aI0
aI0
aI12000000
aS'_4446058256'
p126
aa(lp127
I1
aI1
aI0
aI1
aI0
aI0
aI0
aI1
aI0
aI11100000
aS'_4446058256'
p128
aa(lp129
I1
aI0
aI0
aI1
aI1
aI0
aI0
aI1
aI0
aI14700000
aS'_4446058256'
p130
aa(lp131
I1
aI1
aI0
aI1
aI1
aI0
aI1
aI1
aI0
aI10800000
aS'_4446058256'
p132
aa(lp133
I1
aI1
aI0
aI1
aI1
aI1
aI0
aI1
aI0
aI10200000
aS'_4446058256'
p134
aa(lp135
I1
aI1
aI1
aI1
aI1
aI0
aI0
aI0
aI0
aI22200000
aS'_4446058256'
p136
aa(lp137
I1
aI1
aI0
aI1
aI1
aI0
aI0
aI1
aI0
aI11400000
aS'_4446058256'
p138
aa(lp139
I1
aI1
aI1
aI1
aI1
aI0
aI0
aI1
aI0
aI23400000
aS'_4446058256'
p140
aa(lp141
I1
aI1
aI0
aI0
aI1
aI0
aI0
aI1
aI0
aI11400000
aS'_4446058256'
p142
aaaa(lp143
S'_4484217168'
p144
a(lp145
(lp146
I1
aI0
aI0
aI1
aI0
aI0
aI1
aI1
aI0
aI13200000
ag144
aa(lp147
I1
aI0
aI0
aI0
aI0
aI0
aI1
aI0
aI0
aI11100000
aS'_4484217168'
p148
aa(lp149
I1
aI0
aI0
aI0
aI0
aI1
aI1
aI1
aI0
aI11400000
aS'_4484217168'
p150
aa(lp151
I1
aI0
aI0
aI1
aI1
aI1
aI1
aI1
aI0
aI12300000
aS'_4484217168'
p152
aa(lp153
I1
aI0
aI1
aI1
aI0
aI0
aI1
aI0
aI0
aI21300000
aS'_4484217168'
p154
aa(lp155
I1
aI1
aI0
aI0
aI0
aI1
aI1
aI0
aI0
aI8400000
aS'_4484217168'
p156
aa(lp157
I1
aI0
aI0
aI1
aI0
aI1
aI1
aI1
aI0
aI11400000
aS'_4484217168'
p158
aa(lp159
I1
aI0
aI0
aI0
aI0
aI1
aI1
aI0
aI0
aI10200000
aS'_4484217168'
p160
aa(lp161
I1
aI1
aI1
aI0
aI0
aI1
aI1
aI0
aI0
aI16200000
aS'_4484217168'
p162
aa(lp163
I1
aI1
aI1
aI1
aI0
aI1
aI1
aI0
aI0
aI17700000
aS'_4484217168'
p164
aa(lp165
I1
aI0
aI0
aI1
aI0
aI1
aI1
aI0
aI0
aI10800000
aS'_4484217168'
p166
aaaa(lp167
S'_4445904264'
p168
a(lp169
(lp170
I1
aI0
aI1
aI0
aI1
aI1
aI1
aI1
aI0
aI21000000
ag168
aa(lp171
I1
aI0
aI0
aI0
aI1
aI1
aI0
aI1
aI0
aI13200000
aS'_4445904264'
p172
aa(lp173
I1
aI0
aI1
aI1
aI1
aI1
aI0
aI1
aI0
aI21900000
aS'_4445904264'
p174
aa(lp175
I1
aI0
aI1
aI1
aI0
aI1
aI0
aI0
aI0
aI19800000
aS'_4445904264'
p176
aa(lp177
I1
aI1
aI1
aI0
aI1
aI1
aI0
aI1
aI0
aI20700000
aS'_4445904264'
p178
aa(lp179
I1
aI0
aI1
aI0
aI1
aI1
aI0
aI0
aI0
aI18300000
aS'_4445904264'
p180
aa(lp181
I1
aI1
aI1
aI0
aI1
aI0
aI0
aI0
aI0
aI19500000
aS'_4445904264'
p182
aa(lp183
I1
aI1
aI1
aI0
aI1
aI1
aI0
aI0
aI0
aI17700000
aS'_4445904264'
p184
aa(lp185
I1
aI0
aI1
aI0
aI1
aI1
aI0
aI0
aI1
aI13500000
aS'_4445904264'
p186
aa(lp187
I1
aI1
aI1
aI1
aI1
aI1
aI0
aI0
aI0
aI19200000
aS'_4445904264'
p188
aa(lp189
I1
aI1
aI1
aI1
aI1
aI1
aI0
aI0
aI1
aI11700000
aS'_4445904264'
p190
aaaa(lp191
S'_4484217024'
p192
a(lp193
(lp194
I1
aI1
aI1
aI1
aI1
aI1
aI1
aI0
aI0
aI18000000
ag192
aa(lp195
I1
aI1
aI1
aI1
aI1
aI1
aI1
aI1
aI0
aI18600000
aS'_4484217024'
p196
aa(lp197
I1
aI1
aI0
aI1
aI1
aI1
aI1
aI1
aI0
aI9900000
aS'_4484217024'
p198
aa(lp199
I1
aI1
aI1
aI1
aI0
aI0
aI1
aI0
aI0
aI20100000
aS'_4484217024'
p200
aa(lp201
I1
aI1
aI1
aI1
aI1
aI1
aI0
aI1
aI0
aI21000000
aS'_4484217024'
p202
aa(lp203
I1
aI1
aI1
aI1
aI1
aI0
aI1
aI1
aI0
aI21900000
aS'_4484217024'
p204
aa(lp205
I1
aI0
aI1
aI1
aI1
aI1
aI1
aI1
aI0
aI20700000
aS'_4484217024'
p206
aa(lp207
I1
aI1
aI1
aI0
aI1
aI1
aI1
aI1
aI0
aI19200000
aS'_4484217024'
p208
aa(lp209
I1
aI1
aI1
aI1
aI0
aI1
aI1
aI1
aI0
aI18600000
aS'_4484217024'
p210
aa(lp211
I1
aI1
aI1
aI1
aI0
aI0
aI1
aI1
aI0
aI21600000
aS'_4484217024'
p212
aa(lp213
I1
aI1
aI1
aI0
aI1
aI0
aI1
aI1
aI0
aI21900000
aS'_4484217024'
p214
aaaa(lp215
S'_4484216880'
p216
a(lp217
(lp218
I1
aI1
aI0
aI1
aI0
aI0
aI1
aI0
aI0
aI9600000
ag216
aa(lp219
I1
aI1
aI0
aI1
aI0
aI0
aI0
aI0
aI1
aI9900000
aS'_4484216880'
p220
aa(lp221
I1
aI1
aI0
aI1
aI1
aI0
aI0
aI0
aI1
aI10500000
aS'_4484216880'
p222
aa(lp223
I1
aI0
aI0
aI1
aI0
aI0
aI0
aI0
aI1
aI12000000
aS'_4484216880'
p224
aa(lp225
I1
aI1
aI0
aI0
aI1
aI0
aI1
aI0
aI1
aI9600000
aS'_4484216880'
p226
aa(lp227
I1
aI0
aI0
aI1
aI0
aI0
aI1
aI0
aI0
aI12300000
aS'_4484216880'
p228
aa(lp229
I1
aI0
aI0
aI0
aI0
aI0
aI1
aI0
aI1
aI10800000
aS'_4484216880'
p230
aa(lp231
I1
aI1
aI0
aI0
aI1
aI0
aI1
aI0
aI0
aI9300000
aS'_4484216880'
p232
aa(lp233
I1
aI1
aI0
aI0
aI0
aI0
aI0
aI0
aI0
aI9900000
aS'_4484216880'
p234
aa(lp235
I1
aI1
aI0
aI0
aI1
aI0
aI0
aI0
aI0
aI9600000
aS'_4484216880'
p236
aa(lp237
I1
aI1
aI0
aI0
aI0
aI0
aI0
aI1
aI0
aI11100000
aS'_4484216880'
p238
aaaa(lp239
S'_4445904192'
p240
a(lp241
(lp242
I1
aI0
aI0
aI1
aI1
aI1
aI1
aI0
aI0
aI11100000
ag240
aa(lp243
I1
aI0
aI0
aI1
aI1
aI1
aI0
aI0
aI0
aI12000000
aS'_4445904192'
p244
aa(lp245
I1
aI0
aI1
aI1
aI1
aI1
aI1
aI0
aI0
aI18900000
aS'_4445904192'
p246
aa(lp247
I1
aI0
aI0
aI1
aI1
aI0
aI1
aI0
aI1
aI12300000
aS'_4445904192'
p248
aa(lp249
I1
aI0
aI0
aI1
aI1
aI1
aI0
aI0
aI1
aI11400000
aS'_4445904192'
p250
aa(lp251
I1
aI0
aI1
aI1
aI1
aI1
aI1
aI0
aI1
aI11700000
aS'_4445904192'
p252
aa(lp253
I1
aI0
aI1
aI1
aI1
aI0
aI1
aI0
aI1
aI11100000
aS'_4445904192'
p254
aa(lp255
I1
aI0
aI0
aI1
aI1
aI0
aI0
aI0
aI1
aI12000000
aS'_4445904192'
p256
aa(lp257
I1
aI0
aI1
aI1
aI1
aI1
aI0
aI0
aI1
aI12000000
aS'_4445904192'
p258
aa(lp259
I1
aI0
aI1
aI1
aI1
aI0
aI1
aI0
aI0
aI21900000
aS'_4445904192'
p260
aa(lp261
I1
aI0
aI1
aI1
aI1
aI1
aI0
aI0
aI0
aI20400000
aS'_4445904192'
p262
aaaa(lp263
S'_4484217816'
p264
a(lp265
(lp266
I1
aI1
aI1
aI1
aI0
aI1
aI1
aI0
aI1
aI14700000
ag264
aa(lp267
I1
aI1
aI0
aI1
aI1
aI1
aI1
aI0
aI1
aI8700000
aS'_4484217816'
p268
aa(lp269
I1
aI1
aI0
aI1
aI0
aI1
aI1
aI0
aI1
aI8700000
aS'_4484217816'
p270
aa(lp271
I1
aI1
aI1
aI1
aI1
aI0
aI1
aI0
aI1
aI12000000
aS'_4484217816'
p272
aa(lp273
I1
aI1
aI0
aI1
aI0
aI0
aI1
aI0
aI1
aI9600000
aS'_4484217816'
p274
aa(lp275
I1
aI1
aI0
aI1
aI0
aI1
aI1
aI0
aI0
aI9000000
aS'_4484217816'
p276
aa(lp277
I1
aI1
aI0
aI1
aI1
aI0
aI1
aI0
aI1
aI9900000
aS'_4484217816'
p278
aa(lp279
I1
aI0
aI0
aI1
aI0
aI0
aI1
aI0
aI1
aI11400000
aS'_4484217816'
p280
aa(lp281
I1
aI1
aI1
aI1
aI1
aI0
aI1
aI0
aI0
aI20700000
aS'_4484217816'
p282
aa(lp283
I1
aI1
aI0
aI0
aI0
aI0
aI1
aI0
aI1
aI9600000
aS'_4484217816'
p284
aa(lp285
I1
aI1
aI1
aI1
aI0
aI0
aI0
aI0
aI0
aI21300000
aS'_4484217816'
p286
aaaa(lp287
S'_4445904120'
p288
a(lp289
(lp290
I1
aI0
aI1
aI0
aI0
aI0
aI0
aI1
aI0
aI24900000
ag288
aa(lp291
I1
aI0
aI0
aI0
aI1
aI0
aI0
aI1
aI0
aI14100000
aS'_4445904120'
p292
aa(lp293
I1
aI0
aI1
aI0
aI1
aI0
aI1
aI1
aI0
aI24300000
aS'_4445904120'
p294
aa(lp295
I1
aI0
aI1
aI0
aI0
aI1
aI0
aI1
aI0
aI21300000
aS'_4445904120'
p296
aa(lp297
I1
aI0
aI1
aI1
aI1
aI0
aI0
aI1
aI0
aI26400000
aS'_4445904120'
p298
aa(lp299
I1
aI0
aI1
aI1
aI0
aI1
aI0
aI1
aI0
aI21000000
aS'_4445904120'
p300
aa(lp301
I1
aI1
aI1
aI0
aI1
aI0
aI0
aI1
aI0
aI22800000
aS'_4445904120'
p302
aa(lp303
I1
aI0
aI1
aI0
aI1
aI0
aI0
aI0
aI0
aI21000000
aS'_4445904120'
p304
aa(lp305
I1
aI0
aI1
aI0
aI0
aI1
aI0
aI0
aI0
aI17700000
aS'_4445904120'
p306
aa(lp307
I1
aI0
aI1
aI0
aI1
aI1
aI0
aI1
aI0
aI21900000
aS'_4445904120'
p308
aaaa(lp309
S'_4445903328'
p310
a(lp311
(lp312
I1
aI1
aI0
aI0
aI1
aI1
aI1
aI0
aI0
aI8400000
ag310
aa(lp313
I1
aI1
aI0
aI0
aI0
aI1
aI1
aI0
aI1
aI8700000
aS'_4445903328'
p314
aa(lp315
I1
aI0
aI1
aI1
aI0
aI1
aI1
aI0
aI0
aI18300000
aS'_4445903328'
p316
aa(lp317
I1
aI0
aI0
aI0
aI1
aI1
aI1
aI0
aI1
aI10500000
aS'_4445903328'
p318
aa(lp319
I1
aI0
aI1
aI0
aI0
aI1
aI1
aI0
aI1
aI12600000
aS'_4445903328'
p320
aa(lp321
I1
aI1
aI1
aI0
aI1
aI0
aI1
aI0
aI0
aI18900000
aS'_4445903328'
p322
aa(lp323
I1
aI1
aI1
aI0
aI1
aI1
aI1
aI0
aI0
aI16800000
aS'_4445903328'
p324
aa(lp325
I1
aI0
aI1
aI0
aI1
aI1
aI1
aI0
aI1
aI12300000
aS'_4445903328'
p326
aa(lp327
I1
aI1
aI0
aI0
aI1
aI1
aI1
aI0
aI1
aI9000000
aS'_4445903328'
p328
aa(lp329
I1
aI1
aI1
aI0
aI1
aI1
aI1
aI0
aI1
aI15000000
aS'_4445903328'
p330
aa(lp331
I1
aI1
aI1
aI1
aI1
aI1
aI1
aI0
aI1
aI8700000
aS'_4445903328'
p332
aaaa(lp333
S'_4445904048'
p334
a(lp335
(lp336
I1
aI0
aI0
aI0
aI0
aI1
aI0
aI0
aI0
aI10800000
ag334
aa(lp337
I1
aI0
aI0
aI1
aI0
aI1
aI0
aI0
aI0
aI11700000
aS'_4445904048'
p338
aa(lp339
I1
aI1
aI0
aI0
aI0
aI1
aI0
aI0
aI0
aI9000000
aS'_4445904048'
p340
aa(lp341
I1
aI0
aI0
aI0
aI0
aI1
aI0
aI0
aI1
aI10500000
aS'_4445904048'
p342
aa(lp343
I1
aI0
aI0
aI0
aI1
aI1
aI1
aI0
aI0
aI9900000
aS'_4445904048'
p344
aa(lp345
I1
aI0
aI0
aI0
aI0
aI1
aI1
aI0
aI1
aI10800000
aS'_4445904048'
p346
aa(lp347
I1
aI0
aI1
aI0
aI0
aI1
aI1
aI0
aI0
aI16800000
aS'_4445904048'
p348
aa(lp349
I1
aI1
aI0
aI0
aI1
aI1
aI0
aI0
aI0
aI9000000
aS'_4445904048'
p350
aa(lp351
I1
aI0
aI0
aI0
aI1
aI1
aI0
aI0
aI1
aI12000000
aS'_4445904048'
p352
aa(lp353
I1
aI1
aI0
aI0
aI1
aI1
aI0
aI1
aI0
aI10200000
aS'_4445904048'
p354
aa(lp355
I1
aI0
aI0
aI0
aI1
aI1
aI1
aI1
aI0
aI12300000
aS'_4445904048'
p356
aaaa(lp357
S'_4484215584'
p358
a(lp359
(lp360
I1
aI0
aI0
aI0
aI1
aI0
aI1
aI1
aI0
aI13800000
ag358
aa(lp361
I1
aI0
aI0
aI0
aI0
aI0
aI1
aI1
aI0
aI12900000
aS'_4484215584'
p362
aa(lp363
I1
aI1
aI0
aI0
aI0
aI0
aI1
aI1
aI0
aI10200000
aS'_4484215584'
p364
aa(lp365
I1
aI1
aI0
aI0
aI1
aI1
aI1
aI1
aI0
aI9600000
aS'_4484215584'
p366
aa(lp367
I1
aI1
aI0
aI0
aI0
aI0
aI1
aI0
aI0
aI9000000
aS'_4484215584'
p368
aa(lp369
I1
aI0
aI0
aI0
aI0
aI1
aI0
aI1
aI0
aI12600000
aS'_4484215584'
p370
aa(lp371
I1
aI0
aI1
aI0
aI0
aI1
aI1
aI1
aI0
aI19800000
aS'_4484215584'
p372
aa(lp373
I1
aI0
aI1
aI0
aI0
aI0
aI1
aI0
aI0
aI19200000
aS'_4484215584'
p374
aa(lp375
I1
aI1
aI1
aI0
aI0
aI1
aI1
aI1
aI0
aI18600000
aS'_4484215584'
p376
aa(lp377
I1
aI1
aI1
aI0
aI0
aI0
aI1
aI0
aI0
aI18300000
aS'_4484215584'
p378
aaaa.