(lp0
(lp1
S'_4445966776'
p2
a(lp3
(lp4
I1
aI1
aI1
aI1
aI1
aI0
aI0
aI1
aI0
aI23400000
ag2
aa(lp5
I1
aI1
aI0
aI1
aI1
aI0
aI0
aI0
aI0
aI10800000
aS'_4445966776'
p6
aa(lp7
I1
aI1
aI1
aI0
aI1
aI0
aI0
aI0
aI0
aI19500000
aS'_4445966776'
p8
aa(lp9
I1
aI1
aI0
aI0
aI1
aI0
aI0
aI1
aI0
aI11400000
aS'_4445966776'
p10
aaaa(lp11
S'_4483064248'
p12
a(lp13
(lp14
I1
aI0
aI1
aI0
aI0
aI1
aI0
aI1
aI0
aI21300000
ag12
aa(lp15
I1
aI0
aI1
aI0
aI0
aI1
aI0
aI0
aI0
aI17700000
aS'_4483064248'
p16
aa(lp17
I1
aI0
aI1
aI1
aI0
aI1
aI0
aI1
aI0
aI21000000
aS'_4483064248'
p18
aaaa(lp19
S'_4445967712'
p20
a(lp21
(lp22
I1
aI1
aI1
aI0
aI1
aI0
aI1
aI0
aI1
aI11700000
ag20
aa(lp23
I1
aI1
aI1
aI0
aI1
aI0
aI1
aI1
aI0
aI21900000
aS'_4445967712'
p24
aa(lp25
I1
aI1
aI1
aI0
aI0
aI0
aI0
aI1
aI0
aI22800000
aS'_4445967712'
p26
aa(lp27
I1
aI1
aI1
aI0
aI1
aI1
aI0
aI1
aI0
aI20700000
aS'_4445967712'
p28
aaaa(lp29
S'_4483067344'
p30
a(lp31
(lp32
I1
aI1
aI0
aI0
aI0
aI1
aI0
aI0
aI0
aI9000000
ag30
aa(lp33
I1
aI1
aI0
aI0
aI0
aI1
aI1
aI0
aI1
aI8700000
aS'_4483067344'
p34
aa(lp35
I1
aI0
aI0
aI0
aI0
aI1
aI0
aI0
aI1
aI10500000
aS'_4483067344'
p36
aa(lp37
I1
aI1
aI0
aI0
aI0
aI0
aI0
aI0
aI1
aI9900000
aS'_4483067344'
p38
aaaa(lp39
S'_4483067416'
p40
a(lp41
(lp42
I1
aI0
aI1
aI0
aI1
aI1
aI0
aI0
aI0
aI18300000
ag40
aa(lp43
I1
aI0
aI1
aI1
aI0
aI0
aI0
aI1
aI0
aI24600000
aS'_4483067416'
p44
aa(lp45
I1
aI0
aI1
aI0
aI0
aI1
aI1
aI0
aI0
aI16800000
aS'_4483067416'
p46
aa(lp47
I1
aI1
aI1
aI1
aI0
aI1
aI0
aI0
aI0
aI18900000
aS'_4483067416'
p48
aaaa(lp49
S'_4445966992'
p50
a(lp51
(lp52
I1
aI0
aI1
aI0
aI1
aI1
aI1
aI1
aI0
aI21000000
ag50
aa(lp53
I1
aI0
aI0
aI1
aI1
aI1
aI1
aI1
aI0
aI12300000
aS'_4445966992'
p54
aa(lp55
I1
aI1
aI1
aI1
aI1
aI1
aI1
aI0
aI0
aI18000000
aS'_4445966992'
p56
aaaa(lp57
S'_4445967064'
p58
a(lp59
(lp60
I1
aI0
aI1
aI0
aI0
aI1
aI1
aI1
aI0
aI19800000
ag58
aa(lp61
I1
aI0
aI0
aI0
aI0
aI0
aI0
aI1
aI0
aI14100000
aS'_4445967064'
p62
aa(lp63
I1
aI0
aI0
aI1
aI1
aI0
aI0
aI1
aI0
aI14700000
aS'_4445967064'
p64
aa(lp65
I1
aI0
aI0
aI0
aI1
aI0
aI1
aI1
aI0
aI13800000
aS'_4445967064'
p66
aaaa(lp67
S'_4483067488'
p68
a(lp69
(lp70
I1
aI1
aI0
aI1
aI0
aI1
aI1
aI0
aI1
aI8700000
ag68
aa(lp71
I1
aI0
aI0
aI0
aI0
aI1
aI1
aI0
aI1
aI10800000
aS'_4483067488'
p72
aa(lp73
I1
aI0
aI0
aI1
aI0
aI0
aI1
aI0
aI1
aI11400000
aS'_4483067488'
p74
aa(lp75
I1
aI0
aI0
aI1
aI1
aI0
aI1
aI0
aI1
aI12300000
aS'_4483067488'
p76
aaaa(lp77
S'_4445968936'
p78
a(lp79
(lp80
I1
aI1
aI0
aI1
aI0
aI0
aI1
aI0
aI0
aI9600000
ag78
aa(lp81
I1
aI1
aI1
aI1
aI1
aI0
aI1
aI0
aI0
aI20700000
aS'_4445968936'
p82
aa(lp83
I1
aI1
aI1
aI0
aI0
aI1
aI1
aI0
aI0
aI16200000
aS'_4445968936'
p84
aaaa(lp85
S'_4483066552'
p86
a(lp87
(lp88
I1
aI0
aI0
aI1
aI1
aI1
aI1
aI0
aI1
aI11100000
ag86
aa(lp89
I1
aI0
aI1
aI1
aI0
aI1
aI1
aI0
aI1
aI12300000
aS'_4483066552'
p90
aa(lp91
I1
aI0
aI1
aI1
aI0
aI1
aI1
aI0
aI0
aI18300000
aS'_4483066552'
p92
aa(lp93
I1
aI0
aI0
aI0
aI0
aI1
aI1
aI0
aI0
aI10200000
aS'_4483066552'
p94
aaaa(lp95
S'_4483064176'
p96
a(lp97
(lp98
I1
aI0
aI1
aI1
aI1
aI0
aI1
aI0
aI1
aI11100000
ag96
aa(lp99
I1
aI1
aI1
aI1
aI1
aI1
aI1
aI0
aI1
aI8700000
aS'_4483064176'
p100
aa(lp101
I1
aI0
aI1
aI1
aI0
aI1
aI0
aI0
aI1
aI10200000
aS'_4483064176'
p102
aaaa(lp103
S'_4445966416'
p104
a(lp105
(lp106
I1
aI0
aI1
aI1
aI1
aI0
aI1
aI0
aI0
aI21900000
ag104
aa(lp107
I1
aI1
aI0
aI0
aI1
aI1
aI1
aI0
aI0
aI8400000
aS'_4445966416'
p108
aa(lp109
I1
aI0
aI0
aI0
aI1
aI0
aI1
aI0
aI0
aI11400000
aS'_4445966416'
p110
aa(lp111
I1
aI1
aI0
aI1
aI1
aI0
aI1
aI0
aI0
aI9900000
aS'_4445966416'
p112
aaaa(lp113
S'_4483064968'
p114
a(lp115
(lp116
I1
aI0
aI1
aI0
aI1
aI0
aI0
aI0
aI0
aI21000000
ag114
aa(lp117
I1
aI0
aI1
aI0
aI1
aI0
aI0
aI0
aI1
aI13800000
aS'_4483064968'
p118
aa(lp119
I1
aI0
aI0
aI0
aI1
aI0
aI0
aI0
aI1
aI12600000
aS'_4483064968'
p120
aa(lp121
I1
aI0
aI0
aI0
aI1
aI1
aI0
aI0
aI1
aI12000000
aS'_4483064968'
p122
aaaa(lp123
S'_4445966632'
p124
a(lp125
(lp126
I1
aI1
aI0
aI0
aI0
aI1
aI0
aI1
aI0
aI10200000
ag124
aa(lp127
I1
aI0
aI1
aI0
aI1
aI1
aI0
aI1
aI0
aI21900000
aS'_4445966632'
p128
aa(lp129
I1
aI0
aI1
aI0
aI0
aI0
aI0
aI1
aI0
aI24900000
aS'_4445966632'
p130
aaaa(lp131
S'_4445968000'
p132
a(lp133
(lp134
I1
aI0
aI0
aI0
aI1
aI0
aI0
aI0
aI0
aI12000000
ag132
aa(lp135
I1
aI1
aI0
aI0
aI1
aI0
aI1
aI0
aI1
aI9600000
aS'_4445968000'
p136
aa(lp137
I1
aI1
aI0
aI0
aI1
aI0
aI1
aI0
aI0
aI9300000
aS'_4445968000'
p138
aa(lp139
I1
aI1
aI0
aI0
aI0
aI0
aI1
aI0
aI0
aI9000000
aS'_4445968000'
p140
aaaa(lp141
S'_4483067704'
p142
a(lp143
(lp144
I1
aI1
aI1
aI1
aI0
aI0
aI0
aI0
aI0
aI21300000
ag142
aa(lp145
I1
aI1
aI1
aI0
aI0
aI0
aI0
aI0
aI1
aI11400000
aS'_4483067704'
p146
aa(lp147
I1
aI0
aI1
aI0
aI0
aI0
aI0
aI0
aI1
aI12000000
aS'_4483067704'
p148
aaaa.