(lp0
(lp1
S'_4445039072'
p2
a(lp3
(lp4
I1
aI1
aI1
aI0
aI1
aI1
aI1
aI0
aI1
aI1
aI1
aI0
aI1
aI1
aI1
aI1
aI1
aI1
aI1
aI0
aI1
aI1
aI1
aI1
aI0
aI0
aI54650000
ag2
aa(lp5
I1
aI1
aI1
aI0
aI1
aI1
aI1
aI0
aI1
aI0
aI1
aI0
aI1
aI1
aI1
aI1
aI1
aI1
aI1
aI0
aI1
aI1
aI1
aI1
aI0
aI0
aI52300000
aS'_4445039072'
p6
aa(lp7
I1
aI1
aI1
aI0
aI1
aI1
aI1
aI0
aI1
aI0
aI1
aI0
aI1
aI1
aI1
aI1
aI1
aI1
aI1
aI1
aI1
aI1
aI1
aI1
aI0
aI0
aI52410000
aS'_4445039072'
p8
aaaa(lp9
S'_4445106832'
p10
a(lp11
(lp12
I1
aI1
aI1
aI0
aI1
aI1
aI1
aI0
aI1
aI0
aI1
aI0
aI1
aI1
aI1
aI0
aI1
aI1
aI1
aI0
aI0
aI0
aI0
aI0
aI0
aI0
aI52070000
ag10
aa(lp13
I1
aI1
aI1
aI0
aI1
aI1
aI1
aI1
aI0
aI0
aI1
aI1
aI0
aI1
aI1
aI0
aI1
aI1
aI1
aI0
aI0
aI0
aI0
aI0
aI0
aI0
aI31820000
aS'_4445106832'
p14
aa(lp15
I1
aI1
aI1
aI0
aI1
aI1
aI1
aI1
aI0
aI0
aI1
aI0
aI1
aI1
aI1
aI1
aI1
aI1
aI1
aI1
aI0
aI0
aI0
aI0
aI0
aI0
aI52630000
aS'_4445106832'
p16
aaaa(lp17
S'_4445109568'
p18
a(lp19
(lp20
I1
aI1
aI1
aI0
aI1
aI1
aI1
aI1
aI0
aI1
aI1
aI0
aI1
aI1
aI1
aI1
aI1
aI1
aI1
aI0
aI1
aI1
aI1
aI1
aI0
aI0
aI53900000
ag18
aa(lp21
I1
aI1
aI1
aI0
aI1
aI1
aI1
aI1
aI0
aI1
aI1
aI0
aI1
aI1
aI1
aI1
aI1
aI1
aI1
aI0
aI1
aI1
aI1
aI0
aI1
aI0
aI163510000
aS'_4445109568'
p22
aa(lp23
I1
aI1
aI1
aI0
aI1
aI1
aI1
aI1
aI0
aI1
aI1
aI0
aI1
aI1
aI1
aI1
aI1
aI1
aI1
aI1
aI1
aI1
aI1
aI0
aI1
aI0
aI163990000
aS'_4445109568'
p24
aaaa(lp25
S'_4445425816'
p26
a(lp27
(lp28
I1
aI1
aI1
aI0
aI1
aI1
aI1
aI0
aI1
aI0
aI1
aI1
aI0
aI1
aI1
aI0
aI1
aI1
aI1
aI0
aI1
aI1
aI1
aI0
aI1
aI0
aI47050000
ag26
aa(lp29
I1
aI1
aI1
aI0
aI1
aI1
aI1
aI0
aI1
aI0
aI1
aI1
aI0
aI1
aI1
aI1
aI1
aI1
aI1
aI0
aI1
aI1
aI1
aI0
aI1
aI0
aI47590000
aS'_4445425816'
p30
aa(lp31
I1
aI1
aI1
aI0
aI1
aI1
aI1
aI0
aI1
aI0
aI1
aI1
aI0
aI1
aI1
aI1
aI1
aI1
aI1
aI0
aI1
aI1
aI1
aI1
aI0
aI0
aI31780000
aS'_4445425816'
p32
aa(lp33
I1
aI1
aI1
aI0
aI1
aI1
aI1
aI1
aI0
aI0
aI1
aI1
aI0
aI1
aI1
aI0
aI1
aI1
aI1
aI0
aI1
aI1
aI1
aI0
aI1
aI0
aI46690000
aS'_4445425816'
p34
aa(lp35
I1
aI1
aI1
aI0
aI1
aI1
aI1
aI1
aI0
aI0
aI1
aI1
aI0
aI1
aI1
aI0
aI1
aI1
aI1
aI0
aI1
aI1
aI1
aI0
aI1
aI1
aI49070000
aS'_4445425816'
p36
aa(lp37
I1
aI1
aI1
aI0
aI1
aI1
aI1
aI0
aI1
aI0
aI1
aI1
aI0
aI1
aI1
aI1
aI1
aI1
aI1
aI0
aI1
aI1
aI1
aI1
aI0
aI1
aI31850000
aS'_4445425816'
p38
aaaa(lp39
S'_4445108992'
p40
a(lp41
(lp42
I1
aI1
aI1
aI1
aI0
aI0
aI0
aI0
aI0
aI0
aI1
aI1
aI0
aI1
aI1
aI1
aI1
aI1
aI1
aI0
aI0
aI0
aI0
aI0
aI0
aI0
aI33140000
ag40
aa(lp43
I1
aI1
aI1
aI1
aI0
aI0
aI0
aI0
aI0
aI0
aI1
aI0
aI1
aI1
aI1
aI0
aI1
aI1
aI1
aI0
aI0
aI0
aI0
aI0
aI0
aI0
aI52310000
aS'_4445108992'
p44
aa(lp45
I1
aI1
aI1
aI1
aI0
aI0
aI0
aI0
aI0
aI0
aI1
aI1
aI0
aI1
aI1
aI0
aI1
aI1
aI1
aI0
aI1
aI1
aI1
aI1
aI0
aI1
aI31390000
aS'_4445108992'
p46
aaaa(lp47
S'_4445106472'
p48
a(lp49
(lp50
I1
aI1
aI1
aI1
aI0
aI0
aI0
aI0
aI0
aI0
aI1
aI1
aI0
aI1
aI1
aI1
aI1
aI1
aI1
aI1
aI1
aI1
aI1
aI0
aI1
aI1
aI49030000
ag48
aa(lp51
I1
aI1
aI1
aI1
aI0
aI0
aI0
aI0
aI0
aI0
aI1
aI0
aI1
aI1
aI1
aI1
aI1
aI1
aI1
aI1
aI1
aI1
aI1
aI1
aI0
aI0
aI53090000
aS'_4445106472'
p52
aa(lp53
I1
aI1
aI1
aI1
aI0
aI0
aI0
aI0
aI0
aI0
aI1
aI0
aI1
aI1
aI1
aI1
aI1
aI1
aI1
aI0
aI1
aI1
aI1
aI1
aI0
aI1
aI53100000
aS'_4445106472'
p54
aa(lp55
I1
aI1
aI1
aI1
aI0
aI0
aI0
aI0
aI0
aI0
aI1
aI0
aI1
aI1
aI1
aI1
aI1
aI1
aI1
aI1
aI1
aI1
aI1
aI0
aI1
aI1
aI149050000
aS'_4445106472'
p56
aaaa(lp57
S'_4445429632'
p58
a(lp59
(lp60
I1
aI1
aI1
aI0
aI1
aI1
aI1
aI1
aI0
aI0
aI1
aI1
aI0
aI1
aI1
aI1
aI1
aI1
aI1
aI0
aI1
aI1
aI1
aI1
aI0
aI1
aI29600000
ag58
aa(lp61
I1
aI1
aI1
aI0
aI1
aI1
aI1
aI1
aI0
aI0
aI1
aI1
aI0
aI1
aI1
aI0
aI1
aI1
aI1
aI0
aI1
aI1
aI1
aI1
aI0
aI1
aI31550000
aS'_4445429632'
p62
aa(lp63
I1
aI1
aI1
aI0
aI1
aI1
aI1
aI1
aI0
aI1
aI1
aI1
aI0
aI1
aI1
aI1
aI1
aI1
aI1
aI0
aI1
aI1
aI1
aI0
aI1
aI0
aI49430000
aS'_4445429632'
p64
aa(lp65
I1
aI1
aI1
aI0
aI1
aI1
aI1
aI0
aI1
aI1
aI1
aI1
aI0
aI1
aI1
aI1
aI1
aI1
aI1
aI0
aI1
aI1
aI1
aI1
aI0
aI1
aI31670000
aS'_4445429632'
p66
aaaa(lp67
S'_4445428048'
p68
a(lp69
(lp70
I1
aI1
aI1
aI0
aI1
aI1
aI1
aI1
aI0
aI0
aI1
aI1
aI0
aI1
aI1
aI1
aI1
aI1
aI1
aI1
aI0
aI0
aI0
aI0
aI0
aI1
aI30530000
ag68
aa(lp71
I1
aI1
aI1
aI0
aI1
aI1
aI1
aI1
aI0
aI1
aI1
aI1
aI0
aI1
aI1
aI1
aI1
aI1
aI1
aI1
aI0
aI0
aI0
aI0
aI0
aI1
aI34290000
aS'_4445428048'
p72
aa(lp73
I1
aI1
aI1
aI0
aI1
aI1
aI1
aI1
aI0
aI0
aI1
aI1
aI0
aI1
aI1
aI1
aI1
aI1
aI1
aI1
aI1
aI1
aI1
aI0
aI1
aI1
aI48800000
aS'_4445428048'
p74
aaaa(lp75
S'_4445038712'
p76
a(lp77
(lp78
I1
aI1
aI1
aI0
aI1
aI1
aI1
aI0
aI1
aI0
aI1
aI0
aI1
aI1
aI1
aI1
aI1
aI1
aI1
aI0
aI1
aI1
aI1
aI0
aI1
aI0
aI146270000
ag76
aa(lp79
I1
aI1
aI1
aI0
aI1
aI1
aI1
aI1
aI0
aI0
aI1
aI0
aI1
aI1
aI1
aI0
aI1
aI1
aI1
aI0
aI1
aI1
aI1
aI1
aI0
aI0
aI52160000
aS'_4445038712'
p80
aa(lp81
I1
aI1
aI1
aI0
aI1
aI1
aI1
aI1
aI0
aI0
aI1
aI0
aI1
aI1
aI1
aI1
aI1
aI1
aI1
aI0
aI1
aI1
aI1
aI1
aI0
aI1
aI53430000
aS'_4445038712'
p82
aa(lp83
I1
aI1
aI1
aI0
aI1
aI1
aI1
aI1
aI0
aI0
aI1
aI1
aI0
aI1
aI1
aI1
aI1
aI1
aI1
aI1
aI1
aI1
aI1
aI0
aI1
aI0
aI47920000
aS'_4445038712'
p84
aaaa(lp85
S'_4445108128'
p86
a(lp87
(lp88
I1
aI1
aI1
aI0
aI1
aI1
aI1
aI1
aI0
aI1
aI1
aI1
aI0
aI1
aI1
aI1
aI1
aI1
aI1
aI1
aI1
aI1
aI1
aI1
aI0
aI1
aI34570000
ag86
aa(lp89
I1
aI1
aI1
aI0
aI1
aI1
aI1
aI1
aI0
aI0
aI1
aI0
aI1
aI1
aI1
aI1
aI1
aI1
aI1
aI1
aI1
aI1
aI1
aI1
aI0
aI1
aI53140000
aS'_4445108128'
p90
aa(lp91
I1
aI1
aI1
aI0
aI1
aI1
aI1
aI1
aI0
aI0
aI1
aI0
aI1
aI1
aI1
aI1
aI1
aI1
aI1
aI1
aI1
aI1
aI1
aI1
aI0
aI0
aI52740000
aS'_4445108128'
p92
aaaa(lp93
S'_4445109784'
p94
a(lp95
(lp96
I1
aI1
aI1
aI0
aI1
aI1
aI1
aI0
aI1
aI0
aI1
aI0
aI1
aI1
aI1
aI0
aI1
aI1
aI1
aI0
aI1
aI1
aI1
aI0
aI1
aI1
aI148520000
ag94
aa(lp97
I1
aI1
aI1
aI0
aI1
aI1
aI1
aI0
aI1
aI1
aI1
aI0
aI1
aI1
aI1
aI0
aI1
aI1
aI1
aI0
aI1
aI1
aI1
aI0
aI1
aI1
aI164460000
aS'_4445109784'
p98
aa(lp99
I1
aI1
aI1
aI0
aI1
aI1
aI1
aI0
aI1
aI1
aI1
aI0
aI1
aI1
aI1
aI1
aI1
aI1
aI1
aI1
aI1
aI1
aI1
aI0
aI1
aI1
aI164420000
aS'_4445109784'
p100
aaaa(lp101
S'_4445108704'
p102
a(lp103
(lp104
I1
aI1
aI1
aI0
aI1
aI1
aI1
aI1
aI0
aI1
aI1
aI0
aI1
aI1
aI1
aI1
aI1
aI1
aI1
aI1
aI1
aI1
aI1
aI0
aI1
aI1
aI164480000
ag102
aa(lp105
I1
aI1
aI1
aI0
aI1
aI1
aI1
aI1
aI0
aI0
aI1
aI0
aI1
aI1
aI1
aI1
aI1
aI1
aI1
aI1
aI1
aI1
aI1
aI0
aI1
aI0
aI147850000
aS'_4445108704'
p106
aa(lp107
I1
aI1
aI1
aI0
aI1
aI1
aI1
aI1
aI0
aI0
aI1
aI0
aI1
aI1
aI1
aI1
aI1
aI1
aI1
aI0
aI1
aI1
aI1
aI0
aI1
aI1
aI146940000
aS'_4445108704'
p108
aa(lp109
I1
aI1
aI1
aI0
aI1
aI1
aI1
aI1
aI0
aI0
aI1
aI0
aI1
aI1
aI1
aI1
aI1
aI1
aI1
aI1
aI1
aI1
aI1
aI0
aI1
aI1
aI146560000
aS'_4445108704'
p110
aaaa(lp111
S'_4445108344'
p112
a(lp113
(lp114
I1
aI1
aI1
aI0
aI1
aI1
aI1
aI0
aI1
aI1
aI1
aI0
aI1
aI1
aI1
aI0
aI1
aI1
aI1
aI0
aI0
aI0
aI0
aI0
aI0
aI1
aI54860000
ag112
aa(lp115
I1
aI1
aI1
aI0
aI1
aI1
aI1
aI0
aI1
aI0
aI1
aI1
aI0
aI1
aI1
aI0
aI1
aI1
aI1
aI0
aI0
aI0
aI0
aI0
aI0
aI1
aI31770000
aS'_4445108344'
p116
aa(lp117
I1
aI1
aI1
aI0
aI1
aI1
aI1
aI1
aI0
aI0
aI1
aI0
aI1
aI1
aI1
aI1
aI1
aI1
aI1
aI1
aI0
aI0
aI0
aI0
aI0
aI1
aI53160000
aS'_4445108344'
p118
aa(lp119
I1
aI1
aI1
aI0
aI1
aI1
aI1
aI0
aI1
aI1
aI1
aI1
aI0
aI1
aI1
aI1
aI1
aI1
aI1
aI1
aI0
aI0
aI0
aI0
aI0
aI1
aI35170000
aS'_4445108344'
p120
aaaa(lp121
S'_4445109424'
p122
a(lp123
(lp124
I1
aI1
aI1
aI0
aI1
aI1
aI1
aI0
aI1
aI1
aI1
aI0
aI1
aI1
aI1
aI1
aI1
aI1
aI1
aI0
aI1
aI1
aI1
aI0
aI1
aI1
aI165310000
ag122
aa(lp125
I1
aI1
aI1
aI0
aI1
aI1
aI1
aI0
aI1
aI1
aI1
aI1
aI0
aI1
aI1
aI0
aI1
aI1
aI1
aI0
aI1
aI1
aI1
aI0
aI1
aI1
aI50450000
aS'_4445109424'
p126
aa(lp127
I1
aI1
aI1
aI0
aI1
aI1
aI1
aI0
aI1
aI1
aI1
aI0
aI1
aI1
aI1
aI0
aI1
aI1
aI1
aI0
aI1
aI1
aI1
aI1
aI0
aI1
aI54990000
aS'_4445109424'
p128
aa(lp129
I1
aI1
aI1
aI0
aI1
aI1
aI1
aI0
aI1
aI1
aI1
aI1
aI0
aI1
aI1
aI1
aI1
aI1
aI1
aI0
aI1
aI1
aI1
aI1
aI0
aI0
aI31270000
aS'_4445109424'
p130
aaaa(lp131
S'_4445109640'
p132
a(lp133
(lp134
I1
aI1
aI1
aI0
aI1
aI1
aI1
aI0
aI1
aI1
aI1
aI0
aI1
aI1
aI1
aI1
aI1
aI1
aI1
aI1
aI1
aI1
aI1
aI1
aI0
aI1
aI54670000
ag132
aa(lp135
I1
aI1
aI1
aI0
aI1
aI1
aI1
aI0
aI1
aI0
aI1
aI0
aI1
aI1
aI1
aI1
aI1
aI1
aI1
aI1
aI1
aI1
aI1
aI0
aI1
aI1
aI147270000
aS'_4445109640'
p136
aa(lp137
I1
aI1
aI1
aI0
aI1
aI1
aI1
aI0
aI1
aI0
aI1
aI0
aI1
aI1
aI1
aI1
aI1
aI1
aI1
aI1
aI1
aI1
aI1
aI0
aI1
aI0
aI146670000
aS'_4445109640'
p138
aa(lp139
I1
aI1
aI1
aI0
aI1
aI1
aI1
aI0
aI1
aI1
aI1
aI0
aI1
aI1
aI1
aI1
aI1
aI1
aI1
aI1
aI1
aI1
aI1
aI0
aI1
aI0
aI163920000
aS'_4445109640'
p140
aaaa.