(lp0
(lp1
S'_4578951040'
p2
a(lp3
(lp4
I0
aI1
aI1
aI1
aI0
aI1
aI1
aI1
aI0
aI0
aI0
aI0
aI1
aI1
aI0
aI0
aI1
aI0
aI21602
ag2
aa(lp5
I0
aI1
aI0
aI1
aI1
aI1
aI1
aI1
aI0
aI0
aI0
aI0
aI1
aI1
aI0
aI0
aI1
aI0
aI21643
aS'_4578951040'
p6
aa(lp7
I0
aI1
aI0
aI1
aI1
aI0
aI1
aI1
aI0
aI0
aI0
aI1
aI0
aI1
aI0
aI0
aI1
aI0
aI13116
aS'_4578951040'
p8
aa(lp9
I1
aI1
aI0
aI1
aI1
aI0
aI0
aI1
aI0
aI0
aI0
aI0
aI1
aI1
aI0
aI0
aI1
aI0
aI389813
aS'_4578951040'
p10
aa(lp11
I0
aI1
aI1
aI1
aI1
aI1
aI1
aI1
aI0
aI0
aI0
aI0
aI1
aI1
aI1
aI0
aI0
aI0
aI21572
aS'_4578951040'
p12
aa(lp13
I0
aI1
aI0
aI1
aI1
aI0
aI1
aI1
aI0
aI1
aI0
aI0
aI0
aI1
aI0
aI0
aI1
aI0
aI5398
aS'_4578951040'
p14
aa(lp15
I0
aI1
aI1
aI1
aI0
aI0
aI0
aI1
aI0
aI0
aI0
aI0
aI1
aI1
aI0
aI0
aI1
aI0
aI23977
aS'_4578951040'
p16
aa(lp17
I0
aI1
aI0
aI1
aI0
aI1
aI1
aI1
aI0
aI0
aI0
aI0
aI1
aI1
aI0
aI0
aI1
aI0
aI21593
aS'_4578951040'
p18
aa(lp19
I0
aI1
aI0
aI1
aI1
aI0
aI1
aI1
aI0
aI0
aI0
aI0
aI1
aI1
aI0
aI0
aI1
aI0
aI21513
aS'_4578951040'
p20
aa(lp21
I0
aI1
aI0
aI1
aI0
aI0
aI0
aI1
aI0
aI0
aI1
aI0
aI0
aI1
aI0
aI0
aI1
aI0
aI7537
aS'_4578951040'
p22
aa(lp23
I0
aI1
aI0
aI1
aI1
aI0
aI1
aI1
aI0
aI0
aI1
aI0
aI0
aI1
aI1
aI0
aI0
aI0
aI7739
aS'_4578951040'
p24
aa(lp25
I0
aI1
aI1
aI1
aI0
aI0
aI1
aI1
aI0
aI0
aI0
aI1
aI0
aI1
aI1
aI0
aI0
aI0
aI13047
aS'_4578951040'
p26
aa(lp27
I0
aI1
aI1
aI1
aI0
aI0
aI1
aI1
aI0
aI0
aI1
aI0
aI0
aI1
aI1
aI0
aI0
aI0
aI7767
aS'_4578951040'
p28
aa(lp29
I0
aI0
aI1
aI1
aI0
aI0
aI1
aI1
aI0
aI0
aI1
aI0
aI0
aI1
aI0
aI1
aI0
aI0
aI5202
aS'_4578951040'
p30
aa(lp31
I0
aI1
aI0
aI1
aI0
aI0
aI0
aI1
aI0
aI0
aI0
aI0
aI1
aI1
aI0
aI1
aI0
aI0
aI23738
aS'_4578951040'
p32
aa(lp33
I0
aI0
aI0
aI1
aI0
aI0
aI1
aI1
aI0
aI0
aI0
aI0
aI1
aI1
aI0
aI1
aI0
aI0
aI9588
aS'_4578951040'
p34
aaaa(lp35
S'_4578949528'
p36
a(lp37
(lp38
I1
aI1
aI1
aI1
aI0
aI1
aI0
aI1
aI0
aI1
aI0
aI0
aI0
aI1
aI0
aI0
aI0
aI1
aI58308
ag36
aa(lp39
I1
aI1
aI1
aI0
aI0
aI0
aI1
aI1
aI0
aI0
aI1
aI0
aI0
aI1
aI0
aI0
aI0
aI1
aI109276
aS'_4578949528'
p40
aa(lp41
I1
aI1
aI0
aI0
aI0
aI0
aI1
aI1
aI0
aI0
aI1
aI0
aI0
aI1
aI1
aI0
aI0
aI0
aI109375
aS'_4578949528'
p42
aa(lp43
I1
aI0
aI1
aI1
aI0
aI1
aI1
aI1
aI0
aI0
aI1
aI0
aI0
aI1
aI0
aI1
aI0
aI0
aI107521
aS'_4578949528'
p44
aa(lp45
I1
aI0
aI0
aI1
aI0
aI0
aI1
aI1
aI0
aI0
aI0
aI0
aI1
aI1
aI0
aI0
aI0
aI1
aI376973
aS'_4578949528'
p46
aa(lp47
I1
aI1
aI1
aI0
aI0
aI0
aI1
aI1
aI0
aI0
aI1
aI0
aI0
aI1
aI0
aI0
aI1
aI0
aI109266
aS'_4578949528'
p48
aa(lp49
I1
aI1
aI0
aI1
aI0
aI0
aI1
aI1
aI0
aI0
aI1
aI0
aI0
aI1
aI0
aI0
aI1
aI0
aI109562
aS'_4578949528'
p50
aa(lp51
I1
aI1
aI1
aI1
aI0
aI1
aI1
aI1
aI0
aI0
aI1
aI0
aI0
aI1
aI0
aI0
aI0
aI1
aI108903
aS'_4578949528'
p52
aa(lp53
I1
aI1
aI1
aI0
aI0
aI0
aI0
aI1
aI0
aI0
aI1
aI0
aI0
aI1
aI0
aI0
aI1
aI0
aI109346
aS'_4578949528'
p54
aa(lp55
I1
aI0
aI0
aI1
aI0
aI1
aI0
aI1
aI0
aI0
aI1
aI0
aI0
aI1
aI0
aI0
aI0
aI1
aI107425
aS'_4578949528'
p56
aa(lp57
I1
aI1
aI0
aI1
aI0
aI1
aI1
aI1
aI0
aI0
aI1
aI0
aI0
aI1
aI0
aI0
aI1
aI0
aI109162
aS'_4578949528'
p58
aa(lp59
I1
aI1
aI0
aI0
aI1
aI1
aI1
aI1
aI1
aI0
aI0
aI0
aI0
aI1
aI0
aI1
aI0
aI0
aI20826
aS'_4578949528'
p60
aa(lp61
I1
aI1
aI0
aI0
aI1
aI1
aI1
aI1
aI0
aI0
aI1
aI0
aI0
aI1
aI0
aI1
aI0
aI0
aI109362
aS'_4578949528'
p62
aa(lp63
I1
aI1
aI0
aI1
aI0
aI1
aI0
aI1
aI0
aI0
aI1
aI0
aI0
aI1
aI0
aI0
aI0
aI1
aI109174
aS'_4578949528'
p64
aa(lp65
I1
aI1
aI0
aI0
aI0
aI0
aI1
aI1
aI0
aI0
aI0
aI0
aI1
aI1
aI0
aI1
aI0
aI0
aI389344
aS'_4578949528'
p66
aa(lp67
I1
aI1
aI0
aI0
aI0
aI1
aI0
aI1
aI0
aI0
aI0
aI0
aI1
aI1
aI0
aI1
aI0
aI0
aI390283
aS'_4578949528'
p68
aaaa(lp69
S'_4578950968'
p70
a(lp71
(lp72
I1
aI1
aI1
aI0
aI1
aI0
aI0
aI1
aI0
aI0
aI0
aI1
aI0
aI1
aI1
aI0
aI0
aI0
aI212930
ag70
aa(lp73
I0
aI1
aI1
aI1
aI1
aI0
aI0
aI1
aI0
aI0
aI0
aI1
aI0
aI1
aI1
aI0
aI0
aI0
aI12425
aS'_4578950968'
p74
aa(lp75
I1
aI1
aI0
aI0
aI1
aI0
aI0
aI1
aI0
aI0
aI0
aI1
aI0
aI1
aI0
aI0
aI1
aI0
aI213040
aS'_4578950968'
p76
aa(lp77
I1
aI1
aI1
aI0
aI1
aI0
aI1
aI1
aI0
aI0
aI0
aI1
aI0
aI1
aI0
aI0
aI1
aI0
aI212720
aS'_4578950968'
p78
aa(lp79
I0
aI1
aI1
aI1
aI1
aI0
aI1
aI1
aI0
aI0
aI0
aI1
aI0
aI1
aI1
aI0
aI0
aI0
aI13084
aS'_4578950968'
p80
aa(lp81
I1
aI0
aI1
aI0
aI1
aI0
aI0
aI1
aI0
aI0
aI0
aI1
aI0
aI1
aI0
aI0
aI1
aI0
aI199743
aS'_4578950968'
p82
aa(lp83
I1
aI1
aI1
aI0
aI0
aI0
aI0
aI1
aI0
aI0
aI0
aI1
aI0
aI1
aI0
aI1
aI0
aI0
aI212449
aS'_4578950968'
p84
aa(lp85
I0
aI1
aI1
aI1
aI0
aI0
aI1
aI1
aI1
aI0
aI0
aI0
aI0
aI1
aI1
aI0
aI0
aI0
aI3825
aS'_4578950968'
p86
aa(lp87
I0
aI1
aI1
aI1
aI0
aI0
aI1
aI1
aI0
aI0
aI0
aI1
aI0
aI1
aI0
aI0
aI0
aI1
aI13138
aS'_4578950968'
p88
aa(lp89
I1
aI1
aI1
aI1
aI1
aI0
aI0
aI1
aI1
aI0
aI0
aI0
aI0
aI1
aI0
aI0
aI1
aI0
aI20251
aS'_4578950968'
p90
aa(lp91
I1
aI1
aI1
aI1
aI1
aI0
aI0
aI1
aI0
aI1
aI0
aI0
aI0
aI1
aI0
aI0
aI1
aI0
aI58309
aS'_4578950968'
p92
aa(lp93
I1
aI1
aI1
aI0
aI0
aI0
aI1
aI1
aI0
aI0
aI0
aI1
aI0
aI1
aI0
aI1
aI0
aI0
aI212864
aS'_4578950968'
p94
aa(lp95
I1
aI1
aI1
aI0
aI1
aI0
aI1
aI1
aI0
aI0
aI0
aI1
aI0
aI1
aI0
aI1
aI0
aI0
aI212712
aS'_4578950968'
p96
aa(lp97
I0
aI1
aI1
aI1
aI0
aI0
aI1
aI1
aI0
aI0
aI0
aI1
aI0
aI1
aI0
aI1
aI0
aI0
aI13083
aS'_4578950968'
p98
aa(lp99
I0
aI0
aI1
aI1
aI1
aI0
aI1
aI1
aI0
aI0
aI1
aI0
aI0
aI1
aI1
aI0
aI0
aI0
aI5199
aS'_4578950968'
p100
aa(lp101
I1
aI0
aI1
aI1
aI1
aI0
aI0
aI1
aI1
aI0
aI0
aI0
aI0
aI1
aI0
aI0
aI1
aI0
aI32266
aS'_4578950968'
p102
aaaa(lp103
S'_4578948448'
p104
a(lp105
(lp106
I0
aI1
aI0
aI1
aI1
aI1
aI1
aI1
aI0
aI0
aI0
aI1
aI0
aI1
aI1
aI0
aI0
aI0
aI12686
ag104
aa(lp107
I0
aI1
aI0
aI1
aI1
aI1
aI1
aI1
aI1
aI0
aI0
aI0
aI0
aI1
aI0
aI0
aI0
aI1
aI3870
aS'_4578948448'
p108
aa(lp109
I1
aI1
aI0
aI0
aI1
aI1
aI1
aI1
aI0
aI0
aI0
aI0
aI1
aI1
aI1
aI0
aI0
aI0
aI388794
aS'_4578948448'
p110
aa(lp111
I1
aI1
aI0
aI0
aI1
aI0
aI1
aI1
aI0
aI0
aI0
aI1
aI0
aI1
aI1
aI0
aI0
aI0
aI212663
aS'_4578948448'
p112
aa(lp113
I0
aI1
aI0
aI0
aI1
aI0
aI1
aI1
aI0
aI0
aI0
aI1
aI0
aI1
aI1
aI0
aI0
aI0
aI13076
aS'_4578948448'
p114
aa(lp115
I1
aI1
aI0
aI0
aI1
aI1
aI1
aI1
aI0
aI0
aI0
aI0
aI1
aI1
aI0
aI0
aI1
aI0
aI389307
aS'_4578948448'
p116
aa(lp117
I1
aI1
aI1
aI1
aI1
aI0
aI1
aI1
aI0
aI1
aI0
aI0
aI0
aI1
aI1
aI0
aI0
aI0
aI58449
aS'_4578948448'
p118
aa(lp119
I1
aI1
aI0
aI0
aI1
aI0
aI1
aI1
aI0
aI0
aI1
aI0
aI0
aI1
aI1
aI0
aI0
aI0
aI109230
aS'_4578948448'
p120
aa(lp121
I1
aI1
aI0
aI1
aI1
aI1
aI1
aI1
aI0
aI1
aI0
aI0
aI0
aI1
aI0
aI0
aI0
aI1
aI58525
aS'_4578948448'
p122
aa(lp123
I0
aI0
aI0
aI1
aI1
aI1
aI1
aI1
aI0
aI1
aI0
aI0
aI0
aI1
aI1
aI0
aI0
aI0
aI4789
aS'_4578948448'
p124
aa(lp125
I0
aI1
aI0
aI0
aI1
aI1
aI0
aI1
aI0
aI1
aI0
aI0
aI0
aI1
aI1
aI0
aI0
aI0
aI5144
aS'_4578948448'
p126
aa(lp127
I0
aI0
aI0
aI1
aI1
aI0
aI1
aI1
aI0
aI0
aI1
aI0
aI0
aI1
aI0
aI0
aI0
aI1
aI5150
aS'_4578948448'
p128
aa(lp129
I0
aI1
aI1
aI1
aI0
aI1
aI1
aI1
aI0
aI1
aI0
aI0
aI0
aI1
aI0
aI0
aI0
aI1
aI5271
aS'_4578948448'
p130
aa(lp131
I0
aI1
aI0
aI1
aI0
aI1
aI0
aI1
aI0
aI1
aI0
aI0
aI0
aI1
aI0
aI0
aI1
aI0
aI5171
aS'_4578948448'
p132
aa(lp133
I0
aI0
aI0
aI1
aI1
aI1
aI1
aI1
aI0
aI1
aI0
aI0
aI0
aI1
aI0
aI0
aI1
aI0
aI4754
aS'_4578948448'
p134
aa(lp135
I1
aI1
aI0
aI1
aI0
aI1
aI1
aI1
aI0
aI1
aI0
aI0
aI0
aI1
aI0
aI0
aI0
aI1
aI58562
aS'_4578948448'
p136
aaaa(lp137
S'_4578950680'
p138
a(lp139
(lp140
I0
aI0
aI1
aI1
aI0
aI0
aI0
aI1
aI0
aI0
aI0
aI0
aI1
aI1
aI1
aI0
aI0
aI0
aI9324
ag138
aa(lp141
I1
aI0
aI1
aI0
aI0
aI0
aI0
aI1
aI0
aI0
aI0
aI0
aI1
aI1
aI0
aI0
aI1
aI0
aI378012
aS'_4578950680'
p142
aa(lp143
I1
aI0
aI1
aI0
aI0
aI0
aI0
aI1
aI0
aI0
aI0
aI0
aI1
aI1
aI0
aI1
aI0
aI0
aI378200
aS'_4578950680'
p144
aa(lp145
I1
aI0
aI1
aI1
aI0
aI0
aI1
aI1
aI0
aI0
aI0
aI0
aI1
aI1
aI0
aI0
aI1
aI0
aI376323
aS'_4578950680'
p146
aa(lp147
I1
aI0
aI1
aI1
aI0
aI0
aI0
aI1
aI0
aI0
aI0
aI0
aI1
aI1
aI0
aI0
aI1
aI0
aI378392
aS'_4578950680'
p148
aa(lp149
I0
aI0
aI0
aI1
aI1
aI0
aI1
aI1
aI0
aI0
aI0
aI0
aI1
aI1
aI0
aI0
aI0
aI1
aI9519
aS'_4578950680'
p150
aa(lp151
I1
aI1
aI1
aI0
aI0
aI0
aI0
aI1
aI0
aI0
aI0
aI0
aI1
aI1
aI0
aI1
aI0
aI0
aI390282
aS'_4578950680'
p152
aa(lp153
I0
aI1
aI1
aI0
aI0
aI0
aI0
aI1
aI0
aI0
aI0
aI0
aI1
aI1
aI0
aI0
aI0
aI1
aI23992
aS'_4578950680'
p154
aa(lp155
I0
aI0
aI1
aI1
aI1
aI0
aI0
aI1
aI0
aI0
aI0
aI0
aI1
aI1
aI0
aI0
aI0
aI1
aI9259
aS'_4578950680'
p156
aa(lp157
I0
aI0
aI1
aI1
aI1
aI1
aI0
aI1
aI0
aI0
aI0
aI0
aI1
aI1
aI0
aI0
aI1
aI0
aI9181
aS'_4578950680'
p158
aa(lp159
I1
aI0
aI1
aI1
aI1
aI0
aI0
aI1
aI0
aI0
aI1
aI0
aI0
aI1
aI1
aI0
aI0
aI0
aI107313
aS'_4578950680'
p160
aa(lp161
I0
aI1
aI1
aI1
aI0
aI0
aI1
aI1
aI0
aI0
aI0
aI0
aI1
aI1
aI0
aI0
aI0
aI1
aI21395
aS'_4578950680'
p162
aa(lp163
I1
aI1
aI1
aI0
aI1
aI0
aI0
aI1
aI0
aI0
aI0
aI0
aI1
aI1
aI0
aI0
aI1
aI0
aI389997
aS'_4578950680'
p164
aa(lp165
I1
aI0
aI1
aI1
aI1
aI1
aI0
aI1
aI0
aI0
aI0
aI0
aI1
aI1
aI0
aI0
aI1
aI0
aI378284
aS'_4578950680'
p166
aa(lp167
I1
aI1
aI1
aI0
aI0
aI1
aI0
aI1
aI0
aI0
aI0
aI0
aI1
aI1
aI0
aI0
aI1
aI0
aI390639
aS'_4578950680'
p168
aa(lp169
I1
aI1
aI1
aI0
aI0
aI0
aI0
aI1
aI0
aI0
aI0
aI0
aI1
aI1
aI0
aI0
aI0
aI1
aI389766
aS'_4578950680'
p170
aaaa(lp171
S'_4543204096'
p172
a(lp173
(lp174
I1
aI0
aI1
aI1
aI1
aI1
aI0
aI1
aI0
aI0
aI1
aI0
aI0
aI1
aI0
aI1
aI0
aI0
aI107184
ag172
aa(lp175
I0
aI1
aI1
aI1
aI1
aI1
aI0
aI1
aI0
aI0
aI0
aI0
aI1
aI1
aI0
aI1
aI0
aI0
aI20975
aS'_4543204096'
p176
aa(lp177
I1
aI0
aI1
aI0
aI1
aI0
aI0
aI1
aI1
aI0
aI0
aI0
aI0
aI1
aI0
aI1
aI0
aI0
aI32502
aS'_4543204096'
p178
aa(lp179
I1
aI1
aI1
aI1
aI1
aI0
aI0
aI1
aI1
aI0
aI0
aI0
aI0
aI1
aI0
aI1
aI0
aI0
aI20359
aS'_4543204096'
p180
aa(lp181
I0
aI0
aI1
aI1
aI1
aI1
aI0
aI1
aI1
aI0
aI0
aI0
aI0
aI1
aI0
aI0
aI0
aI1
aI5185
aS'_4543204096'
p182
aa(lp183
I0
aI0
aI1
aI0
aI1
aI1
aI1
aI1
aI1
aI0
aI0
aI0
aI0
aI1
aI0
aI1
aI0
aI0
aI5703
aS'_4543204096'
p184
aa(lp185
I1
aI1
aI1
aI1
aI1
aI1
aI0
aI1
aI1
aI0
aI0
aI0
aI0
aI1
aI0
aI0
aI0
aI1
aI20454
aS'_4543204096'
p186
aa(lp187
I1
aI1
aI0
aI1
aI1
aI1
aI1
aI1
aI1
aI0
aI0
aI0
aI0
aI1
aI0
aI1
aI0
aI0
aI20690
aS'_4543204096'
p188
aa(lp189
I0
aI0
aI1
aI0
aI0
aI1
aI0
aI1
aI1
aI0
aI0
aI0
aI0
aI1
aI0
aI1
aI0
aI0
aI5345
aS'_4543204096'
p190
aa(lp191
I1
aI1
aI1
aI0
aI1
aI0
aI0
aI1
aI0
aI0
aI0
aI1
aI0
aI1
aI0
aI1
aI0
aI0
aI212651
aS'_4543204096'
p192
aa(lp193
I0
aI1
aI1
aI0
aI1
aI1
aI0
aI1
aI0
aI1
aI0
aI0
aI0
aI1
aI0
aI1
aI0
aI0
aI5194
aS'_4543204096'
p194
aa(lp195
I1
aI1
aI1
aI0
aI1
aI0
aI1
aI1
aI1
aI0
aI0
aI0
aI0
aI1
aI0
aI1
aI0
aI0
aI20921
aS'_4543204096'
p196
aa(lp197
I0
aI0
aI0
aI0
aI1
aI1
aI0
aI1
aI1
aI0
aI0
aI0
aI0
aI1
aI0
aI1
aI0
aI0
aI5271
aS'_4543204096'
p198
aa(lp199
I1
aI1
aI0
aI0
aI1
aI1
aI0
aI1
aI1
aI0
aI0
aI0
aI0
aI1
aI0
aI1
aI0
aI0
aI20357
aS'_4543204096'
p200
aa(lp201
I0
aI1
aI0
aI1
aI1
aI1
aI0
aI1
aI0
aI0
aI0
aI0
aI1
aI1
aI0
aI0
aI0
aI1
aI20915
aS'_4543204096'
p202
aa(lp203
I0
aI1
aI1
aI1
aI0
aI1
aI0
aI1
aI1
aI0
aI0
aI0
aI0
aI1
aI1
aI0
aI0
aI0
aI3653
aS'_4543204096'
p204
aaaa(lp205
S'_4578950536'
p206
a(lp207
(lp208
I0
aI1
aI1
aI1
aI0
aI1
aI1
aI1
aI0
aI0
aI0
aI0
aI1
aI1
aI1
aI0
aI0
aI0
aI21737
ag206
aa(lp209
I0
aI1
aI1
aI1
aI1
aI0
aI0
aI1
aI0
aI0
aI0
aI0
aI1
aI1
aI0
aI1
aI0
aI0
aI23957
aS'_4578950536'
p210
aa(lp211
I0
aI1
aI1
aI1
aI0
aI1
aI0
aI1
aI0
aI0
aI0
aI0
aI1
aI1
aI0
aI0
aI0
aI1
aI21174
aS'_4578950536'
p212
aa(lp213
I1
aI1
aI1
aI1
aI0
aI0
aI0
aI1
aI0
aI1
aI0
aI0
aI0
aI1
aI0
aI1
aI0
aI0
aI58422
aS'_4578950536'
p214
aa(lp215
I0
aI0
aI1
aI1
aI0
aI1
aI0
aI1
aI0
aI0
aI0
aI0
aI1
aI1
aI1
aI0
aI0
aI0
aI9212
aS'_4578950536'
p216
aa(lp217
I0
aI1
aI1
aI0
aI0
aI0
aI0
aI1
aI0
aI0
aI0
aI0
aI1
aI1
aI0
aI1
aI0
aI0
aI23983
aS'_4578950536'
p218
aa(lp219
I1
aI1
aI1
aI1
aI0
aI0
aI0
aI1
aI0
aI0
aI1
aI0
aI0
aI1
aI0
aI1
aI0
aI0
aI109280
aS'_4578950536'
p220
aa(lp221
I0
aI1
aI1
aI1
aI0
aI1
aI0
aI1
aI0
aI1
aI0
aI0
aI0
aI1
aI0
aI0
aI1
aI0
aI5134
aS'_4578950536'
p222
aa(lp223
I0
aI0
aI1
aI1
aI0
aI0
aI1
aI1
aI1
aI0
aI0
aI0
aI0
aI1
aI0
aI0
aI0
aI1
aI5758
aS'_4578950536'
p224
aa(lp225
I0
aI1
aI1
aI0
aI0
aI1
aI0
aI1
aI0
aI0
aI0
aI0
aI1
aI1
aI1
aI0
aI0
aI0
aI21103
aS'_4578950536'
p226
aa(lp227
I0
aI1
aI1
aI1
aI0
aI0
aI0
aI1
aI0
aI1
aI0
aI0
aI0
aI1
aI0
aI0
aI0
aI1
aI5145
aS'_4578950536'
p228
aa(lp229
I0
aI1
aI1
aI1
aI1
aI1
aI0
aI1
aI0
aI0
aI1
aI0
aI0
aI1
aI1
aI0
aI0
aI0
aI7511
aS'_4578950536'
p230
aa(lp231
I1
aI1
aI1
aI1
aI1
aI0
aI0
aI1
aI0
aI0
aI1
aI0
aI0
aI1
aI1
aI0
aI0
aI0
aI109182
aS'_4578950536'
p232
aa(lp233
I0
aI1
aI1
aI1
aI0
aI0
aI0
aI1
aI0
aI1
aI0
aI0
aI0
aI1
aI1
aI0
aI0
aI0
aI5141
aS'_4578950536'
p234
aa(lp235
I0
aI1
aI1
aI1
aI1
aI0
aI0
aI1
aI0
aI0
aI1
aI0
aI0
aI1
aI0
aI0
aI0
aI1
aI7483
aS'_4578950536'
p236
aa(lp237
I0
aI1
aI1
aI0
aI0
aI0
aI0
aI1
aI0
aI0
aI1
aI0
aI0
aI1
aI1
aI0
aI0
aI0
aI7521
aS'_4578950536'
p238
aaaa(lp239
S'_4578949312'
p240
a(lp241
(lp242
I1
aI0
aI1
aI1
aI1
aI0
aI1
aI1
aI0
aI1
aI0
aI0
aI0
aI1
aI1
aI0
aI0
aI0
aI65116
ag240
aa(lp243
I1
aI0
aI0
aI1
aI1
aI0
aI1
aI1
aI0
aI0
aI1
aI0
aI0
aI1
aI1
aI0
aI0
aI0
aI107181
aS'_4578949312'
p244
aa(lp245
I1
aI0
aI1
aI1
aI0
aI0
aI1
aI1
aI0
aI0
aI1
aI0
aI0
aI1
aI0
aI0
aI1
aI0
aI107378
aS'_4578949312'
p246
aa(lp247
I1
aI0
aI1
aI0
aI1
aI0
aI1
aI1
aI0
aI0
aI1
aI0
aI0
aI1
aI0
aI0
aI0
aI1
aI107335
aS'_4578949312'
p248
aa(lp249
I1
aI0
aI1
aI1
aI1
aI1
aI1
aI1
aI0
aI0
aI1
aI0
aI0
aI1
aI0
aI0
aI0
aI1
aI107295
aS'_4578949312'
p250
aa(lp251
I1
aI1
aI1
aI1
aI0
aI0
aI1
aI1
aI0
aI1
aI0
aI0
aI0
aI1
aI0
aI0
aI1
aI0
aI58593
aS'_4578949312'
p252
aa(lp253
I1
aI0
aI0
aI1
aI0
aI0
aI1
aI1
aI1
aI0
aI0
aI0
aI0
aI1
aI1
aI0
aI0
aI0
aI32860
aS'_4578949312'
p254
aa(lp255
I1
aI0
aI1
aI1
aI0
aI1
aI1
aI1
aI0
aI1
aI0
aI0
aI0
aI1
aI0
aI0
aI0
aI1
aI65552
aS'_4578949312'
p256
aa(lp257
I1
aI0
aI1
aI1
aI0
aI0
aI0
aI1
aI1
aI0
aI0
aI0
aI0
aI1
aI0
aI0
aI0
aI1
aI32279
aS'_4578949312'
p258
aa(lp259
I1
aI0
aI1
aI0
aI0
aI0
aI1
aI1
aI0
aI0
aI0
aI1
aI0
aI1
aI0
aI0
aI0
aI1
aI199909
aS'_4578949312'
p260
aa(lp261
I1
aI1
aI1
aI1
aI0
aI1
aI1
aI1
aI0
aI1
aI0
aI0
aI0
aI1
aI0
aI0
aI0
aI1
aI58613
aS'_4578949312'
p262
aa(lp263
I1
aI1
aI0
aI1
aI0
aI0
aI1
aI1
aI0
aI0
aI0
aI1
aI0
aI1
aI1
aI0
aI0
aI0
aI212473
aS'_4578949312'
p264
aa(lp265
I1
aI0
aI1
aI0
aI0
aI1
aI1
aI1
aI0
aI1
aI0
aI0
aI0
aI1
aI0
aI0
aI0
aI1
aI65299
aS'_4578949312'
p266
aa(lp267
I1
aI0
aI1
aI1
aI0
aI1
aI0
aI1
aI0
aI1
aI0
aI0
aI0
aI1
aI0
aI0
aI0
aI1
aI65070
aS'_4578949312'
p268
aa(lp269
I1
aI0
aI0
aI1
aI0
aI0
aI1
aI1
aI0
aI0
aI0
aI0
aI1
aI1
aI1
aI0
aI0
aI0
aI376858
aS'_4578949312'
p270
aa(lp271
I1
aI0
aI1
aI0
aI0
aI0
aI1
aI1
aI0
aI1
aI0
aI0
aI0
aI1
aI0
aI1
aI0
aI0
aI65371
aS'_4578949312'
p272
aaaa(lp273
S'_4543204456'
p274
a(lp275
(lp276
I0
aI1
aI1
aI0
aI1
aI0
aI0
aI1
aI0
aI1
aI0
aI0
aI0
aI1
aI0
aI0
aI0
aI1
aI5127
ag274
aa(lp277
I0
aI0
aI1
aI0
aI0
aI0
aI0
aI1
aI1
aI0
aI0
aI0
aI0
aI1
aI0
aI0
aI0
aI1
aI5178
aS'_4543204456'
p278
aa(lp279
I0
aI1
aI0
aI0
aI1
aI0
aI0
aI1
aI0
aI0
aI1
aI0
aI0
aI1
aI0
aI0
aI1
aI0
aI7502
aS'_4543204456'
p280
aa(lp281
I0
aI0
aI1
aI0
aI1
aI0
aI0
aI1
aI0
aI0
aI1
aI0
aI0
aI1
aI0
aI0
aI1
aI0
aI4991
aS'_4543204456'
p282
aa(lp283
I0
aI1
aI1
aI0
aI1
aI1
aI0
aI1
aI0
aI0
aI0
aI1
aI0
aI1
aI0
aI0
aI0
aI1
aI12616
aS'_4543204456'
p284
aa(lp285
I0
aI1
aI0
aI0
aI1
aI0
aI0
aI1
aI0
aI0
aI1
aI0
aI0
aI1
aI1
aI0
aI0
aI0
aI7503
aS'_4543204456'
p286
aa(lp287
I0
aI0
aI1
aI1
aI1
aI1
aI0
aI1
aI0
aI1
aI0
aI0
aI0
aI1
aI0
aI0
aI1
aI0
aI4428
aS'_4543204456'
p288
aa(lp289
I0
aI0
aI1
aI0
aI1
aI1
aI0
aI1
aI0
aI0
aI0
aI1
aI0
aI1
aI0
aI0
aI1
aI0
aI6345
aS'_4543204456'
p290
aa(lp291
I0
aI1
aI1
aI0
aI1
aI0
aI0
aI1
aI0
aI1
aI0
aI0
aI0
aI1
aI1
aI0
aI0
aI0
aI5040
aS'_4543204456'
p292
aa(lp293
I0
aI0
aI1
aI0
aI1
aI0
aI0
aI1
aI0
aI0
aI1
aI0
aI0
aI1
aI0
aI1
aI0
aI0
aI4966
aS'_4543204456'
p294
aa(lp295
I1
aI1
aI1
aI0
aI1
aI0
aI0
aI1
aI0
aI0
aI1
aI0
aI0
aI1
aI0
aI1
aI0
aI0
aI109251
aS'_4543204456'
p296
aa(lp297
I0
aI1
aI0
aI0
aI1
aI1
aI0
aI1
aI0
aI0
aI1
aI0
aI0
aI1
aI0
aI0
aI1
aI0
aI7402
aS'_4543204456'
p298
aa(lp299
I0
aI1
aI0
aI1
aI1
aI1
aI0
aI1
aI0
aI0
aI1
aI0
aI0
aI1
aI0
aI0
aI1
aI0
aI7437
aS'_4543204456'
p300
aa(lp301
I0
aI1
aI1
aI0
aI1
aI1
aI0
aI1
aI0
aI0
aI0
aI1
aI0
aI1
aI1
aI0
aI0
aI0
aI12665
aS'_4543204456'
p302
aa(lp303
I0
aI1
aI1
aI0
aI0
aI1
aI0
aI1
aI0
aI0
aI1
aI0
aI0
aI1
aI0
aI0
aI0
aI1
aI7475
aS'_4543204456'
p304
aa(lp305
I0
aI1
aI1
aI0
aI0
aI1
aI0
aI1
aI0
aI0
aI1
aI0
aI0
aI1
aI0
aI1
aI0
aI0
aI7507
aS'_4543204456'
p306
aaaa(lp307
S'_4578947944'
p308
a(lp309
(lp310
I1
aI1
aI1
aI0
aI1
aI1
aI0
aI1
aI1
aI0
aI0
aI0
aI0
aI1
aI0
aI0
aI1
aI0
aI20392
ag308
aa(lp311
I1
aI1
aI0
aI0
aI1
aI0
aI0
aI1
aI1
aI0
aI0
aI0
aI0
aI1
aI1
aI0
aI0
aI0
aI20368
aS'_4578947944'
p312
aa(lp313
I1
aI1
aI1
aI0
aI1
aI1
aI0
aI1
aI0
aI0
aI1
aI0
aI0
aI1
aI1
aI0
aI0
aI0
aI109338
aS'_4578947944'
p314
aa(lp315
I1
aI1
aI1
aI0
aI0
aI1
aI0
aI1
aI1
aI0
aI0
aI0
aI0
aI1
aI1
aI0
aI0
aI0
aI20324
aS'_4578947944'
p316
aa(lp317
I1
aI1
aI1
aI1
aI0
aI1
aI1
aI1
aI1
aI0
aI0
aI0
aI0
aI1
aI0
aI0
aI1
aI0
aI20751
aS'_4578947944'
p318
aa(lp319
I0
aI1
aI1
aI0
aI0
aI1
aI0
aI1
aI0
aI0
aI0
aI1
aI0
aI1
aI1
aI0
aI0
aI0
aI12577
aS'_4578947944'
p320
aa(lp321
I1
aI0
aI0
aI0
aI0
aI0
aI0
aI1
aI1
aI0
aI0
aI0
aI0
aI1
aI1
aI0
aI0
aI0
aI32192
aS'_4578947944'
p322
aa(lp323
I1
aI0
aI1
aI0
aI1
aI0
aI0
aI1
aI0
aI0
aI0
aI1
aI0
aI1
aI1
aI0
aI0
aI0
aI200103
aS'_4578947944'
p324
aa(lp325
I1
aI1
aI1
aI0
aI0
aI0
aI1
aI1
aI1
aI0
aI0
aI0
aI0
aI1
aI1
aI0
aI0
aI0
aI20661
aS'_4578947944'
p326
aa(lp327
I0
aI0
aI1
aI0
aI0
aI1
aI0
aI1
aI1
aI0
aI0
aI0
aI0
aI1
aI1
aI0
aI0
aI0
aI5290
aS'_4578947944'
p328
aa(lp329
I1
aI1
aI1
aI0
aI1
aI1
aI1
aI1
aI0
aI0
aI1
aI0
aI0
aI1
aI1
aI0
aI0
aI0
aI109198
aS'_4578947944'
p330
aa(lp331
I1
aI0
aI0
aI1
aI1
aI0
aI0
aI1
aI1
aI0
aI0
aI0
aI0
aI1
aI1
aI0
aI0
aI0
aI32099
aS'_4578947944'
p332
aa(lp333
I1
aI0
aI1
aI0
aI0
aI1
aI0
aI1
aI0
aI1
aI0
aI0
aI0
aI1
aI1
aI0
aI0
aI0
aI65247
aS'_4578947944'
p334
aa(lp335
I1
aI1
aI1
aI0
aI0
aI1
aI1
aI1
aI0
aI0
aI1
aI0
aI0
aI1
aI1
aI0
aI0
aI0
aI109114
aS'_4578947944'
p336
aa(lp337
I1
aI0
aI1
aI1
aI1
aI1
aI0
aI1
aI0
aI0
aI1
aI0
aI0
aI1
aI1
aI0
aI0
aI0
aI107214
aS'_4578947944'
p338
aa(lp339
I1
aI1
aI0
aI1
aI0
aI1
aI1
aI1
aI1
aI0
aI0
aI0
aI0
aI1
aI1
aI0
aI0
aI0
aI20727
aS'_4578947944'
p340
aaaa(lp341
S'_4578950176'
p342
a(lp343
(lp344
I1
aI1
aI0
aI1
aI0
aI1
aI1
aI1
aI0
aI0
aI0
aI0
aI1
aI1
aI0
aI1
aI0
aI0
aI389307
ag342
aa(lp345
I1
aI0
aI1
aI1
aI0
aI0
aI1
aI1
aI0
aI0
aI0
aI0
aI1
aI1
aI0
aI1
aI0
aI0
aI376059
aS'_4578950176'
p346
aa(lp347
I0
aI0
aI1
aI1
aI0
aI1
aI1
aI1
aI0
aI0
aI0
aI0
aI1
aI1
aI0
aI1
aI0
aI0
aI9331
aS'_4578950176'
p348
aa(lp349
I1
aI1
aI0
aI1
aI0
aI0
aI0
aI1
aI0
aI0
aI0
aI0
aI1
aI1
aI0
aI1
aI0
aI0
aI389336
aS'_4578950176'
p350
aa(lp351
I0
aI0
aI1
aI1
aI1
aI0
aI1
aI1
aI0
aI0
aI0
aI0
aI1
aI1
aI0
aI1
aI0
aI0
aI9607
aS'_4578950176'
p352
aa(lp353
I0
aI1
aI0
aI1
aI0
aI1
aI0
aI1
aI0
aI0
aI0
aI0
aI1
aI1
aI0
aI0
aI0
aI1
aI20982
aS'_4578950176'
p354
aa(lp355
I0
aI0
aI0
aI1
aI0
aI0
aI0
aI1
aI0
aI0
aI0
aI0
aI1
aI1
aI0
aI1
aI0
aI0
aI9320
aS'_4578950176'
p356
aa(lp357
I1
aI1
aI1
aI1
aI0
aI0
aI1
aI1
aI0
aI0
aI0
aI0
aI1
aI1
aI0
aI0
aI1
aI0
aI388630
aS'_4578950176'
p358
aa(lp359
I0
aI0
aI1
aI1
aI0
aI1
aI1
aI1
aI0
aI0
aI0
aI0
aI1
aI1
aI0
aI0
aI0
aI1
aI9385
aS'_4578950176'
p360
aa(lp361
I1
aI1
aI1
aI1
aI0
aI0
aI1
aI1
aI0
aI1
aI0
aI0
aI0
aI1
aI0
aI1
aI0
aI0
aI58719
aS'_4578950176'
p362
aa(lp363
I1
aI1
aI1
aI1
aI0
aI1
aI1
aI1
aI0
aI0
aI1
aI0
aI0
aI1
aI0
aI1
aI0
aI0
aI109242
aS'_4578950176'
p364
aa(lp365
I1
aI1
aI1
aI0
aI0
aI0
aI1
aI1
aI0
aI0
aI0
aI0
aI1
aI1
aI0
aI1
aI0
aI0
aI389026
aS'_4578950176'
p366
aa(lp367
I1
aI0
aI1
aI1
aI0
aI0
aI0
aI1
aI0
aI1
aI0
aI0
aI0
aI1
aI0
aI1
aI0
aI0
aI65121
aS'_4578950176'
p368
aa(lp369
I1
aI1
aI1
aI1
aI0
aI1
aI0
aI1
aI1
aI0
aI0
aI0
aI0
aI1
aI0
aI0
aI0
aI1
aI20331
aS'_4578950176'
p370
aa(lp371
I1
aI1
aI1
aI1
aI0
aI1
aI0
aI1
aI1
aI0
aI0
aI0
aI0
aI1
aI0
aI0
aI1
aI0
aI20395
aS'_4578950176'
p372
aa(lp373
I0
aI1
aI1
aI1
aI0
aI1
aI1
aI1
aI0
aI0
aI1
aI0
aI0
aI1
aI0
aI1
aI0
aI0
aI7471
aS'_4578950176'
p374
aaaa(lp375
S'_4543203880'
p376
a(lp377
(lp378
I1
aI1
aI0
aI1
aI1
aI1
aI0
aI1
aI1
aI0
aI0
aI0
aI0
aI1
aI0
aI0
aI1
aI0
aI20289
ag376
aa(lp379
I0
aI1
aI1
aI0
aI1
aI1
aI0
aI1
aI1
aI0
aI0
aI0
aI0
aI1
aI1
aI0
aI0
aI0
aI3675
aS'_4543203880'
p380
aa(lp381
I1
aI1
aI1
aI0
aI1
aI0
aI0
aI1
aI1
aI0
aI0
aI0
aI0
aI1
aI1
aI0
aI0
aI0
aI20364
aS'_4543203880'
p382
aa(lp383
I0
aI1
aI1
aI0
aI1
aI0
aI1
aI1
aI1
aI0
aI0
aI0
aI0
aI1
aI0
aI1
aI0
aI0
aI3956
aS'_4543203880'
p384
aa(lp385
I0
aI1
aI0
aI1
aI1
aI0
aI0
aI1
aI0
aI0
aI0
aI1
aI0
aI1
aI1
aI0
aI0
aI0
aI12693
aS'_4543203880'
p386
aa(lp387
I0
aI1
aI0
aI1
aI1
aI0
aI0
aI1
aI0
aI1
aI0
aI0
aI0
aI1
aI0
aI0
aI0
aI1
aI5229
aS'_4543203880'
p388
aa(lp389
I0
aI1
aI0
aI1
aI0
aI1
aI0
aI1
aI1
aI0
aI0
aI0
aI0
aI1
aI0
aI0
aI0
aI1
aI3696
aS'_4543203880'
p390
aa(lp391
I0
aI1
aI1
aI0
aI0
aI1
aI0
aI1
aI1
aI0
aI0
aI0
aI0
aI1
aI0
aI0
aI0
aI1
aI3641
aS'_4543203880'
p392
aa(lp393
I0
aI1
aI0
aI0
aI1
aI1
aI0
aI1
aI0
aI0
aI0
aI0
aI1
aI1
aI0
aI0
aI0
aI1
aI21159
aS'_4543203880'
p394
aa(lp395
I0
aI1
aI0
aI0
aI1
aI0
aI0
aI1
aI1
aI0
aI0
aI0
aI0
aI1
aI0
aI1
aI0
aI0
aI3695
aS'_4543203880'
p396
aa(lp397
I0
aI1
aI0
aI1
aI0
aI1
aI0
aI1
aI1
aI0
aI0
aI0
aI0
aI1
aI0
aI0
aI1
aI0
aI3695
aS'_4543203880'
p398
aa(lp399
I0
aI1
aI0
aI0
aI1
aI1
aI0
aI1
aI1
aI0
aI0
aI0
aI0
aI1
aI0
aI0
aI0
aI1
aI3614
aS'_4543203880'
p400
aa(lp401
I0
aI1
aI1
aI0
aI1
aI1
aI1
aI1
aI1
aI0
aI0
aI0
aI0
aI1
aI0
aI0
aI1
aI0
aI3905
aS'_4543203880'
p402
aa(lp403
I0
aI1
aI0
aI1
aI1
aI0
aI0
aI1
aI1
aI0
aI0
aI0
aI0
aI1
aI0
aI0
aI0
aI1
aI3683
aS'_4543203880'
p404
aa(lp405
I0
aI1
aI0
aI0
aI1
aI0
aI0
aI1
aI1
aI0
aI0
aI0
aI0
aI1
aI1
aI0
aI0
aI0
aI3633
aS'_4543203880'
p406
aa(lp407
I0
aI1
aI0
aI0
aI1
aI0
aI0
aI1
aI1
aI0
aI0
aI0
aI0
aI1
aI0
aI0
aI1
aI0
aI3670
aS'_4543203880'
p408
aaaa(lp409
S'_4579653464'
p410
a(lp411
(lp412
I0
aI1
aI0
aI0
aI0
aI0
aI0
aI1
aI0
aI1
aI0
aI0
aI0
aI1
aI0
aI1
aI0
aI0
aI5156
ag410
aa(lp413
I0
aI1
aI0
aI0
aI0
aI0
aI1
aI1
aI0
aI0
aI0
aI1
aI0
aI1
aI0
aI1
aI0
aI0
aI13076
aS'_4579653464'
p414
aa(lp415
I1
aI1
aI0
aI0
aI1
aI1
aI0
aI1
aI0
aI0
aI0
aI1
aI0
aI1
aI0
aI1
aI0
aI0
aI212191
aS'_4579653464'
p416
aa(lp417
I0
aI1
aI0
aI0
aI1
aI1
aI0
aI1
aI0
aI0
aI0
aI1
aI0
aI1
aI0
aI1
aI0
aI0
aI12545
aS'_4579653464'
p418
aa(lp419
I0
aI1
aI0
aI0
aI0
aI0
aI0
aI1
aI0
aI0
aI1
aI0
aI0
aI1
aI0
aI0
aI0
aI1
aI7546
aS'_4579653464'
p420
aa(lp421
I0
aI1
aI0
aI0
aI0
aI1
aI0
aI1
aI1
aI0
aI0
aI0
aI0
aI1
aI0
aI1
aI0
aI0
aI3617
aS'_4579653464'
p422
aa(lp423
I0
aI1
aI0
aI1
aI1
aI1
aI0
aI1
aI0
aI1
aI0
aI0
aI0
aI1
aI0
aI1
aI0
aI0
aI5179
aS'_4579653464'
p424
aa(lp425
I0
aI1
aI0
aI0
aI1
aI1
aI0
aI1
aI0
aI0
aI0
aI1
aI0
aI1
aI0
aI0
aI1
aI0
aI12568
aS'_4579653464'
p426
aa(lp427
I1
aI0
aI0
aI0
aI1
aI0
aI1
aI1
aI0
aI0
aI0
aI0
aI1
aI1
aI0
aI1
aI0
aI0
aI375655
aS'_4579653464'
p428
aa(lp429
I1
aI1
aI0
aI1
aI1
aI1
aI0
aI1
aI0
aI0
aI1
aI0
aI0
aI1
aI0
aI1
aI0
aI0
aI109268
aS'_4579653464'
p430
aa(lp431
I0
aI1
aI0
aI1
aI1
aI1
aI0
aI1
aI0
aI0
aI0
aI0
aI1
aI1
aI0
aI1
aI0
aI0
aI20996
aS'_4579653464'
p432
aa(lp433
I0
aI0
aI0
aI0
aI1
aI1
aI0
aI1
aI0
aI0
aI0
aI0
aI1
aI1
aI0
aI1
aI0
aI0
aI9144
aS'_4579653464'
p434
aa(lp435
I0
aI1
aI0
aI1
aI1
aI1
aI0
aI1
aI0
aI0
aI0
aI1
aI0
aI1
aI0
aI1
aI0
aI0
aI12571
aS'_4579653464'
p436
aa(lp437
I0
aI0
aI0
aI1
aI0
aI1
aI1
aI1
aI0
aI0
aI0
aI0
aI1
aI1
aI0
aI1
aI0
aI0
aI9205
aS'_4579653464'
p438
aa(lp439
I0
aI1
aI0
aI1
aI0
aI1
aI0
aI1
aI0
aI0
aI1
aI0
aI0
aI1
aI0
aI0
aI0
aI1
aI7412
aS'_4579653464'
p440
aa(lp441
I0
aI1
aI1
aI0
aI0
aI1
aI0
aI1
aI0
aI0
aI0
aI1
aI0
aI1
aI0
aI0
aI0
aI1
aI12565
aS'_4579653464'
p442
aaaa(lp443
S'_4578948376'
p444
a(lp445
(lp446
I1
aI0
aI1
aI1
aI1
aI0
aI1
aI1
aI1
aI0
aI0
aI0
aI0
aI1
aI1
aI0
aI0
aI0
aI32710
ag444
aa(lp447
I1
aI1
aI1
aI0
aI0
aI1
aI0
aI1
aI0
aI0
aI0
aI0
aI1
aI1
aI1
aI0
aI0
aI0
aI390524
aS'_4578948376'
p448
aa(lp449
I1
aI0
aI1
aI0
aI0
aI1
aI0
aI1
aI0
aI0
aI0
aI1
aI0
aI1
aI1
aI0
aI0
aI0
aI199723
aS'_4578948376'
p450
aa(lp451
I0
aI1
aI1
aI1
aI0
aI1
aI0
aI1
aI0
aI1
aI0
aI0
aI0
aI1
aI1
aI0
aI0
aI0
aI5150
aS'_4578948376'
p452
aa(lp453
I1
aI0
aI1
aI0
aI1
aI0
aI1
aI1
aI0
aI0
aI1
aI0
aI0
aI1
aI1
aI0
aI0
aI0
aI107322
aS'_4578948376'
p454
aa(lp455
I1
aI0
aI0
aI0
aI0
aI0
aI1
aI1
aI1
aI0
aI0
aI0
aI0
aI1
aI1
aI0
aI0
aI0
aI32811
aS'_4578948376'
p456
aa(lp457
I1
aI0
aI1
aI1
aI0
aI1
aI1
aI1
aI1
aI0
aI0
aI0
aI0
aI1
aI1
aI0
aI0
aI0
aI33165
aS'_4578948376'
p458
aa(lp459
I1
aI0
aI1
aI0
aI0
aI0
aI1
aI1
aI0
aI0
aI0
aI1
aI0
aI1
aI1
aI0
aI0
aI0
aI199821
aS'_4578948376'
p460
aa(lp461
I1
aI0
aI1
aI1
aI0
aI0
aI1
aI1
aI1
aI0
aI0
aI0
aI0
aI1
aI1
aI0
aI0
aI0
aI32881
aS'_4578948376'
p462
aa(lp463
I1
aI0
aI0
aI1
aI0
aI1
aI0
aI1
aI0
aI1
aI0
aI0
aI0
aI1
aI1
aI0
aI0
aI0
aI65259
aS'_4578948376'
p464
aa(lp465
I1
aI0
aI1
aI0
aI1
aI0
aI1
aI1
aI0
aI0
aI0
aI0
aI1
aI1
aI1
aI0
aI0
aI0
aI376392
aS'_4578948376'
p466
aa(lp467
I1
aI0
aI1
aI1
aI0
aI1
aI0
aI1
aI0
aI0
aI0
aI1
aI0
aI1
aI1
aI0
aI0
aI0
aI200097
aS'_4578948376'
p468
aa(lp469
I1
aI0
aI1
aI1
aI0
aI1
aI0
aI1
aI0
aI0
aI1
aI0
aI0
aI1
aI1
aI0
aI0
aI0
aI107188
aS'_4578948376'
p470
aa(lp471
I0
aI0
aI1
aI1
aI0
aI0
aI0
aI1
aI0
aI1
aI0
aI0
aI0
aI1
aI1
aI0
aI0
aI0
aI4531
aS'_4578948376'
p472
aa(lp473
I1
aI0
aI0
aI1
aI0
aI1
aI1
aI1
aI0
aI0
aI1
aI0
aI0
aI1
aI1
aI0
aI0
aI0
aI106980
aS'_4578948376'
p474
aa(lp475
I1
aI0
aI1
aI1
aI0
aI1
aI1
aI1
aI0
aI0
aI0
aI0
aI1
aI1
aI1
aI0
aI0
aI0
aI377354
aS'_4578948376'
p476
aaaa(lp477
S'_4578948808'
p478
a(lp479
(lp480
I0
aI1
aI1
aI0
aI0
aI0
aI1
aI1
aI0
aI0
aI1
aI0
aI0
aI1
aI1
aI0
aI0
aI0
aI7741
ag478
aa(lp481
I1
aI1
aI1
aI0
aI0
aI0
aI0
aI1
aI0
aI0
aI1
aI0
aI0
aI1
aI1
aI0
aI0
aI0
aI109168
aS'_4578948808'
p482
aa(lp483
I1
aI0
aI1
aI1
aI0
aI1
aI0
aI1
aI0
aI0
aI1
aI0
aI0
aI1
aI0
aI0
aI1
aI0
aI107235
aS'_4578948808'
p484
aa(lp485
I0
aI0
aI0
aI0
aI0
aI0
aI0
aI1
aI0
aI0
aI1
aI0
aI0
aI1
aI0
aI0
aI1
aI0
aI4802
aS'_4578948808'
p486
aa(lp487
I1
aI0
aI0
aI0
aI0
aI1
aI0
aI1
aI0
aI0
aI1
aI0
aI0
aI1
aI0
aI0
aI1
aI0
aI107563
aS'_4578948808'
p488
aa(lp489
I0
aI0
aI1
aI0
aI0
aI1
aI0
aI1
aI0
aI0
aI1
aI0
aI0
aI1
aI0
aI0
aI1
aI0
aI5059
aS'_4578948808'
p490
aa(lp491
I1
aI1
aI0
aI0
aI0
aI0
aI0
aI1
aI1
aI0
aI0
aI0
aI0
aI1
aI1
aI0
aI0
aI0
aI20236
aS'_4578948808'
p492
aa(lp493
I1
aI1
aI0
aI1
aI0
aI1
aI0
aI1
aI1
aI0
aI0
aI0
aI0
aI1
aI0
aI0
aI1
aI0
aI20156
aS'_4578948808'
p494
aa(lp495
I1
aI0
aI1
aI0
aI1
aI1
aI0
aI1
aI0
aI0
aI1
aI0
aI0
aI1
aI0
aI0
aI1
aI0
aI107480
aS'_4578948808'
p496
aa(lp497
I0
aI0
aI1
aI0
aI0
aI0
aI1
aI1
aI0
aI0
aI1
aI0
aI0
aI1
aI0
aI0
aI1
aI0
aI5102
aS'_4578948808'
p498
aa(lp499
I1
aI0
aI1
aI0
aI0
aI1
aI1
aI1
aI0
aI0
aI1
aI0
aI0
aI1
aI0
aI0
aI1
aI0
aI107152
aS'_4578948808'
p500
aa(lp501
I1
aI0
aI1
aI0
aI0
aI1
aI0
aI1
aI0
aI1
aI0
aI0
aI0
aI1
aI0
aI0
aI1
aI0
aI65318
aS'_4578948808'
p502
aa(lp503
I1
aI0
aI1
aI0
aI0
aI0
aI0
aI1
aI0
aI0
aI0
aI1
aI0
aI1
aI0
aI0
aI0
aI1
aI200238
aS'_4578948808'
p504
aa(lp505
I1
aI0
aI1
aI0
aI1
aI0
aI0
aI1
aI1
aI0
aI0
aI0
aI0
aI1
aI0
aI0
aI1
aI0
aI32391
aS'_4578948808'
p506
aa(lp507
I1
aI0
aI1
aI0
aI0
aI0
aI0
aI1
aI1
aI0
aI0
aI0
aI0
aI1
aI0
aI0
aI1
aI0
aI32491
aS'_4578948808'
p508
aa(lp509
I1
aI1
aI1
aI0
aI0
aI0
aI1
aI1
aI1
aI0
aI0
aI0
aI0
aI1
aI0
aI0
aI1
aI0
aI20588
aS'_4578948808'
p510
aaaa(lp511
S'_4578948664'
p512
a(lp513
(lp514
I1
aI0
aI0
aI0
aI1
aI1
aI1
aI1
aI0
aI1
aI0
aI0
aI0
aI1
aI1
aI0
aI0
aI0
aI65415
ag512
aa(lp515
I1
aI1
aI1
aI0
aI1
aI0
aI1
aI1
aI0
aI1
aI0
aI0
aI0
aI1
aI1
aI0
aI0
aI0
aI58708
aS'_4578948664'
p516
aa(lp517
I1
aI0
aI0
aI0
aI1
aI1
aI1
aI1
aI0
aI0
aI0
aI0
aI1
aI1
aI0
aI0
aI0
aI1
aI377236
aS'_4578948664'
p518
aa(lp519
I1
aI1
aI0
aI0
aI0
aI0
aI1
aI1
aI0
aI1
aI0
aI0
aI0
aI1
aI1
aI0
aI0
aI0
aI58704
aS'_4578948664'
p520
aa(lp521
I0
aI1
aI0
aI1
aI0
aI0
aI1
aI1
aI0
aI1
aI0
aI0
aI0
aI1
aI0
aI0
aI0
aI1
aI5371
aS'_4578948664'
p522
aa(lp523
I0
aI0
aI0
aI1
aI0
aI1
aI0
aI1
aI0
aI1
aI0
aI0
aI0
aI1
aI0
aI0
aI0
aI1
aI4500
aS'_4578948664'
p524
aa(lp525
I0
aI0
aI1
aI0
aI1
aI1
aI0
aI1
aI0
aI1
aI0
aI0
aI0
aI1
aI0
aI0
aI0
aI1
aI4541
aS'_4578948664'
p526
aa(lp527
I0
aI1
aI1
aI0
aI0
aI1
aI1
aI1
aI0
aI1
aI0
aI0
aI0
aI1
aI0
aI0
aI0
aI1
aI5357
aS'_4578948664'
p528
aa(lp529
I1
aI0
aI0
aI0
aI1
aI0
aI1
aI1
aI0
aI0
aI0
aI0
aI1
aI1
aI0
aI0
aI1
aI0
aI376434
aS'_4578948664'
p530
aa(lp531
I1
aI0
aI0
aI0
aI1
aI1
aI0
aI1
aI0
aI1
aI0
aI0
aI0
aI1
aI0
aI0
aI1
aI0
aI65278
aS'_4578948664'
p532
aa(lp533
I1
aI0
aI1
aI1
aI1
aI0
aI1
aI1
aI0
aI1
aI0
aI0
aI0
aI1
aI0
aI0
aI0
aI1
aI65067
aS'_4578948664'
p534
aa(lp535
I0
aI1
aI0
aI0
aI1
aI0
aI1
aI1
aI0
aI1
aI0
aI0
aI0
aI1
aI0
aI1
aI0
aI0
aI5408
aS'_4578948664'
p536
aa(lp537
I0
aI0
aI0
aI0
aI1
aI0
aI1
aI1
aI0
aI1
aI0
aI0
aI0
aI1
aI0
aI0
aI1
aI0
aI4645
aS'_4578948664'
p538
aa(lp539
I0
aI1
aI1
aI0
aI0
aI0
aI1
aI1
aI0
aI1
aI0
aI0
aI0
aI1
aI0
aI1
aI0
aI0
aI5434
aS'_4578948664'
p540
aa(lp541
I1
aI0
aI0
aI0
aI1
aI0
aI0
aI1
aI0
aI1
aI0
aI0
aI0
aI1
aI0
aI1
aI0
aI0
aI65168
aS'_4578948664'
p542
aa(lp543
I0
aI0
aI0
aI0
aI0
aI0
aI1
aI1
aI0
aI1
aI0
aI0
aI0
aI1
aI0
aI1
aI0
aI0
aI4627
aS'_4578948664'
p544
aaaa(lp545
S'_4578949744'
p546
a(lp547
(lp548
I0
aI1
aI0
aI0
aI0
aI1
aI1
aI1
aI1
aI0
aI0
aI0
aI0
aI1
aI0
aI0
aI1
aI0
aI3898
ag546
aa(lp549
I1
aI0
aI1
aI1
aI1
aI1
aI1
aI1
aI1
aI0
aI0
aI0
aI0
aI1
aI1
aI0
aI0
aI0
aI32852
aS'_4578949744'
p550
aa(lp551
I0
aI0
aI0
aI0
aI0
aI1
aI1
aI1
aI1
aI0
aI0
aI0
aI0
aI1
aI0
aI1
aI0
aI0
aI5672
aS'_4578949744'
p552
aa(lp553
I0
aI0
aI1
aI0
aI0
aI0
aI1
aI1
aI1
aI0
aI0
aI0
aI0
aI1
aI0
aI0
aI1
aI0
aI5679
aS'_4578949744'
p554
aa(lp555
I0
aI0
aI0
aI1
aI0
aI1
aI1
aI1
aI1
aI0
aI0
aI0
aI0
aI1
aI0
aI0
aI1
aI0
aI5745
aS'_4578949744'
p556
aa(lp557
I1
aI0
aI1
aI1
aI0
aI1
aI1
aI1
aI1
aI0
aI0
aI0
aI0
aI1
aI0
aI0
aI1
aI0
aI33196
aS'_4578949744'
p558
aa(lp559
I0
aI0
aI0
aI0
aI0
aI0
aI1
aI1
aI1
aI0
aI0
aI0
aI0
aI1
aI0
aI0
aI1
aI0
aI5682
aS'_4578949744'
p560
aa(lp561
I1
aI0
aI1
aI0
aI1
aI1
aI1
aI1
aI0
aI0
aI1
aI0
aI0
aI1
aI0
aI0
aI1
aI0
aI107380
aS'_4578949744'
p562
aa(lp563
I0
aI0
aI0
aI0
aI0
aI1
aI0
aI1
aI0
aI0
aI0
aI0
aI1
aI1
aI0
aI0
aI1
aI0
aI9146
aS'_4578949744'
p564
aa(lp565
I1
aI0
aI0
aI0
aI0
aI0
aI1
aI1
aI1
aI0
aI0
aI0
aI0
aI1
aI0
aI1
aI0
aI0
aI33018
aS'_4578949744'
p566
aa(lp567
I1
aI0
aI0
aI0
aI0
aI1
aI0
aI1
aI0
aI1
aI0
aI0
aI0
aI1
aI0
aI0
aI1
aI0
aI65344
aS'_4578949744'
p568
aa(lp569
I1
aI0
aI0
aI0
aI0
aI0
aI1
aI1
aI1
aI0
aI0
aI0
aI0
aI1
aI0
aI0
aI1
aI0
aI32862
aS'_4578949744'
p570
aa(lp571
I1
aI0
aI0
aI0
aI0
aI1
aI0
aI1
aI1
aI0
aI0
aI0
aI0
aI1
aI0
aI0
aI1
aI0
aI32516
aS'_4578949744'
p572
aa(lp573
I1
aI0
aI0
aI0
aI1
aI1
aI0
aI1
aI0
aI0
aI1
aI0
aI0
aI1
aI0
aI0
aI1
aI0
aI107559
aS'_4578949744'
p574
aa(lp575
I1
aI0
aI0
aI0
aI1
aI0
aI0
aI1
aI1
aI0
aI0
aI0
aI0
aI1
aI0
aI0
aI1
aI0
aI32291
aS'_4578949744'
p576
aa(lp577
I1
aI0
aI0
aI1
aI1
aI1
aI0
aI1
aI1
aI0
aI0
aI0
aI0
aI1
aI0
aI0
aI1
aI0
aI32398
aS'_4578949744'
p578
aaaa(lp579
S'_4578948880'
p580
a(lp581
(lp582
I1
aI0
aI1
aI0
aI1
aI0
aI0
aI1
aI0
aI0
aI0
aI1
aI0
aI1
aI0
aI0
aI0
aI1
aI200177
ag580
aa(lp583
I1
aI1
aI0
aI0
aI0
aI0
aI0
aI1
aI1
aI0
aI0
aI0
aI0
aI1
aI0
aI0
aI0
aI1
aI20258
aS'_4578948880'
p584
aa(lp585
I0
aI1
aI0
aI0
aI0
aI1
aI0
aI1
aI0
aI1
aI0
aI0
aI0
aI1
aI0
aI0
aI0
aI1
aI5061
aS'_4578948880'
p586
aa(lp587
I1
aI1
aI0
aI0
aI0
aI0
aI1
aI1
aI1
aI0
aI0
aI0
aI0
aI1
aI0
aI0
aI1
aI0
aI20875
aS'_4578948880'
p588
aa(lp589
I1
aI1
aI0
aI0
aI1
aI0
aI0
aI1
aI0
aI0
aI1
aI0
aI0
aI1
aI0
aI0
aI0
aI1
aI109220
aS'_4578948880'
p590
aa(lp591
I1
aI0
aI0
aI0
aI1
aI0
aI1
aI1
aI1
aI0
aI0
aI0
aI0
aI1
aI0
aI0
aI1
aI0
aI32653
aS'_4578948880'
p592
aa(lp593
I1
aI1
aI1
aI0
aI1
aI0
aI1
aI1
aI0
aI0
aI0
aI1
aI0
aI1
aI1
aI0
aI0
aI0
aI212520
aS'_4578948880'
p594
aa(lp595
I1
aI1
aI0
aI0
aI1
aI0
aI1
aI1
aI0
aI0
aI0
aI1
aI0
aI1
aI0
aI0
aI0
aI1
aI212790
aS'_4578948880'
p596
aa(lp597
I1
aI1
aI0
aI0
aI0
aI0
aI0
aI1
aI0
aI0
aI0
aI1
aI0
aI1
aI0
aI0
aI0
aI1
aI212980
aS'_4578948880'
p598
aa(lp599
I1
aI1
aI0
aI0
aI1
aI0
aI1
aI1
aI1
aI0
aI0
aI0
aI0
aI1
aI1
aI0
aI0
aI0
aI20703
aS'_4578948880'
p600
aa(lp601
I1
aI1
aI0
aI1
aI1
aI1
aI1
aI1
aI1
aI0
aI0
aI0
aI0
aI1
aI0
aI0
aI0
aI1
aI20704
aS'_4578948880'
p602
aa(lp603
I1
aI1
aI0
aI0
aI0
aI1
aI0
aI1
aI0
aI1
aI0
aI0
aI0
aI1
aI0
aI0
aI1
aI0
aI58292
aS'_4578948880'
p604
aa(lp605
I0
aI1
aI0
aI0
aI0
aI0
aI1
aI1
aI0
aI0
aI0
aI1
aI0
aI1
aI0
aI0
aI1
aI0
aI13044
aS'_4578948880'
p606
aa(lp607
I0
aI1
aI0
aI0
aI0
aI0
aI0
aI1
aI0
aI0
aI1
aI0
aI0
aI1
aI0
aI0
aI1
aI0
aI7508
aS'_4578948880'
p608
aa(lp609
I1
aI1
aI0
aI0
aI1
aI0
aI0
aI1
aI0
aI0
aI1
aI0
aI0
aI1
aI0
aI0
aI1
aI0
aI109300
aS'_4578948880'
p610
aa(lp611
I1
aI1
aI0
aI0
aI1
aI1
aI0
aI1
aI0
aI0
aI0
aI1
aI0
aI1
aI0
aI0
aI1
aI0
aI212102
aS'_4578948880'
p612
aaaa(lp613
S'_4578949240'
p614
a(lp615
(lp616
I0
aI0
aI0
aI1
aI0
aI0
aI1
aI1
aI0
aI0
aI1
aI0
aI0
aI1
aI0
aI0
aI1
aI0
aI5237
ag614
aa(lp617
I0
aI0
aI0
aI1
aI0
aI0
aI0
aI1
aI0
aI0
aI1
aI0
aI0
aI1
aI0
aI0
aI1
aI0
aI5116
aS'_4578949240'
p618
aa(lp619
I1
aI0
aI0
aI1
aI0
aI0
aI1
aI1
aI0
aI0
aI0
aI1
aI0
aI1
aI0
aI0
aI1
aI0
aI200119
aS'_4578949240'
p620
aa(lp621
I1
aI0
aI0
aI1
aI1
aI0
aI1
aI1
aI0
aI0
aI1
aI0
aI0
aI1
aI0
aI0
aI1
aI0
aI107160
aS'_4578949240'
p622
aa(lp623
I0
aI1
aI0
aI1
aI0
aI1
aI1
aI1
aI0
aI0
aI1
aI0
aI0
aI1
aI0
aI0
aI1
aI0
aI7572
aS'_4578949240'
p624
aa(lp625
I1
aI0
aI0
aI1
aI1
aI0
aI1
aI1
aI0
aI0
aI0
aI1
aI0
aI1
aI0
aI0
aI1
aI0
aI199874
aS'_4578949240'
p626
aa(lp627
I0
aI1
aI1
aI0
aI1
aI1
aI1
aI1
aI0
aI0
aI1
aI0
aI0
aI1
aI0
aI0
aI1
aI0
aI7596
aS'_4578949240'
p628
aa(lp629
I1
aI0
aI0
aI0
aI1
aI0
aI0
aI1
aI0
aI0
aI1
aI0
aI0
aI1
aI0
aI0
aI1
aI0
aI107399
aS'_4578949240'
p630
aa(lp631
I1
aI1
aI0
aI1
aI0
aI0
aI1
aI1
aI0
aI0
aI0
aI1
aI0
aI1
aI0
aI0
aI1
aI0
aI212827
aS'_4578949240'
p632
aa(lp633
I1
aI0
aI0
aI0
aI0
aI0
aI0
aI1
aI0
aI0
aI0
aI0
aI1
aI1
aI0
aI0
aI1
aI0
aI378377
aS'_4578949240'
p634
aa(lp635
I0
aI1
aI0
aI1
aI0
aI1
aI1
aI1
aI0
aI0
aI0
aI1
aI0
aI1
aI0
aI0
aI1
aI0
aI12755
aS'_4578949240'
p636
aa(lp637
I1
aI0
aI0
aI1
aI0
aI1
aI1
aI1
aI0
aI0
aI0
aI0
aI1
aI1
aI0
aI0
aI1
aI0
aI375938
aS'_4578949240'
p638
aa(lp639
I0
aI0
aI0
aI1
aI0
aI0
aI1
aI1
aI0
aI1
aI0
aI0
aI0
aI1
aI0
aI1
aI0
aI0
aI4761
aS'_4578949240'
p640
aa(lp641
I0
aI1
aI0
aI1
aI0
aI1
aI0
aI1
aI0
aI0
aI0
aI1
aI0
aI1
aI0
aI0
aI1
aI0
aI12507
aS'_4578949240'
p642
aa(lp643
I0
aI0
aI0
aI1
aI1
aI1
aI0
aI1
aI0
aI0
aI0
aI1
aI0
aI1
aI0
aI0
aI1
aI0
aI6326
aS'_4578949240'
p644
aa(lp645
I1
aI0
aI1
aI1
aI0
aI1
aI1
aI1
aI0
aI1
aI0
aI0
aI0
aI1
aI0
aI0
aI1
aI0
aI65479
aS'_4578949240'
p646
aaaa(lp647
S'_4578949168'
p648
a(lp649
(lp650
I1
aI0
aI0
aI1
aI1
aI1
aI1
aI1
aI0
aI0
aI1
aI0
aI0
aI1
aI1
aI0
aI0
aI0
aI107400
ag648
aa(lp651
I1
aI1
aI0
aI1
aI0
aI1
aI1
aI1
aI0
aI0
aI0
aI1
aI0
aI1
aI0
aI0
aI1
aI0
aI212340
aS'_4578949168'
p652
aa(lp653
I1
aI1
aI0
aI1
aI0
aI1
aI0
aI1
aI0
aI0
aI0
aI1
aI0
aI1
aI0
aI0
aI1
aI0
aI212206
aS'_4578949168'
p654
aa(lp655
I1
aI0
aI0
aI1
aI0
aI1
aI0
aI1
aI0
aI1
aI0
aI0
aI0
aI1
aI0
aI0
aI1
aI0
aI65211
aS'_4578949168'
p656
aa(lp657
I1
aI0
aI0
aI0
aI1
aI1
aI0
aI1
aI0
aI0
aI0
aI0
aI1
aI1
aI0
aI0
aI1
aI0
aI377685
aS'_4578949168'
p658
aa(lp659
I1
aI0
aI0
aI0
aI1
aI0
aI1
aI1
aI0
aI0
aI0
aI1
aI0
aI1
aI0
aI1
aI0
aI0
aI199701
aS'_4578949168'
p660
aa(lp661
I1
aI0
aI0
aI1
aI0
aI1
aI0
aI1
aI1
aI0
aI0
aI0
aI0
aI1
aI0
aI0
aI0
aI1
aI32348
aS'_4578949168'
p662
aa(lp663
I1
aI0
aI0
aI1
aI1
aI1
aI1
aI1
aI0
aI0
aI0
aI1
aI0
aI1
aI1
aI0
aI0
aI0
aI199186
aS'_4578949168'
p664
aa(lp665
I1
aI1
aI0
aI1
aI1
aI1
aI0
aI1
aI0
aI0
aI1
aI0
aI0
aI1
aI0
aI0
aI0
aI1
aI109040
aS'_4578949168'
p666
aa(lp667
I1
aI0
aI1
aI1
aI1
aI1
aI0
aI1
aI0
aI1
aI0
aI0
aI0
aI1
aI0
aI0
aI1
aI0
aI64936
aS'_4578949168'
p668
aa(lp669
I1
aI0
aI0
aI0
aI1
aI1
aI1
aI1
aI0
aI0
aI0
aI0
aI1
aI1
aI0
aI1
aI0
aI0
aI376685
aS'_4578949168'
p670
aa(lp671
I1
aI0
aI1
aI1
aI1
aI0
aI0
aI1
aI0
aI1
aI0
aI0
aI0
aI1
aI1
aI0
aI0
aI0
aI65174
aS'_4578949168'
p672
aa(lp673
I1
aI0
aI0
aI1
aI1
aI1
aI1
aI1
aI0
aI1
aI0
aI0
aI0
aI1
aI0
aI1
aI0
aI0
aI65327
aS'_4578949168'
p674
aa(lp675
I1
aI0
aI0
aI1
aI0
aI1
aI0
aI1
aI0
aI1
aI0
aI0
aI0
aI1
aI0
aI1
aI0
aI0
aI65242
aS'_4578949168'
p676
aa(lp677
I1
aI1
aI0
aI0
aI0
aI1
aI0
aI1
aI0
aI0
aI0
aI1
aI0
aI1
aI0
aI1
aI0
aI0
aI212188
aS'_4578949168'
p678
aa(lp679
I1
aI1
aI0
aI1
aI1
aI1
aI0
aI1
aI0
aI1
aI0
aI0
aI0
aI1
aI0
aI1
aI0
aI0
aI58274
aS'_4578949168'
p680
aaaa(lp681
S'_4578950752'
p682
a(lp683
(lp684
I0
aI0
aI1
aI1
aI1
aI0
aI1
aI1
aI0
aI0
aI0
aI1
aI0
aI1
aI0
aI0
aI0
aI1
aI6469
ag682
aa(lp685
I0
aI1
aI0
aI0
aI1
aI0
aI1
aI1
aI0
aI0
aI0
aI0
aI1
aI1
aI1
aI0
aI0
aI0
aI21507
aS'_4578950752'
p686
aa(lp687
I1
aI1
aI1
aI0
aI1
aI0
aI1
aI1
aI0
aI1
aI0
aI0
aI0
aI1
aI0
aI1
aI0
aI0
aI58622
aS'_4578950752'
p688
aa(lp689
I1
aI1
aI1
aI1
aI0
aI1
aI1
aI1
aI0
aI0
aI0
aI1
aI0
aI1
aI0
aI1
aI0
aI0
aI211766
aS'_4578950752'
p690
aa(lp691
I1
aI1
aI1
aI1
aI1
aI0
aI1
aI1
aI0
aI0
aI0
aI1
aI0
aI1
aI0
aI1
aI0
aI0
aI212488
aS'_4578950752'
p692
aa(lp693
I0
aI1
aI1
aI0
aI0
aI0
aI1
aI1
aI0
aI0
aI1
aI0
aI0
aI1
aI0
aI1
aI0
aI0
aI7818
aS'_4578950752'
p694
aa(lp695
I0
aI1
aI1
aI1
aI0
aI0
aI0
aI1
aI0
aI1
aI0
aI0
aI0
aI1
aI0
aI1
aI0
aI0
aI5164
aS'_4578950752'
p696
aa(lp697
I1
aI1
aI1
aI1
aI1
aI0
aI1
aI1
aI0
aI0
aI0
aI0
aI1
aI1
aI0
aI0
aI1
aI0
aI388233
aS'_4578950752'
p698
aa(lp699
I1
aI0
aI1
aI0
aI1
aI0
aI1
aI1
aI0
aI0
aI0
aI0
aI1
aI1
aI0
aI0
aI1
aI0
aI376229
aS'_4578950752'
p700
aa(lp701
I1
aI1
aI0
aI1
aI0
aI0
aI0
aI1
aI0
aI1
aI0
aI0
aI0
aI1
aI0
aI1
aI0
aI0
aI58257
aS'_4578950752'
p702
aa(lp703
I1
aI0
aI1
aI1
aI1
aI0
aI1
aI1
aI1
aI0
aI0
aI0
aI0
aI1
aI0
aI0
aI1
aI0
aI32688
aS'_4578950752'
p704
aa(lp705
I0
aI1
aI1
aI1
aI0
aI0
aI1
aI1
aI0
aI1
aI0
aI0
aI0
aI1
aI0
aI1
aI0
aI0
aI5381
aS'_4578950752'
p706
aa(lp707
I0
aI1
aI0
aI1
aI1
aI0
aI1
aI1
aI0
aI0
aI0
aI0
aI1
aI1
aI0
aI0
aI0
aI1
aI21393
aS'_4578950752'
p708
aa(lp709
I0
aI0
aI1
aI1
aI0
aI0
aI1
aI1
aI0
aI1
aI0
aI0
aI0
aI1
aI0
aI1
aI0
aI0
aI4716
aS'_4578950752'
p710
aa(lp711
I1
aI1
aI0
aI1
aI1
aI1
aI1
aI1
aI0
aI0
aI0
aI0
aI1
aI1
aI0
aI1
aI0
aI0
aI389000
aS'_4578950752'
p712
aa(lp713
I1
aI0
aI0
aI1
aI1
aI0
aI1
aI1
aI0
aI0
aI0
aI0
aI1
aI1
aI0
aI1
aI0
aI0
aI376133
aS'_4578950752'
p714
aaaa(lp715
S'_4543204672'
p716
a(lp717
(lp718
I1
aI0
aI0
aI0
aI1
aI0
aI0
aI1
aI0
aI0
aI0
aI0
aI1
aI1
aI0
aI0
aI0
aI1
aI377720
ag716
aa(lp719
I0
aI0
aI0
aI0
aI1
aI1
aI0
aI1
aI0
aI0
aI0
aI0
aI1
aI1
aI0
aI0
aI0
aI1
aI9271
aS'_4543204672'
p720
aa(lp721
I0
aI0
aI1
aI0
aI1
aI1
aI1
aI1
aI0
aI0
aI0
aI0
aI1
aI1
aI0
aI0
aI0
aI1
aI9176
aS'_4543204672'
p722
aa(lp723
I0
aI1
aI0
aI0
aI1
aI0
aI0
aI1
aI0
aI0
aI0
aI1
aI0
aI1
aI0
aI0
aI0
aI1
aI12569
aS'_4543204672'
p724
aa(lp725
I0
aI0
aI1
aI0
aI1
aI0
aI0
aI1
aI1
aI0
aI0
aI0
aI0
aI1
aI0
aI0
aI0
aI1
aI5148
aS'_4543204672'
p726
aa(lp727
I0
aI0
aI0
aI0
aI1
aI0
aI0
aI1
aI1
aI0
aI0
aI0
aI0
aI1
aI0
aI0
aI1
aI0
aI5075
aS'_4543204672'
p728
aa(lp729
I0
aI0
aI1
aI0
aI1
aI0
aI1
aI1
aI1
aI0
aI0
aI0
aI0
aI1
aI0
aI0
aI1
aI0
aI5667
aS'_4543204672'
p730
aa(lp731
I0
aI0
aI1
aI1
aI1
aI0
aI0
aI1
aI0
aI1
aI0
aI0
aI0
aI1
aI1
aI0
aI0
aI0
aI4485
aS'_4543204672'
p732
aa(lp733
I0
aI0
aI1
aI0
aI1
aI0
aI0
aI1
aI1
aI0
aI0
aI0
aI0
aI1
aI0
aI0
aI1
aI0
aI5147
aS'_4543204672'
p734
aa(lp735
I0
aI1
aI0
aI0
aI1
aI0
aI0
aI1
aI0
aI0
aI1
aI0
aI0
aI1
aI0
aI0
aI0
aI1
aI7507
aS'_4543204672'
p736
aa(lp737
I0
aI0
aI1
aI0
aI0
aI1
aI0
aI1
aI0
aI0
aI0
aI0
aI1
aI1
aI0
aI0
aI0
aI1
aI9241
aS'_4543204672'
p738
aa(lp739
I1
aI0
aI1
aI0
aI1
aI0
aI0
aI1
aI0
aI0
aI0
aI1
aI0
aI1
aI0
aI1
aI0
aI0
aI200028
aS'_4543204672'
p740
aa(lp741
I0
aI1
aI0
aI0
aI1
aI0
aI1
aI1
aI0
aI0
aI1
aI0
aI0
aI1
aI0
aI0
aI0
aI1
aI7792
aS'_4543204672'
p742
aa(lp743
I0
aI1
aI1
aI0
aI1
aI0
aI0
aI1
aI1
aI0
aI0
aI0
aI0
aI1
aI0
aI0
aI0
aI1
aI3630
aS'_4543204672'
p744
aa(lp745
I0
aI0
aI1
aI0
aI1
aI1
aI0
aI1
aI0
aI0
aI0
aI0
aI1
aI1
aI1
aI0
aI0
aI0
aI9250
aS'_4543204672'
p746
aa(lp747
I0
aI0
aI1
aI0
aI1
aI1
aI0
aI1
aI0
aI0
aI0
aI1
aI0
aI1
aI0
aI0
aI0
aI1
aI6361
aS'_4543204672'
p748
aaaa(lp749
S'_4578948016'
p750
a(lp751
(lp752
I0
aI0
aI1
aI0
aI1
aI1
aI1
aI1
aI0
aI1
aI0
aI0
aI0
aI1
aI0
aI1
aI0
aI0
aI4664
ag750
aa(lp753
I0
aI0
aI0
aI0
aI1
aI1
aI1
aI1
aI0
aI0
aI0
aI1
aI0
aI1
aI0
aI1
aI0
aI0
aI6360
aS'_4578948016'
p754
aa(lp755
I0
aI0
aI1
aI0
aI1
aI1
aI0
aI1
aI0
aI1
aI0
aI0
aI0
aI1
aI1
aI0
aI0
aI0
aI4533
aS'_4578948016'
p756
aa(lp757
I0
aI0
aI1
aI0
aI0
aI1
aI0
aI1
aI0
aI0
aI0
aI1
aI0
aI1
aI0
aI0
aI1
aI0
aI6378
aS'_4578948016'
p758
aa(lp759
I1
aI0
aI0
aI0
aI0
aI0
aI0
aI1
aI0
aI0
aI0
aI1
aI0
aI1
aI0
aI1
aI0
aI0
aI200033
aS'_4578948016'
p760
aa(lp761
I1
aI0
aI0
aI0
aI0
aI1
aI0
aI1
aI0
aI0
aI0
aI1
aI0
aI1
aI0
aI0
aI1
aI0
aI199648
aS'_4578948016'
p762
aa(lp763
I0
aI0
aI0
aI0
aI1
aI1
aI0
aI1
aI0
aI0
aI0
aI1
aI0
aI1
aI0
aI0
aI0
aI1
aI6333
aS'_4578948016'
p764
aa(lp765
I0
aI0
aI0
aI0
aI1
aI1
aI0
aI1
aI0
aI0
aI1
aI0
aI0
aI1
aI1
aI0
aI0
aI0
aI5005
aS'_4578948016'
p766
aa(lp767
I1
aI0
aI0
aI0
aI0
aI1
aI0
aI1
aI0
aI1
aI0
aI0
aI0
aI1
aI0
aI1
aI0
aI0
aI65272
aS'_4578948016'
p768
aa(lp769
I1
aI0
aI0
aI0
aI0
aI1
aI0
aI1
aI0
aI0
aI0
aI0
aI1
aI1
aI0
aI1
aI0
aI0
aI377322
aS'_4578948016'
p770
aa(lp771
I0
aI0
aI0
aI0
aI0
aI0
aI0
aI1
aI0
aI1
aI0
aI0
aI0
aI1
aI0
aI1
aI0
aI0
aI4308
aS'_4578948016'
p772
aa(lp773
I0
aI0
aI0
aI0
aI1
aI1
aI0
aI1
aI1
aI0
aI0
aI0
aI0
aI1
aI1
aI0
aI0
aI0
aI5194
aS'_4578948016'
p774
aa(lp775
I0
aI0
aI0
aI0
aI0
aI1
aI0
aI1
aI1
aI0
aI0
aI0
aI0
aI1
aI0
aI0
aI0
aI1
aI5196
aS'_4578948016'
p776
aa(lp777
I1
aI0
aI0
aI0
aI1
aI1
aI0
aI1
aI1
aI0
aI0
aI0
aI0
aI1
aI1
aI0
aI0
aI0
aI32470
aS'_4578948016'
p778
aa(lp779
I0
aI0
aI0
aI0
aI1
aI1
aI0
aI1
aI0
aI0
aI1
aI0
aI0
aI1
aI0
aI0
aI1
aI0
aI5012
aS'_4578948016'
p780
aa(lp781
I0
aI0
aI0
aI0
aI1
aI1
aI0
aI1
aI1
aI0
aI0
aI0
aI0
aI1
aI0
aI0
aI1
aI0
aI5172
aS'_4578948016'
p782
aaaa(lp783
S'_4578947872'
p784
a(lp785
(lp786
I0
aI1
aI1
aI0
aI0
aI1
aI1
aI1
aI0
aI0
aI0
aI1
aI0
aI1
aI1
aI0
aI0
aI0
aI12699
ag784
aa(lp787
I0
aI1
aI0
aI0
aI0
aI0
aI1
aI1
aI0
aI0
aI0
aI1
aI0
aI1
aI1
aI0
aI0
aI0
aI13066
aS'_4578947872'
p788
aa(lp789
I0
aI0
aI0
aI1
aI0
aI0
aI1
aI1
aI0
aI0
aI0
aI1
aI0
aI1
aI1
aI0
aI0
aI0
aI6507
aS'_4578947872'
p790
aa(lp791
I0
aI0
aI1
aI0
aI1
aI1
aI1
aI1
aI0
aI0
aI0
aI1
aI0
aI1
aI1
aI0
aI0
aI0
aI6411
aS'_4578947872'
p792
aa(lp793
I0
aI1
aI0
aI0
aI0
aI1
aI0
aI1
aI0
aI0
aI0
aI1
aI0
aI1
aI1
aI0
aI0
aI0
aI12466
aS'_4578947872'
p794
aa(lp795
I0
aI0
aI0
aI0
aI0
aI0
aI1
aI1
aI0
aI0
aI0
aI1
aI0
aI1
aI0
aI1
aI0
aI0
aI6342
aS'_4578947872'
p796
aa(lp797
I0
aI0
aI1
aI0
aI0
aI1
aI1
aI1
aI0
aI0
aI0
aI0
aI1
aI1
aI0
aI0
aI0
aI1
aI9148
aS'_4578947872'
p798
aa(lp799
I0
aI0
aI0
aI0
aI0
aI1
aI0
aI1
aI0
aI0
aI0
aI1
aI0
aI1
aI1
aI0
aI0
aI0
aI6446
aS'_4578947872'
p800
aa(lp801
I0
aI0
aI0
aI0
aI0
aI1
aI1
aI1
aI0
aI0
aI1
aI0
aI0
aI1
aI1
aI0
aI0
aI0
aI5113
aS'_4578947872'
p802
aa(lp803
I0
aI0
aI0
aI0
aI0
aI0
aI0
aI1
aI0
aI0
aI0
aI1
aI0
aI1
aI1
aI0
aI0
aI0
aI6160
aS'_4578947872'
p804
aa(lp805
I0
aI0
aI0
aI0
aI0
aI1
aI1
aI1
aI0
aI1
aI0
aI0
aI0
aI1
aI1
aI0
aI0
aI0
aI4659
aS'_4578947872'
p806
aa(lp807
I0
aI0
aI1
aI0
aI1
aI1
aI1
aI1
aI0
aI0
aI0
aI0
aI1
aI1
aI1
aI0
aI0
aI0
aI9242
aS'_4578947872'
p808
aa(lp809
I0
aI0
aI1
aI0
aI1
aI1
aI1
aI1
aI0
aI0
aI0
aI1
aI0
aI1
aI0
aI0
aI0
aI1
aI6437
aS'_4578947872'
p810
aa(lp811
I0
aI0
aI0
aI1
aI0
aI1
aI0
aI1
aI0
aI0
aI0
aI1
aI0
aI1
aI0
aI0
aI0
aI1
aI6352
aS'_4578947872'
p812
aa(lp813
I0
aI0
aI0
aI1
aI1
aI1
aI1
aI1
aI0
aI0
aI0
aI0
aI1
aI1
aI1
aI0
aI0
aI0
aI9275
aS'_4578947872'
p814
aa(lp815
I0
aI0
aI1
aI0
aI0
aI1
aI0
aI1
aI0
aI1
aI0
aI0
aI0
aI1
aI0
aI0
aI0
aI1
aI4581
aS'_4578947872'
p816
aaaa(lp817
S'_4578948952'
p818
a(lp819
(lp820
I1
aI0
aI1
aI0
aI0
aI0
aI1
aI1
aI0
aI1
aI0
aI0
aI0
aI1
aI0
aI0
aI0
aI1
aI65364
ag818
aa(lp821
I0
aI1
aI1
aI0
aI0
aI0
aI1
aI1
aI0
aI1
aI0
aI0
aI0
aI1
aI0
aI0
aI0
aI1
aI5397
aS'_4578948952'
p822
aa(lp823
I1
aI1
aI1
aI0
aI0
aI0
aI1
aI1
aI0
aI1
aI0
aI0
aI0
aI1
aI0
aI0
aI0
aI1
aI58405
aS'_4578948952'
p824
aa(lp825
I0
aI0
aI0
aI0
aI0
aI0
aI1
aI1
aI0
aI0
aI1
aI0
aI0
aI1
aI0
aI0
aI0
aI1
aI5085
aS'_4578948952'
p826
aa(lp827
I1
aI0
aI0
aI0
aI0
aI0
aI1
aI1
aI0
aI0
aI0
aI0
aI1
aI1
aI0
aI0
aI0
aI1
aI376791
aS'_4578948952'
p828
aa(lp829
I0
aI0
aI0
aI0
aI0
aI0
aI0
aI1
aI0
aI1
aI0
aI0
aI0
aI1
aI0
aI0
aI0
aI1
aI4329
aS'_4578948952'
p830
aa(lp831
I1
aI1
aI1
aI0
aI0
aI0
aI0
aI1
aI0
aI1
aI0
aI0
aI0
aI1
aI0
aI0
aI0
aI1
aI58393
aS'_4578948952'
p832
aa(lp833
I1
aI1
aI0
aI0
aI0
aI0
aI1
aI1
aI1
aI0
aI0
aI0
aI0
aI1
aI0
aI0
aI0
aI1
aI20846
aS'_4578948952'
p834
aa(lp835
I1
aI1
aI1
aI0
aI1
aI0
aI1
aI1
aI1
aI0
aI0
aI0
aI0
aI1
aI0
aI0
aI0
aI1
aI20759
aS'_4578948952'
p836
aa(lp837
I1
aI0
aI0
aI0
aI1
aI0
aI1
aI1
aI0
aI0
aI0
aI0
aI1
aI1
aI0
aI0
aI0
aI1
aI375821
aS'_4578948952'
p838
aa(lp839
I0
aI0
aI0
aI0
aI1
aI0
aI1
aI1
aI1
aI0
aI0
aI0
aI0
aI1
aI0
aI0
aI0
aI1
aI5680
aS'_4578948952'
p840
aa(lp841
I0
aI1
aI0
aI0
aI1
aI0
aI1
aI1
aI0
aI1
aI0
aI0
aI0
aI1
aI0
aI0
aI0
aI1
aI5378
aS'_4578948952'
p842
aa(lp843
I1
aI1
aI0
aI1
aI1
aI0
aI1
aI1
aI0
aI1
aI0
aI0
aI0
aI1
aI0
aI0
aI0
aI1
aI58539
aS'_4578948952'
p844
aa(lp845
I0
aI1
aI0
aI0
aI0
aI1
aI1
aI1
aI0
aI0
aI0
aI0
aI1
aI1
aI0
aI0
aI0
aI1
aI21558
aS'_4578948952'
p846
aa(lp847
I0
aI1
aI0
aI0
aI0
aI1
aI1
aI1
aI0
aI0
aI1
aI0
aI0
aI1
aI0
aI0
aI0
aI1
aI7507
aS'_4578948952'
p848
aa(lp849
I1
aI1
aI0
aI0
aI0
aI0
aI1
aI1
aI0
aI0
aI0
aI1
aI0
aI1
aI0
aI0
aI0
aI1
aI212966
aS'_4578948952'
p850
aaaa(lp851
S'_4578950464'
p852
a(lp853
(lp854
I1
aI1
aI0
aI1
aI0
aI0
aI0
aI1
aI0
aI0
aI0
aI0
aI1
aI1
aI0
aI0
aI0
aI1
aI390207
ag852
aa(lp855
I0
aI0
aI1
aI1
aI1
aI1
aI1
aI1
aI0
aI0
aI0
aI0
aI1
aI1
aI0
aI0
aI0
aI1
aI9256
aS'_4578950464'
p856
aa(lp857
I1
aI0
aI1
aI0
aI1
aI0
aI0
aI1
aI0
aI0
aI0
aI0
aI1
aI1
aI0
aI0
aI0
aI1
aI378129
aS'_4578950464'
p858
aa(lp859
I0
aI0
aI1
aI1
aI0
aI0
aI0
aI1
aI0
aI1
aI0
aI0
aI0
aI1
aI0
aI0
aI0
aI1
aI4532
aS'_4578950464'
p860
aa(lp861
I0
aI1
aI1
aI1
aI1
aI0
aI0
aI1
aI0
aI0
aI0
aI0
aI1
aI1
aI0
aI0
aI0
aI1
aI23943
aS'_4578950464'
p862
aa(lp863
I1
aI0
aI1
aI1
aI0
aI1
aI0
aI1
aI0
aI0
aI0
aI0
aI1
aI1
aI0
aI0
aI0
aI1
aI378489
aS'_4578950464'
p864
aa(lp865
I1
aI1
aI1
aI1
aI1
aI0
aI1
aI1
aI0
aI0
aI0
aI0
aI1
aI1
aI0
aI0
aI0
aI1
aI388176
aS'_4578950464'
p866
aa(lp867
I1
aI1
aI1
aI1
aI0
aI1
aI0
aI1
aI0
aI0
aI0
aI0
aI1
aI1
aI0
aI0
aI0
aI1
aI390079
aS'_4578950464'
p868
aa(lp869
I1
aI0
aI1
aI1
aI1
aI0
aI1
aI1
aI1
aI0
aI0
aI0
aI0
aI1
aI0
aI0
aI0
aI1
aI32691
aS'_4578950464'
p870
aa(lp871
I1
aI1
aI1
aI0
aI0
aI0
aI0
aI1
aI1
aI0
aI0
aI0
aI0
aI1
aI0
aI0
aI0
aI1
aI20360
aS'_4578950464'
p872
aa(lp873
I1
aI1
aI1
aI0
aI1
aI1
aI0
aI1
aI0
aI0
aI0
aI0
aI1
aI1
aI0
aI0
aI1
aI0
aI390115
aS'_4578950464'
p874
aa(lp875
I1
aI0
aI1
aI1
aI1
aI0
aI0
aI1
aI0
aI1
aI0
aI0
aI0
aI1
aI0
aI0
aI0
aI1
aI65343
aS'_4578950464'
p876
aa(lp877
I1
aI1
aI1
aI1
aI1
aI1
aI0
aI1
aI0
aI0
aI0
aI0
aI1
aI1
aI0
aI0
aI0
aI1
aI389853
aS'_4578950464'
p878
aa(lp879
I1
aI1
aI1
aI0
aI1
aI1
aI0
aI1
aI0
aI0
aI0
aI0
aI1
aI1
aI0
aI0
aI0
aI1
aI390850
aS'_4578950464'
p880
aa(lp881
I1
aI1
aI1
aI0
aI1
aI0
aI0
aI1
aI0
aI1
aI0
aI0
aI0
aI1
aI0
aI0
aI0
aI1
aI58331
aS'_4578950464'
p882
aa(lp883
I1
aI1
aI1
aI1
aI1
aI1
aI0
aI1
aI0
aI1
aI0
aI0
aI0
aI1
aI0
aI0
aI0
aI1
aI58493
aS'_4578950464'
p884
aaaa(lp885
S'_4579653536'
p886
a(lp887
(lp888
I0
aI0
aI1
aI0
aI1
aI1
aI0
aI1
aI0
aI0
aI1
aI0
aI0
aI1
aI0
aI1
aI0
aI0
aI5037
ag886
aa(lp889
I0
aI1
aI0
aI1
aI1
aI0
aI1
aI1
aI1
aI0
aI0
aI0
aI0
aI1
aI0
aI1
aI0
aI0
aI3830
aS'_4579653536'
p890
aa(lp891
I0
aI1
aI0
aI0
aI1
aI1
aI1
aI1
aI1
aI0
aI0
aI0
aI0
aI1
aI0
aI1
aI0
aI0
aI3869
aS'_4579653536'
p892
aa(lp893
I0
aI0
aI0
aI0
aI1
aI0
aI1
aI1
aI1
aI0
aI0
aI0
aI0
aI1
aI0
aI1
aI0
aI0
aI5692
aS'_4579653536'
p894
aa(lp895
I1
aI1
aI0
aI1
aI1
aI1
aI1
aI1
aI0
aI0
aI0
aI1
aI0
aI1
aI0
aI1
aI0
aI0
aI212674
aS'_4579653536'
p896
aa(lp897
I0
aI1
aI1
aI1
aI0
aI1
aI1
aI1
aI1
aI0
aI0
aI0
aI0
aI1
aI0
aI1
aI0
aI0
aI3917
aS'_4579653536'
p898
aa(lp899
I0
aI0
aI0
aI0
aI1
aI0
aI1
aI1
aI0
aI0
aI0
aI0
aI1
aI1
aI0
aI0
aI0
aI1
aI9651
aS'_4579653536'
p900
aa(lp901
I0
aI0
aI1
aI0
aI1
aI1
aI1
aI1
aI0
aI0
aI0
aI1
aI0
aI1
aI0
aI1
aI0
aI0
aI6388
aS'_4579653536'
p902
aa(lp903
I0
aI0
aI0
aI1
aI1
aI1
aI0
aI1
aI0
aI0
aI0
aI0
aI1
aI1
aI0
aI0
aI1
aI0
aI9196
aS'_4579653536'
p904
aa(lp905
I0
aI0
aI0
aI1
aI1
aI1
aI1
aI1
aI0
aI0
aI0
aI0
aI1
aI1
aI0
aI1
aI0
aI0
aI9204
aS'_4579653536'
p906
aa(lp907
I0
aI1
aI0
aI0
aI1
aI1
aI1
aI1
aI0
aI0
aI0
aI0
aI1
aI1
aI0
aI0
aI0
aI1
aI21594
aS'_4579653536'
p908
aa(lp909
I0
aI0
aI1
aI1
aI1
aI1
aI0
aI1
aI0
aI1
aI0
aI0
aI0
aI1
aI0
aI0
aI0
aI1
aI4429
aS'_4579653536'
p910
aa(lp911
I0
aI0
aI1
aI1
aI1
aI1
aI1
aI1
aI0
aI0
aI1
aI0
aI0
aI1
aI0
aI1
aI0
aI0
aI5218
aS'_4579653536'
p912
aa(lp913
I0
aI0
aI0
aI1
aI1
aI1
aI0
aI1
aI0
aI0
aI0
aI0
aI1
aI1
aI0
aI0
aI0
aI1
aI9128
aS'_4579653536'
p914
aa(lp915
I0
aI0
aI1
aI1
aI1
aI1
aI0
aI1
aI0
aI0
aI0
aI1
aI0
aI1
aI0
aI0
aI0
aI1
aI6275
aS'_4579653536'
p916
aa(lp917
I0
aI0
aI1
aI1
aI1
aI1
aI1
aI1
aI1
aI0
aI0
aI0
aI0
aI1
aI0
aI0
aI0
aI1
aI5808
aS'_4579653536'
p918
aaaa(lp919
S'_4578950896'
p920
a(lp921
(lp922
I1
aI1
aI1
aI1
aI1
aI1
aI1
aI1
aI1
aI0
aI0
aI0
aI0
aI1
aI0
aI0
aI1
aI0
aI20744
ag920
aa(lp923
I0
aI1
aI1
aI1
aI1
aI0
aI0
aI1
aI1
aI0
aI0
aI0
aI0
aI1
aI0
aI0
aI1
aI0
aI3625
aS'_4578950896'
p924
aa(lp925
I1
aI1
aI0
aI1
aI1
aI0
aI0
aI1
aI0
aI0
aI1
aI0
aI0
aI1
aI0
aI0
aI1
aI0
aI109005
aS'_4578950896'
p926
aa(lp927
I0
aI1
aI1
aI1
aI1
aI0
aI0
aI1
aI0
aI1
aI0
aI0
aI0
aI1
aI0
aI0
aI1
aI0
aI5093
aS'_4578950896'
p928
aa(lp929
I0
aI1
aI1
aI0
aI1
aI1
aI0
aI1
aI0
aI0
aI0
aI0
aI1
aI1
aI0
aI0
aI1
aI0
aI21019
aS'_4578950896'
p930
aa(lp931
I1
aI0
aI1
aI1
aI1
aI0
aI0
aI1
aI0
aI0
aI0
aI1
aI0
aI1
aI0
aI0
aI1
aI0
aI200190
aS'_4578950896'
p932
aa(lp933
I0
aI1
aI1
aI1
aI1
aI0
aI1
aI1
aI0
aI0
aI1
aI0
aI0
aI1
aI0
aI0
aI1
aI0
aI7752
aS'_4578950896'
p934
aa(lp935
I0
aI1
aI1
aI1
aI1
aI0
aI1
aI1
aI0
aI0
aI0
aI1
aI0
aI1
aI0
aI0
aI1
aI0
aI13062
aS'_4578950896'
p936
aa(lp937
I0
aI1
aI1
aI0
aI1
aI0
aI1
aI1
aI0
aI0
aI1
aI0
aI0
aI1
aI0
aI0
aI1
aI0
aI7836
aS'_4578950896'
p938
aa(lp939
I0
aI1
aI1
aI1
aI0
aI0
aI1
aI1
aI1
aI0
aI0
aI0
aI0
aI1
aI0
aI0
aI1
aI0
aI3814
aS'_4578950896'
p940
aa(lp941
I0
aI1
aI0
aI1
aI1
aI0
aI0
aI1
aI0
aI0
aI1
aI0
aI0
aI1
aI0
aI0
aI1
aI0
aI7619
aS'_4578950896'
p942
aa(lp943
I0
aI1
aI1
aI1
aI1
aI0
aI0
aI1
aI0
aI0
aI1
aI0
aI0
aI1
aI1
aI0
aI0
aI0
aI7492
aS'_4578950896'
p944
aa(lp945
I0
aI1
aI0
aI1
aI0
aI1
aI0
aI1
aI0
aI0
aI1
aI0
aI0
aI1
aI0
aI0
aI1
aI0
aI7387
aS'_4578950896'
p946
aa(lp947
I0
aI1
aI1
aI1
aI1
aI0
aI1
aI1
aI0
aI0
aI1
aI0
aI0
aI1
aI0
aI0
aI0
aI1
aI7768
aS'_4578950896'
p948
aa(lp949
I0
aI1
aI1
aI1
aI0
aI0
aI0
aI1
aI0
aI0
aI0
aI1
aI0
aI1
aI0
aI0
aI1
aI0
aI12439
aS'_4578950896'
p950
aa(lp951
I1
aI0
aI0
aI1
aI1
aI0
aI0
aI1
aI0
aI0
aI1
aI0
aI0
aI1
aI0
aI0
aI1
aI0
aI107519
aS'_4578950896'
p952
aaaa(lp953
S'_4543203160'
p954
a(lp955
(lp956
I1
aI0
aI1
aI1
aI1
aI1
aI1
aI1
aI0
aI0
aI0
aI1
aI0
aI1
aI0
aI1
aI0
aI0
aI199591
ag954
aa(lp957
I0
aI0
aI1
aI1
aI0
aI0
aI0
aI1
aI0
aI0
aI0
aI1
aI0
aI1
aI0
aI1
aI0
aI0
aI6305
aS'_4543203160'
p958
aa(lp959
I1
aI0
aI1
aI1
aI1
aI1
aI0
aI1
aI0
aI0
aI0
aI1
aI0
aI1
aI0
aI1
aI0
aI0
aI199734
aS'_4543203160'
p960
aa(lp961
I0
aI0
aI0
aI1
aI1
aI0
aI0
aI1
aI0
aI0
aI0
aI1
aI0
aI1
aI1
aI0
aI0
aI0
aI6371
aS'_4543203160'
p962
aa(lp963
I0
aI0
aI0
aI1
aI1
aI1
aI0
aI1
aI0
aI0
aI0
aI1
aI0
aI1
aI0
aI1
aI0
aI0
aI6314
aS'_4543203160'
p964
aa(lp965
I0
aI0
aI0
aI1
aI1
aI0
aI0
aI1
aI1
aI0
aI0
aI0
aI0
aI1
aI0
aI1
aI0
aI0
aI5314
aS'_4543203160'
p966
aa(lp967
I1
aI0
aI1
aI1
aI1
aI0
aI0
aI1
aI0
aI1
aI0
aI0
aI0
aI1
aI0
aI1
aI0
aI0
aI65145
aS'_4543203160'
p968
aa(lp969
I0
aI0
aI0
aI1
aI0
aI0
aI1
aI1
aI1
aI0
aI0
aI0
aI0
aI1
aI0
aI1
aI0
aI0
aI5818
aS'_4543203160'
p970
aa(lp971
I1
aI0
aI1
aI1
aI1
aI0
aI0
aI1
aI0
aI0
aI0
aI1
aI0
aI1
aI0
aI1
aI0
aI0
aI200207
aS'_4543203160'
p972
aa(lp973
I0
aI0
aI1
aI0
aI1
aI0
aI0
aI1
aI0
aI0
aI0
aI1
aI0
aI1
aI0
aI1
aI0
aI0
aI6332
aS'_4543203160'
p974
aa(lp975
I1
aI0
aI0
aI1
aI1
aI1
aI0
aI1
aI0
aI0
aI0
aI1
aI0
aI1
aI0
aI1
aI0
aI0
aI199770
aS'_4543203160'
p976
aa(lp977
I0
aI0
aI0
aI1
aI0
aI0
aI1
aI1
aI0
aI0
aI0
aI1
aI0
aI1
aI0
aI1
aI0
aI0
aI6571
aS'_4543203160'
p978
aa(lp979
I0
aI0
aI0
aI0
aI1
aI0
aI0
aI1
aI0
aI1
aI0
aI0
aI0
aI1
aI0
aI1
aI0
aI0
aI4350
aS'_4543203160'
p980
aa(lp981
I0
aI1
aI1
aI0
aI0
aI0
aI0
aI1
aI0
aI0
aI0
aI1
aI0
aI1
aI0
aI1
aI0
aI0
aI12610
aS'_4543203160'
p982
aa(lp983
I1
aI1
aI0
aI1
aI1
aI0
aI0
aI1
aI0
aI0
aI0
aI1
aI0
aI1
aI0
aI1
aI0
aI0
aI212395
aS'_4543203160'
p984
aa(lp985
I1
aI0
aI0
aI0
aI1
aI0
aI0
aI1
aI0
aI0
aI0
aI1
aI0
aI1
aI0
aI1
aI0
aI0
aI200257
aS'_4543203160'
p986
aaaa(lp987
S'_4543203376'
p988
a(lp989
(lp990
I0
aI0
aI1
aI1
aI1
aI1
aI0
aI1
aI0
aI0
aI1
aI0
aI0
aI1
aI0
aI0
aI1
aI0
aI4932
ag988
aa(lp991
I0
aI0
aI1
aI1
aI0
aI1
aI0
aI1
aI0
aI0
aI1
aI0
aI0
aI1
aI0
aI1
aI0
aI0
aI4986
aS'_4543203376'
p992
aa(lp993
I0
aI0
aI1
aI1
aI1
aI1
aI0
aI1
aI0
aI0
aI1
aI0
aI0
aI1
aI0
aI1
aI0
aI0
aI4929
aS'_4543203376'
p994
aa(lp995
I0
aI0
aI1
aI1
aI0
aI1
aI1
aI1
aI1
aI0
aI0
aI0
aI0
aI1
aI0
aI1
aI0
aI0
aI5827
aS'_4543203376'
p996
aa(lp997
I0
aI0
aI1
aI1
aI1
aI0
aI1
aI1
aI0
aI0
aI1
aI0
aI0
aI1
aI0
aI1
aI0
aI0
aI5183
aS'_4543203376'
p998
aa(lp999
I1
aI0
aI1
aI1
aI0
aI1
aI0
aI1
aI0
aI0
aI1
aI0
aI0
aI1
aI0
aI1
aI0
aI0
aI107223
aS'_4543203376'
p1000
aa(lp1001
I0
aI0
aI1
aI1
aI0
aI0
aI0
aI1
aI0
aI0
aI1
aI0
aI0
aI1
aI0
aI1
aI0
aI0
aI4975
aS'_4543203376'
p1002
aa(lp1003
I0
aI0
aI1
aI1
aI1
aI1
aI0
aI1
aI0
aI1
aI0
aI0
aI0
aI1
aI0
aI1
aI0
aI0
aI4449
aS'_4543203376'
p1004
aa(lp1005
I0
aI0
aI1
aI1
aI1
aI1
aI0
aI1
aI1
aI0
aI0
aI0
aI0
aI1
aI0
aI1
aI0
aI0
aI5174
aS'_4543203376'
p1006
aa(lp1007
I0
aI0
aI1
aI1
aI0
aI0
aI0
aI1
aI0
aI1
aI0
aI0
aI0
aI1
aI0
aI1
aI0
aI0
aI4520
aS'_4543203376'
p1008
aa(lp1009
I0
aI0
aI1
aI1
aI0
aI1
aI0
aI1
aI0
aI0
aI0
aI1
aI0
aI1
aI0
aI1
aI0
aI0
aI6275
aS'_4543203376'
p1010
aa(lp1011
I0
aI1
aI1
aI1
aI1
aI1
aI0
aI1
aI0
aI0
aI0
aI1
aI0
aI1
aI0
aI1
aI0
aI0
aI12685
aS'_4543203376'
p1012
aa(lp1013
I0
aI0
aI1
aI1
aI0
aI0
aI0
aI1
aI1
aI0
aI0
aI0
aI0
aI1
aI0
aI1
aI0
aI0
aI5272
aS'_4543203376'
p1014
aa(lp1015
I0
aI0
aI1
aI1
aI1
aI0
aI0
aI1
aI1
aI0
aI0
aI0
aI0
aI1
aI0
aI1
aI0
aI0
aI5247
aS'_4543203376'
p1016
aa(lp1017
I0
aI1
aI1
aI1
aI0
aI1
aI0
aI1
aI0
aI0
aI0
aI1
aI0
aI1
aI0
aI1
aI0
aI0
aI12498
aS'_4543203376'
p1018
aa(lp1019
I0
aI0
aI0
aI0
aI0
aI0
aI0
aI1
aI0
aI0
aI1
aI0
aI0
aI1
aI0
aI1
aI0
aI0
aI4855
aS'_4543203376'
p1020
aaaa(lp1021
S'_4578948520'
p1022
a(lp1023
(lp1024
I0
aI1
aI0
aI1
aI0
aI1
aI0
aI1
aI0
aI0
aI1
aI0
aI0
aI1
aI1
aI0
aI0
aI0
aI7428
ag1022
aa(lp1025
I0
aI1
aI0
aI1
aI0
aI1
aI1
aI1
aI0
aI0
aI1
aI0
aI0
aI1
aI1
aI0
aI0
aI0
aI7548
aS'_4578948520'
p1026
aa(lp1027
I0
aI0
aI0
aI0
aI0
aI1
aI0
aI1
aI0
aI0
aI1
aI0
aI0
aI1
aI0
aI0
aI0
aI1
aI5022
aS'_4578948520'
p1028
aa(lp1029
I1
aI1
aI0
aI0
aI0
aI1
aI0
aI1
aI0
aI0
aI1
aI0
aI0
aI1
aI1
aI0
aI0
aI0
aI108896
aS'_4578948520'
p1030
aa(lp1031
I1
aI0
aI0
aI0
aI0
aI1
aI0
aI1
aI0
aI0
aI1
aI0
aI0
aI1
aI0
aI0
aI0
aI1
aI107314
aS'_4578948520'
p1032
aa(lp1033
I1
aI0
aI0
aI0
aI0
aI1
aI0
aI1
aI0
aI1
aI0
aI0
aI0
aI1
aI1
aI0
aI0
aI0
aI65229
aS'_4578948520'
p1034
aa(lp1035
I1
aI0
aI1
aI1
aI0
aI1
aI0
aI1
aI0
aI0
aI1
aI0
aI0
aI1
aI0
aI0
aI0
aI1
aI107241
aS'_4578948520'
p1036
aa(lp1037
I1
aI0
aI1
aI0
aI1
aI1
aI0
aI1
aI0
aI0
aI1
aI0
aI0
aI1
aI1
aI0
aI0
aI0
aI107344
aS'_4578948520'
p1038
aa(lp1039
I0
aI0
aI1
aI0
aI0
aI1
aI0
aI1
aI0
aI0
aI0
aI0
aI1
aI1
aI1
aI0
aI0
aI0
aI9325
aS'_4578948520'
p1040
aa(lp1041
I0
aI0
aI0
aI0
aI0
aI1
aI0
aI1
aI0
aI0
aI1
aI0
aI0
aI1
aI0
aI0
aI1
aI0
aI5006
aS'_4578948520'
p1042
aa(lp1043
I0
aI0
aI0
aI0
aI0
aI0
aI0
aI1
aI0
aI0
aI1
aI0
aI0
aI1
aI0
aI0
aI0
aI1
aI4785
aS'_4578948520'
p1044
aa(lp1045
I0
aI1
aI0
aI0
aI0
aI1
aI0
aI1
aI1
aI0
aI0
aI0
aI0
aI1
aI1
aI0
aI0
aI0
aI3605
aS'_4578948520'
p1046
aa(lp1047
I0
aI1
aI1
aI0
aI0
aI1
aI1
aI1
aI0
aI0
aI1
aI0
aI0
aI1
aI1
aI0
aI0
aI0
aI7652
aS'_4578948520'
p1048
aa(lp1049
I0
aI1
aI0
aI0
aI0
aI0
aI1
aI1
aI0
aI0
aI1
aI0
aI0
aI1
aI1
aI0
aI0
aI0
aI7730
aS'_4578948520'
p1050
aa(lp1051
I1
aI0
aI0
aI0
aI1
aI0
aI0
aI1
aI0
aI0
aI0
aI0
aI1
aI1
aI1
aI0
aI0
aI0
aI377689
aS'_4578948520'
p1052
aa(lp1053
I1
aI0
aI1
aI0
aI1
aI1
aI0
aI1
aI0
aI0
aI1
aI0
aI0
aI1
aI0
aI0
aI0
aI1
aI107377
aS'_4578948520'
p1054
aaaa(lp1055
S'_4578949816'
p1056
a(lp1057
(lp1058
I0
aI1
aI1
aI1
aI0
aI1
aI1
aI1
aI0
aI0
aI0
aI1
aI0
aI1
aI1
aI0
aI0
aI0
aI12566
ag1056
aa(lp1059
I0
aI0
aI1
aI0
aI0
aI1
aI1
aI1
aI0
aI0
aI0
aI1
aI0
aI1
aI0
aI1
aI0
aI0
aI6432
aS'_4578949816'
p1060
aa(lp1061
I1
aI0
aI1
aI0
aI0
aI1
aI1
aI1
aI0
aI0
aI0
aI1
aI0
aI1
aI1
aI0
aI0
aI0
aI199482
aS'_4578949816'
p1062
aa(lp1063
I0
aI0
aI1
aI1
aI0
aI1
aI0
aI1
aI0
aI0
aI0
aI1
aI0
aI1
aI1
aI0
aI0
aI0
aI6268
aS'_4578949816'
p1064
aa(lp1065
I0
aI0
aI1
aI1
aI1
aI1
aI1
aI1
aI0
aI0
aI0
aI0
aI1
aI1
aI1
aI0
aI0
aI0
aI9252
aS'_4578949816'
p1066
aa(lp1067
I0
aI1
aI1
aI0
aI0
aI1
aI1
aI1
aI0
aI1
aI0
aI0
aI0
aI1
aI0
aI0
aI1
aI0
aI5357
aS'_4578949816'
p1068
aa(lp1069
I1
aI0
aI0
aI1
aI0
aI1
aI1
aI1
aI0
aI0
aI0
aI1
aI0
aI1
aI1
aI0
aI0
aI0
aI199315
aS'_4578949816'
p1070
aa(lp1071
I0
aI0
aI1
aI0
aI0
aI0
aI1
aI1
aI0
aI1
aI0
aI0
aI0
aI1
aI0
aI0
aI1
aI0
aI4617
aS'_4578949816'
p1072
aa(lp1073
I1
aI0
aI1
aI0
aI0
aI1
aI1
aI1
aI0
aI0
aI0
aI0
aI1
aI1
aI0
aI1
aI0
aI0
aI376032
aS'_4578949816'
p1074
aa(lp1075
I1
aI0
aI1
aI0
aI0
aI1
aI0
aI1
aI0
aI0
aI0
aI1
aI0
aI1
aI0
aI1
aI0
aI0
aI200014
aS'_4578949816'
p1076
aa(lp1077
I1
aI0
aI1
aI0
aI0
aI0
aI1
aI1
aI0
aI0
aI0
aI1
aI0
aI1
aI0
aI0
aI1
aI0
aI199914
aS'_4578949816'
p1078
aa(lp1079
I1
aI0
aI1
aI0
aI1
aI1
aI1
aI1
aI0
aI1
aI0
aI0
aI0
aI1
aI1
aI0
aI0
aI0
aI65501
aS'_4578949816'
p1080
aa(lp1081
I1
aI0
aI0
aI0
aI0
aI1
aI1
aI1
aI0
aI0
aI0
aI0
aI1
aI1
aI1
aI0
aI0
aI0
aI376923
aS'_4578949816'
p1082
aa(lp1083
I1
aI0
aI0
aI0
aI0
aI1
aI1
aI1
aI0
aI1
aI0
aI0
aI0
aI1
aI1
aI0
aI0
aI0
aI65140
aS'_4578949816'
p1084
aa(lp1085
I0
aI0
aI0
aI1
aI0
aI1
aI1
aI1
aI1
aI0
aI0
aI0
aI0
aI1
aI0
aI1
aI0
aI0
aI5742
aS'_4578949816'
p1086
aa(lp1087
I1
aI0
aI1
aI0
aI1
aI1
aI1
aI1
aI1
aI0
aI0
aI0
aI0
aI1
aI1
aI0
aI0
aI0
aI32978
aS'_4578949816'
p1088
aaaa.