(lp0
(lp1
S'_4504638960'
p2
a(lp3
(lp4
I1
aI0
aI1
aI0
aI0
aI1
aI1
aI1
aI1
aI0
aI1
aI2350733
ag2
aa(lp5
I1
aI0
aI1
aI0
aI0
aI0
aI1
aI1
aI0
aI0
aI0
aI2204233
aS'_4504638960'
p6
aa(lp7
I1
aI1
aI1
aI0
aI0
aI1
aI1
aI0
aI0
aI0
aI1
aI2550133
aS'_4504638960'
p8
aa(lp9
I1
aI0
aI1
aI0
aI1
aI1
aI1
aI0
aI0
aI0
aI1
aI2364333
aS'_4504638960'
p10
aa(lp11
I1
aI0
aI1
aI0
aI0
aI1
aI1
aI0
aI0
aI1
aI1
aI2348733
aS'_4504638960'
p12
aa(lp13
I1
aI1
aI1
aI0
aI0
aI0
aI0
aI0
aI0
aI0
aI1
aI2382300
aS'_4504638960'
p14
aa(lp15
I1
aI1
aI1
aI0
aI0
aI1
aI1
aI0
aI0
aI0
aI0
aI2464800
aS'_4504638960'
p16
aa(lp17
I1
aI1
aI1
aI0
aI1
aI1
aI1
aI1
aI0
aI0
aI1
aI2528733
aS'_4504638960'
p18
aa(lp19
I1
aI1
aI1
aI0
aI0
aI1
aI1
aI1
aI0
aI1
aI1
aI2494600
aS'_4504638960'
p20
aa(lp21
I1
aI0
aI1
aI0
aI1
aI0
aI1
aI1
aI0
aI0
aI1
aI2374100
aS'_4504638960'
p22
aa(lp23
I1
aI0
aI1
aI0
aI0
aI0
aI1
aI1
aI0
aI1
aI1
aI2326500
aS'_4504638960'
p24
aa(lp25
I1
aI0
aI1
aI0
aI0
aI0
aI1
aI1
aI1
aI1
aI1
aI2363600
aS'_4504638960'
p26
aa(lp27
I1
aI1
aI1
aI0
aI0
aI0
aI1
aI1
aI0
aI0
aI0
aI2427866
aS'_4504638960'
p28
aa(lp29
I1
aI1
aI1
aI0
aI1
aI0
aI1
aI1
aI0
aI0
aI1
aI2513233
aS'_4504638960'
p30
aa(lp31
I1
aI1
aI1
aI0
aI0
aI0
aI1
aI1
aI0
aI1
aI1
aI2483400
aS'_4504638960'
p32
aa(lp33
I1
aI1
aI1
aI0
aI1
aI0
aI1
aI1
aI0
aI1
aI1
aI2494100
aS'_4504638960'
p34
aaaa(lp35
S'_4526406472'
p36
a(lp37
(lp38
I1
aI0
aI1
aI1
aI1
aI0
aI1
aI0
aI1
aI1
aI0
aI2301400
ag36
aa(lp39
I1
aI0
aI1
aI1
aI1
aI0
aI1
aI0
aI0
aI1
aI0
aI2305733
aS'_4526406472'
p40
aa(lp41
I1
aI1
aI0
aI1
aI1
aI0
aI0
aI1
aI1
aI1
aI0
aI2368400
aS'_4526406472'
p42
aa(lp43
I1
aI1
aI0
aI1
aI1
aI0
aI0
aI0
aI1
aI1
aI1
aI2473733
aS'_4526406472'
p44
aa(lp45
I1
aI0
aI1
aI1
aI0
aI0
aI0
aI0
aI1
aI0
aI1
aI2474666
aS'_4526406472'
p46
aa(lp47
I1
aI1
aI1
aI1
aI1
aI0
aI0
aI1
aI1
aI0
aI0
aI2541300
aS'_4526406472'
p48
aa(lp49
I1
aI0
aI0
aI1
aI1
aI0
aI0
aI0
aI1
aI1
aI1
aI2618366
aS'_4526406472'
p50
aa(lp51
I1
aI1
aI1
aI1
aI1
aI0
aI1
aI1
aI1
aI0
aI0
aI2504933
aS'_4526406472'
p52
aa(lp53
I1
aI0
aI1
aI0
aI1
aI0
aI1
aI0
aI1
aI1
aI1
aI2353733
aS'_4526406472'
p54
aa(lp55
I1
aI0
aI1
aI1
aI1
aI0
aI1
aI0
aI1
aI0
aI1
aI2493000
aS'_4526406472'
p56
aa(lp57
I1
aI0
aI0
aI1
aI1
aI0
aI1
aI1
aI1
aI1
aI0
aI2157400
aS'_4526406472'
p58
aa(lp59
I1
aI0
aI0
aI1
aI1
aI0
aI1
aI0
aI1
aI0
aI1
aI2577133
aS'_4526406472'
p60
aa(lp61
I1
aI0
aI1
aI0
aI1
aI0
aI1
aI0
aI1
aI0
aI1
aI2344666
aS'_4526406472'
p62
aa(lp63
I1
aI0
aI1
aI0
aI1
aI0
aI1
aI1
aI1
aI1
aI1
aI2372266
aS'_4526406472'
p64
aa(lp65
I1
aI0
aI0
aI1
aI1
aI0
aI0
aI1
aI1
aI1
aI1
aI2656500
aS'_4526406472'
p66
aa(lp67
I1
aI0
aI1
aI1
aI1
aI0
aI0
aI1
aI1
aI0
aI1
aI2460066
aS'_4526406472'
p68
aaaa(lp69
S'_4504638456'
p70
a(lp71
(lp72
I1
aI0
aI1
aI1
aI1
aI0
aI1
aI0
aI0
aI1
aI1
aI2476733
ag70
aa(lp73
I1
aI1
aI0
aI1
aI1
aI0
aI1
aI0
aI0
aI1
aI1
aI2496800
aS'_4504638456'
p74
aa(lp75
I1
aI1
aI1
aI1
aI1
aI0
aI1
aI1
aI0
aI1
aI1
aI2613633
aS'_4504638456'
p76
aa(lp77
I1
aI1
aI1
aI1
aI1
aI0
aI1
aI0
aI1
aI1
aI1
aI2684100
aS'_4504638456'
p78
aa(lp79
I1
aI1
aI1
aI1
aI1
aI1
aI1
aI0
aI0
aI1
aI1
aI2647433
aS'_4504638456'
p80
aa(lp81
I1
aI1
aI1
aI1
aI0
aI0
aI1
aI0
aI0
aI1
aI1
aI2610899
aS'_4504638456'
p82
aa(lp83
I1
aI1
aI1
aI1
aI1
aI0
aI1
aI1
aI0
aI1
aI0
aI2492800
aS'_4504638456'
p84
aa(lp85
I1
aI1
aI1
aI0
aI1
aI0
aI1
aI0
aI0
aI1
aI0
aI2420866
aS'_4504638456'
p86
aa(lp87
I1
aI1
aI1
aI1
aI0
aI0
aI1
aI1
aI0
aI1
aI1
aI2601733
aS'_4504638456'
p88
aa(lp89
I1
aI1
aI1
aI1
aI0
aI0
aI1
aI0
aI0
aI0
aI1
aI2678466
aS'_4504638456'
p90
aa(lp91
I1
aI1
aI1
aI0
aI0
aI0
aI1
aI0
aI0
aI1
aI1
aI2476866
aS'_4504638456'
p92
aa(lp93
I1
aI1
aI1
aI1
aI0
aI0
aI0
aI1
aI0
aI1
aI1
aI2614366
aS'_4504638456'
p94
aa(lp95
I1
aI1
aI0
aI0
aI1
aI0
aI1
aI1
aI0
aI1
aI1
aI2331200
aS'_4504638456'
p96
aa(lp97
I1
aI1
aI0
aI1
aI1
aI1
aI1
aI0
aI1
aI1
aI1
aI2554233
aS'_4504638456'
p98
aa(lp99
I1
aI1
aI1
aI1
aI1
aI0
aI0
aI1
aI1
aI1
aI0
aI2525133
aS'_4504638456'
p100
aa(lp101
I1
aI1
aI1
aI0
aI0
aI0
aI0
aI0
aI1
aI1
aI1
aI2486900
aS'_4504638456'
p102
aaaa(lp103
S'_4504638240'
p104
a(lp105
(lp106
I1
aI1
aI1
aI1
aI0
aI1
aI0
aI0
aI0
aI1
aI1
aI2604966
ag104
aa(lp107
I1
aI1
aI0
aI0
aI0
aI0
aI1
aI0
aI0
aI1
aI1
aI2304666
aS'_4504638240'
p108
aa(lp109
I1
aI1
aI1
aI1
aI0
aI1
aI0
aI0
aI1
aI0
aI1
aI2644700
aS'_4504638240'
p110
aa(lp111
I1
aI1
aI0
aI1
aI0
aI1
aI1
aI0
aI0
aI1
aI1
aI2504433
aS'_4504638240'
p112
aa(lp113
I1
aI1
aI1
aI0
aI0
aI0
aI0
aI0
aI0
aI1
aI1
aI2460033
aS'_4504638240'
p114
aa(lp115
I1
aI1
aI0
aI0
aI0
aI1
aI1
aI0
aI0
aI1
aI0
aI2271833
aS'_4504638240'
p116
aa(lp117
I1
aI1
aI0
aI1
aI1
aI0
aI0
aI1
aI0
aI1
aI1
aI2448466
aS'_4504638240'
p118
aa(lp119
I1
aI1
aI0
aI1
aI0
aI0
aI0
aI0
aI1
aI1
aI1
aI2463900
aS'_4504638240'
p120
aa(lp121
I1
aI1
aI0
aI0
aI0
aI1
aI1
aI0
aI0
aI1
aI1
aI2357000
aS'_4504638240'
p122
aa(lp123
I1
aI1
aI0
aI0
aI0
aI1
aI0
aI0
aI0
aI1
aI0
aI2222366
aS'_4504638240'
p124
aa(lp125
I1
aI1
aI0
aI1
aI1
aI1
aI0
aI0
aI0
aI1
aI1
aI2469433
aS'_4504638240'
p126
aa(lp127
I1
aI1
aI0
aI0
aI0
aI0
aI0
aI1
aI0
aI1
aI1
aI2333266
aS'_4504638240'
p128
aa(lp129
I1
aI1
aI0
aI0
aI1
aI1
aI1
aI0
aI0
aI1
aI1
aI2340533
aS'_4504638240'
p130
aa(lp131
I1
aI1
aI0
aI0
aI0
aI1
aI0
aI1
aI0
aI1
aI0
aI2232133
aS'_4504638240'
p132
aa(lp133
I1
aI1
aI0
aI0
aI0
aI1
aI0
aI0
aI0
aI1
aI1
aI2312166
aS'_4504638240'
p134
aa(lp135
I1
aI1
aI0
aI0
aI0
aI1
aI0
aI0
aI1
aI1
aI1
aI2340066
aS'_4504638240'
p136
aaaa(lp137
S'_4526532080'
p138
a(lp139
(lp140
I1
aI0
aI1
aI0
aI0
aI1
aI1
aI0
aI1
aI0
aI1
aI2330000
ag138
aa(lp141
I1
aI0
aI1
aI0
aI0
aI0
aI1
aI0
aI1
aI1
aI1
aI2360600
aS'_4526532080'
p142
aa(lp143
I1
aI0
aI0
aI0
aI1
aI1
aI1
aI0
aI1
aI0
aI1
aI2160633
aS'_4526532080'
p144
aa(lp145
I1
aI1
aI1
aI0
aI0
aI1
aI0
aI0
aI1
aI0
aI1
aI2519333
aS'_4526532080'
p146
aa(lp147
I1
aI1
aI1
aI0
aI1
aI1
aI1
aI1
aI1
aI0
aI0
aI2434433
aS'_4526532080'
p148
aa(lp149
I1
aI0
aI1
aI0
aI1
aI1
aI1
aI0
aI0
aI0
aI0
aI2326600
aS'_4526532080'
p150
aa(lp151
I1
aI1
aI0
aI0
aI0
aI1
aI0
aI0
aI0
aI0
aI1
aI2387533
aS'_4526532080'
p152
aa(lp153
I1
aI1
aI0
aI0
aI1
aI1
aI0
aI0
aI1
aI0
aI1
aI2366400
aS'_4526532080'
p154
aa(lp155
I1
aI0
aI0
aI0
aI1
aI0
aI1
aI0
aI1
aI1
aI1
aI2180200
aS'_4526532080'
p156
aa(lp157
I1
aI1
aI1
aI0
aI1
aI1
aI1
aI0
aI1
aI1
aI0
aI2461600
aS'_4526532080'
p158
aa(lp159
I1
aI1
aI1
aI0
aI0
aI0
aI1
aI0
aI1
aI1
aI0
aI2419700
aS'_4526532080'
p160
aa(lp161
I1
aI1
aI0
aI1
aI1
aI1
aI1
aI0
aI1
aI0
aI1
aI2496166
aS'_4526532080'
p162
aa(lp163
I1
aI1
aI1
aI0
aI1
aI1
aI0
aI0
aI1
aI1
aI1
aI2513633
aS'_4526532080'
p164
aa(lp165
I1
aI0
aI0
aI0
aI1
aI1
aI1
aI0
aI0
aI1
aI1
aI2190766
aS'_4526532080'
p166
aa(lp167
I1
aI1
aI1
aI0
aI1
aI1
aI0
aI0
aI1
aI0
aI0
aI2439633
aS'_4526532080'
p168
aa(lp169
I1
aI1
aI1
aI0
aI1
aI0
aI1
aI0
aI1
aI1
aI0
aI2445933
aS'_4526532080'
p170
aaaa(lp171
S'_4526407192'
p172
a(lp173
(lp174
I1
aI0
aI1
aI0
aI1
aI1
aI0
aI0
aI1
aI0
aI0
aI2203700
ag172
aa(lp175
I1
aI0
aI1
aI1
aI1
aI0
aI0
aI0
aI0
aI0
aI1
aI2695166
aS'_4526407192'
p176
aa(lp177
I1
aI1
aI1
aI1
aI1
aI1
aI0
aI0
aI1
aI0
aI0
aI2536533
aS'_4526407192'
p178
aa(lp179
I1
aI0
aI0
aI0
aI0
aI0
aI0
aI0
aI0
aI0
aI1
aI2588266
aS'_4526407192'
p180
aa(lp181
I1
aI1
aI0
aI1
aI0
aI0
aI0
aI0
aI0
aI0
aI1
aI2403466
aS'_4526407192'
p182
aa(lp183
I1
aI0
aI1
aI1
aI0
aI0
aI0
aI0
aI0
aI1
aI0
aI2244900
aS'_4526407192'
p184
aa(lp185
I1
aI0
aI1
aI1
aI1
aI0
aI1
aI0
aI0
aI0
aI1
aI2505966
aS'_4526407192'
p186
aa(lp187
I1
aI1
aI0
aI1
aI1
aI1
aI0
aI0
aI0
aI0
aI1
aI2394966
aS'_4526407192'
p188
aa(lp189
I1
aI0
aI0
aI0
aI1
aI1
aI0
aI0
aI1
aI0
aI1
aI2162966
aS'_4526407192'
p190
aa(lp191
I1
aI0
aI0
aI1
aI0
aI0
aI0
aI0
aI0
aI0
aI1
aI2208666
aS'_4526407192'
p192
aa(lp193
I1
aI1
aI0
aI1
aI1
aI1
aI0
aI0
aI1
aI0
aI1
aI2510333
aS'_4526407192'
p194
aa(lp195
I1
aI0
aI0
aI0
aI0
aI0
aI0
aI0
aI1
aI0
aI1
aI2132666
aS'_4526407192'
p196
aa(lp197
I1
aI0
aI1
aI1
aI0
aI1
aI0
aI0
aI0
aI0
aI0
aI2305366
aS'_4526407192'
p198
aa(lp199
I1
aI0
aI1
aI1
aI1
aI1
aI0
aI0
aI1
aI0
aI1
aI2497400
aS'_4526407192'
p200
aa(lp201
I1
aI0
aI0
aI1
aI0
aI1
aI0
aI0
aI0
aI0
aI1
aI2661900
aS'_4526407192'
p202
aa(lp203
I1
aI0
aI0
aI1
aI0
aI1
aI0
aI0
aI1
aI0
aI1
aI2581600
aS'_4526407192'
p204
aaaa(lp205
S'_4504639608'
p206
a(lp207
(lp208
I1
aI1
aI1
aI1
aI0
aI1
aI1
aI1
aI1
aI1
aI1
aI2684166
ag206
aa(lp209
I1
aI1
aI1
aI0
aI0
aI0
aI1
aI1
aI1
aI0
aI1
aI2500500
aS'_4504639608'
p210
aa(lp211
I1
aI1
aI0
aI1
aI0
aI0
aI1
aI1
aI1
aI0
aI1
aI2525200
aS'_4504639608'
p212
aa(lp213
I1
aI1
aI1
aI1
aI1
aI1
aI1
aI1
aI1
aI0
aI0
aI2405433
aS'_4504639608'
p214
aa(lp215
I1
aI1
aI1
aI1
aI0
aI1
aI1
aI1
aI1
aI0
aI0
aI2510000
aS'_4504639608'
p216
aa(lp217
I1
aI1
aI1
aI0
aI0
aI0
aI1
aI1
aI1
aI0
aI0
aI2410166
aS'_4504639608'
p218
aa(lp219
I1
aI1
aI0
aI1
aI0
aI1
aI1
aI1
aI1
aI1
aI1
aI2545900
aS'_4504639608'
p220
aa(lp221
I1
aI1
aI0
aI1
aI0
aI0
aI1
aI1
aI1
aI0
aI0
aI2359700
aS'_4504639608'
p222
aa(lp223
I1
aI1
aI0
aI0
aI0
aI1
aI1
aI0
aI1
aI0
aI1
aI2331166
aS'_4504639608'
p224
aa(lp225
I1
aI1
aI0
aI1
aI1
aI1
aI1
aI1
aI1
aI0
aI1
aI2373466
aS'_4504639608'
p226
aa(lp227
I1
aI1
aI0
aI1
aI1
aI1
aI1
aI1
aI1
aI1
aI1
aI2412266
aS'_4504639608'
p228
aa(lp229
I1
aI1
aI0
aI1
aI0
aI0
aI1
aI1
aI1
aI1
aI0
aI2409933
aS'_4504639608'
p230
aa(lp231
I1
aI1
aI0
aI1
aI0
aI1
aI1
aI1
aI1
aI0
aI1
aI2500400
aS'_4504639608'
p232
aa(lp233
I1
aI1
aI0
aI0
aI0
aI0
aI1
aI1
aI1
aI1
aI0
aI2297900
aS'_4504639608'
p234
aa(lp235
I1
aI1
aI0
aI0
aI0
aI1
aI1
aI1
aI1
aI1
aI1
aI2388233
aS'_4504639608'
p236
aa(lp237
I1
aI1
aI0
aI0
aI0
aI1
aI1
aI1
aI1
aI0
aI0
aI2265800
aS'_4504639608'
p238
aaaa(lp239
S'_4504641480'
p240
a(lp241
(lp242
I1
aI0
aI1
aI1
aI0
aI1
aI1
aI1
aI0
aI1
aI0
aI2288566
ag240
aa(lp243
I1
aI0
aI0
aI0
aI0
aI1
aI1
aI1
aI0
aI1
aI0
aI2031900
aS'_4504641480'
p244
aa(lp245
I1
aI1
aI1
aI1
aI0
aI1
aI1
aI1
aI1
aI1
aI0
aI2561833
aS'_4504641480'
p246
aa(lp247
I1
aI0
aI1
aI1
aI0
aI1
aI1
aI0
aI0
aI0
aI0
aI2313900
aS'_4504641480'
p248
aa(lp249
I1
aI1
aI0
aI1
aI0
aI0
aI1
aI1
aI0
aI1
aI0
aI2334333
aS'_4504641480'
p250
aa(lp251
I1
aI1
aI0
aI1
aI0
aI0
aI0
aI1
aI1
aI1
aI0
aI2359200
aS'_4504641480'
p252
aa(lp253
I1
aI1
aI0
aI1
aI0
aI0
aI1
aI0
aI1
aI1
aI0
aI2374433
aS'_4504641480'
p254
aa(lp255
I1
aI1
aI0
aI1
aI0
aI1
aI1
aI1
aI0
aI1
aI0
aI2355333
aS'_4504641480'
p256
aa(lp257
I1
aI0
aI0
aI1
aI0
aI1
aI1
aI0
aI0
aI1
aI0
aI2124433
aS'_4504641480'
p258
aa(lp259
I1
aI1
aI0
aI1
aI0
aI1
aI1
aI0
aI0
aI0
aI0
aI2402333
aS'_4504641480'
p260
aa(lp261
I1
aI0
aI0
aI1
aI0
aI1
aI0
aI0
aI0
aI1
aI0
aI2095833
aS'_4504641480'
p262
aa(lp263
I1
aI1
aI0
aI1
aI0
aI1
aI1
aI0
aI0
aI1
aI0
aI2378666
aS'_4504641480'
p264
aa(lp265
I1
aI1
aI0
aI1
aI1
aI1
aI1
aI1
aI0
aI1
aI0
aI2368933
aS'_4504641480'
p266
aa(lp267
I1
aI1
aI0
aI1
aI0
aI1
aI0
aI0
aI0
aI1
aI0
aI2323300
aS'_4504641480'
p268
aa(lp269
I1
aI1
aI0
aI1
aI1
aI1
aI1
aI0
aI0
aI1
aI0
aI2362266
aS'_4504641480'
p270
aa(lp271
I1
aI1
aI0
aI1
aI1
aI1
aI0
aI0
aI0
aI1
aI0
aI2337433
aS'_4504641480'
p272
aaaa(lp273
S'_4504639320'
p274
a(lp275
(lp276
I1
aI1
aI1
aI0
aI1
aI0
aI1
aI1
aI1
aI1
aI1
aI2544233
ag274
aa(lp277
I1
aI1
aI1
aI1
aI0
aI0
aI1
aI1
aI0
aI1
aI0
aI2477166
aS'_4504639320'
p278
aa(lp279
I1
aI1
aI1
aI0
aI0
aI0
aI1
aI0
aI0
aI1
aI0
aI2377500
aS'_4504639320'
p280
aa(lp281
I1
aI1
aI1
aI0
aI1
aI0
aI1
aI1
aI0
aI1
aI0
aI2404066
aS'_4504639320'
p282
aa(lp283
I1
aI1
aI1
aI1
aI1
aI1
aI1
aI0
aI1
aI0
aI1
aI2635866
aS'_4504639320'
p284
aa(lp285
I1
aI1
aI1
aI0
aI1
aI1
aI1
aI0
aI1
aI1
aI1
aI2544200
aS'_4504639320'
p286
aa(lp287
I1
aI1
aI1
aI1
aI0
aI1
aI1
aI0
aI1
aI1
aI1
aI2687966
aS'_4504639320'
p288
aa(lp289
I1
aI1
aI1
aI0
aI0
aI0
aI1
aI0
aI1
aI1
aI1
aI2508666
aS'_4504639320'
p290
aa(lp291
I1
aI1
aI1
aI1
aI1
aI0
aI1
aI1
aI1
aI1
aI0
aI2553633
aS'_4504639320'
p292
aa(lp293
I1
aI1
aI1
aI0
aI0
aI1
aI1
aI0
aI1
aI1
aI1
aI2511633
aS'_4504639320'
p294
aa(lp295
I1
aI1
aI1
aI0
aI0
aI0
aI0
aI1
aI1
aI1
aI1
aI2502400
aS'_4504639320'
p296
aa(lp297
I1
aI1
aI1
aI0
aI0
aI0
aI1
aI1
aI0
aI1
aI0
aI2392733
aS'_4504639320'
p298
aa(lp299
I1
aI1
aI0
aI0
aI0
aI1
aI1
aI0
aI1
aI1
aI1
aI2375066
aS'_4504639320'
p300
aa(lp301
I1
aI1
aI1
aI0
aI0
aI0
aI0
aI1
aI1
aI1
aI0
aI2417000
aS'_4504639320'
p302
aa(lp303
I1
aI1
aI0
aI0
aI0
aI1
aI1
aI1
aI1
aI1
aI0
aI2306533
aS'_4504639320'
p304
aa(lp305
I1
aI1
aI1
aI0
aI0
aI1
aI1
aI1
aI1
aI0
aI0
aI2455966
aS'_4504639320'
p306
aaaa(lp307
S'_4526531864'
p308
a(lp309
(lp310
I1
aI0
aI0
aI0
aI1
aI1
aI1
aI1
aI1
aI0
aI0
aI2057066
ag308
aa(lp311
I1
aI1
aI0
aI1
aI1
aI0
aI1
aI0
aI1
aI0
aI0
aI2397900
aS'_4526531864'
p312
aa(lp313
I1
aI1
aI0
aI0
aI0
aI1
aI1
aI0
aI1
aI1
aI0
aI2292433
aS'_4526531864'
p314
aa(lp315
I1
aI0
aI0
aI0
aI0
aI1
aI1
aI0
aI1
aI0
aI1
aI2151900
aS'_4526531864'
p316
aa(lp317
I1
aI1
aI1
aI0
aI0
aI0
aI1
aI0
aI1
aI0
aI0
aI2433666
aS'_4526531864'
p318
aa(lp319
I1
aI0
aI1
aI0
aI0
aI0
aI1
aI0
aI1
aI0
aI0
aI2211666
aS'_4526531864'
p320
aa(lp321
I1
aI1
aI0
aI0
aI0
aI0
aI0
aI1
aI1
aI0
aI0
aI2213333
aS'_4526531864'
p322
aa(lp323
I1
aI1
aI1
aI1
aI0
aI0
aI1
aI0
aI1
aI0
aI0
aI2536366
aS'_4526531864'
p324
aa(lp325
I1
aI0
aI0
aI1
aI0
aI1
aI0
aI0
aI1
aI0
aI0
aI2117433
aS'_4526531864'
p326
aa(lp327
I1
aI0
aI0
aI0
aI0
aI1
aI1
aI1
aI1
aI0
aI1
aI2176533
aS'_4526531864'
p328
aa(lp329
I1
aI0
aI0
aI0
aI0
aI1
aI0
aI1
aI1
aI0
aI0
aI2049633
aS'_4526531864'
p330
aa(lp331
I1
aI0
aI0
aI1
aI0
aI1
aI1
aI0
aI1
aI0
aI0
aI2143800
aS'_4526531864'
p332
aa(lp333
I1
aI1
aI0
aI1
aI0
aI0
aI1
aI0
aI1
aI0
aI0
aI2382533
aS'_4526531864'
p334
aa(lp335
I1
aI0
aI0
aI1
aI0
aI0
aI1
aI0
aI1
aI0
aI0
aI2129400
aS'_4526531864'
p336
aa(lp337
I1
aI0
aI0
aI1
aI0
aI0
aI1
aI0
aI1
aI1
aI1
aI2653800
aS'_4526531864'
p338
aa(lp339
I1
aI0
aI0
aI1
aI0
aI0
aI1
aI1
aI1
aI1
aI0
aI2158833
aS'_4526531864'
p340
aaaa(lp341
S'_4504639680'
p342
a(lp343
(lp344
I1
aI0
aI1
aI1
aI0
aI0
aI1
aI0
aI0
aI0
aI0
aI2321166
ag342
aa(lp345
I1
aI0
aI1
aI1
aI0
aI0
aI1
aI0
aI0
aI0
aI1
aI2501633
aS'_4504639680'
p346
aa(lp347
I1
aI1
aI1
aI1
aI0
aI0
aI1
aI0
aI0
aI0
aI0
aI2554733
aS'_4504639680'
p348
aa(lp349
I1
aI0
aI1
aI1
aI0
aI0
aI0
aI1
aI0
aI1
aI0
aI2286466
aS'_4504639680'
p350
aa(lp351
I1
aI1
aI1
aI1
aI0
aI0
aI1
aI0
aI0
aI1
aI0
aI2470766
aS'_4504639680'
p352
aa(lp353
I1
aI1
aI1
aI1
aI0
aI1
aI1
aI0
aI0
aI1
aI0
aI2515166
aS'_4504639680'
p354
aa(lp355
I1
aI0
aI1
aI0
aI0
aI1
aI1
aI0
aI0
aI1
aI0
aI2221866
aS'_4504639680'
p356
aa(lp357
I1
aI1
aI0
aI1
aI0
aI0
aI1
aI0
aI0
aI0
aI1
aI2539833
aS'_4504639680'
p358
aa(lp359
I1
aI1
aI0
aI1
aI0
aI0
aI1
aI0
aI0
aI1
aI0
aI2328600
aS'_4504639680'
p360
aa(lp361
I1
aI1
aI1
aI1
aI0
aI0
aI0
aI1
aI0
aI1
aI0
aI2489700
aS'_4504639680'
p362
aa(lp363
I1
aI1
aI1
aI1
aI0
aI0
aI0
aI1
aI1
aI1
aI0
aI2506200
aS'_4504639680'
p364
aa(lp365
I1
aI1
aI1
aI1
aI0
aI1
aI1
aI1
aI0
aI1
aI1
aI2616766
aS'_4504639680'
p366
aa(lp367
I1
aI1
aI1
aI1
aI0
aI0
aI0
aI0
aI1
aI1
aI0
aI2475033
aS'_4504639680'
p368
aa(lp369
I1
aI1
aI0
aI1
aI0
aI1
aI1
aI0
aI0
aI0
aI1
aI2533933
aS'_4504639680'
p370
aa(lp371
I1
aI1
aI0
aI0
aI0
aI1
aI1
aI0
aI0
aI0
aI1
aI2378900
aS'_4504639680'
p372
aa(lp373
I1
aI1
aI0
aI1
aI0
aI0
aI0
aI0
aI0
aI1
aI1
aI2439333
aS'_4504639680'
p374
aaaa(lp375
S'_4504637664'
p376
a(lp377
(lp378
I1
aI0
aI0
aI1
aI0
aI1
aI0
aI0
aI0
aI1
aI1
aI2560600
ag376
aa(lp379
I1
aI0
aI1
aI1
aI1
aI1
aI0
aI0
aI0
aI1
aI0
aI2267466
aS'_4504637664'
p380
aa(lp381
I1
aI0
aI1
aI1
aI0
aI1
aI0
aI1
aI0
aI1
aI0
aI2265700
aS'_4504637664'
p382
aa(lp383
I1
aI0
aI0
aI1
aI0
aI1
aI0
aI1
aI1
aI1
aI1
aI2604133
aS'_4504637664'
p384
aa(lp385
I1
aI0
aI0
aI0
aI0
aI1
aI1
aI0
aI0
aI1
aI1
aI2182966
aS'_4504637664'
p386
aa(lp387
I1
aI0
aI0
aI0
aI0
aI1
aI0
aI1
aI0
aI1
aI1
aI2146533
aS'_4504637664'
p388
aa(lp389
I1
aI0
aI0
aI0
aI0
aI1
aI1
aI1
aI0
aI1
aI1
aI2162700
aS'_4504637664'
p390
aa(lp391
I1
aI0
aI0
aI1
aI0
aI1
aI0
aI1
aI1
aI0
aI1
aI2593833
aS'_4504637664'
p392
aa(lp393
I1
aI0
aI1
aI1
aI1
aI1
aI0
aI0
aI1
aI1
aI1
aI2496000
aS'_4504637664'
p394
aa(lp395
I1
aI0
aI0
aI0
aI1
aI1
aI0
aI1
aI0
aI1
aI1
aI2151833
aS'_4504637664'
p396
aa(lp397
I1
aI1
aI0
aI0
aI1
aI1
aI0
aI1
aI0
aI1
aI0
aI2239766
aS'_4504637664'
p398
aa(lp399
I1
aI1
aI1
aI1
aI1
aI1
aI0
aI1
aI0
aI1
aI0
aI2488100
aS'_4504637664'
p400
aa(lp401
I1
aI0
aI1
aI0
aI0
aI1
aI0
aI1
aI0
aI1
aI0
aI2185633
aS'_4504637664'
p402
aa(lp403
I1
aI0
aI0
aI0
aI0
aI0
aI1
aI1
aI0
aI1
aI1
aI2152933
aS'_4504637664'
p404
aa(lp405
I1
aI1
aI0
aI1
aI1
aI1
aI0
aI1
aI1
aI1
aI1
aI2537400
aS'_4504637664'
p406
aa(lp407
I1
aI0
aI0
aI1
aI0
aI1
aI1
aI1
aI0
aI0
aI0
aI2182333
aS'_4504637664'
p408
aaaa(lp409
S'_4504640400'
p410
a(lp411
(lp412
I1
aI0
aI0
aI1
aI0
aI1
aI0
aI1
aI0
aI0
aI1
aI2635800
ag410
aa(lp413
I1
aI0
aI0
aI0
aI0
aI1
aI0
aI1
aI0
aI0
aI1
aI2193066
aS'_4504640400'
p414
aa(lp415
I1
aI1
aI1
aI1
aI0
aI1
aI0
aI1
aI0
aI0
aI0
aI2532566
aS'_4504640400'
p416
aa(lp417
I1
aI0
aI1
aI1
aI0
aI0
aI0
aI1
aI0
aI0
aI1
aI2488966
aS'_4504640400'
p418
aa(lp419
I1
aI1
aI0
aI1
aI0
aI0
aI0
aI1
aI0
aI0
aI1
aI2508766
aS'_4504640400'
p420
aa(lp421
I1
aI0
aI1
aI0
aI0
aI1
aI0
aI1
aI0
aI0
aI1
aI2358533
aS'_4504640400'
p422
aa(lp423
I1
aI0
aI1
aI0
aI0
aI1
aI0
aI1
aI0
aI1
aI1
aI2316300
aS'_4504640400'
p424
aa(lp425
I1
aI0
aI0
aI0
aI0
aI0
aI1
aI1
aI0
aI0
aI1
aI2151300
aS'_4504640400'
p426
aa(lp427
I1
aI0
aI1
aI0
aI1
aI1
aI0
aI1
aI0
aI0
aI1
aI2340633
aS'_4504640400'
p428
aa(lp429
I1
aI0
aI1
aI1
aI1
aI0
aI0
aI1
aI0
aI0
aI1
aI2494933
aS'_4504640400'
p430
aa(lp431
I1
aI0
aI1
aI0
aI0
aI0
aI0
aI1
aI0
aI0
aI1
aI2342666
aS'_4504640400'
p432
aa(lp433
I1
aI1
aI0
aI0
aI0
aI1
aI1
aI1
aI0
aI0
aI1
aI2358500
aS'_4504640400'
p434
aa(lp435
I1
aI0
aI1
aI1
aI0
aI0
aI1
aI1
aI0
aI0
aI1
aI2497866
aS'_4504640400'
p436
aa(lp437
I1
aI0
aI1
aI0
aI0
aI1
aI0
aI0
aI0
aI1
aI0
aI2176966
aS'_4504640400'
p438
aa(lp439
I1
aI1
aI1
aI0
aI0
aI1
aI0
aI1
aI0
aI0
aI0
aI2447300
aS'_4504640400'
p440
aa(lp441
I1
aI0
aI1
aI0
aI0
aI1
aI1
aI0
aI0
aI0
aI1
aI2344200
aS'_4504640400'
p442
aaaa(lp443
S'_4504638816'
p444
a(lp445
(lp446
I1
aI0
aI1
aI0
aI0
aI1
aI0
aI1
aI1
aI1
aI0
aI2230700
ag444
aa(lp447
I1
aI0
aI1
aI1
aI0
aI1
aI0
aI1
aI1
aI0
aI0
aI2290700
aS'_4504638816'
p448
aa(lp449
I1
aI0
aI1
aI1
aI0
aI1
aI1
aI1
aI0
aI0
aI0
aI2291233
aS'_4504638816'
p450
aa(lp451
I1
aI1
aI1
aI1
aI1
aI1
aI0
aI1
aI1
aI1
aI1
aI2675100
aS'_4504638816'
p452
aa(lp453
I1
aI0
aI1
aI1
aI1
aI1
aI1
aI1
aI0
aI1
aI0
aI2295533
aS'_4504638816'
p454
aa(lp455
I1
aI0
aI1
aI1
aI1
aI1
aI1
aI0
aI1
aI1
aI1
aI2515233
aS'_4504638816'
p456
aa(lp457
I1
aI0
aI1
aI0
aI0
aI0
aI1
aI1
aI0
aI1
aI0
aI2188900
aS'_4504638816'
p458
aa(lp459
I1
aI1
aI1
aI0
aI0
aI1
aI1
aI1
aI0
aI1
aI0
aI2409833
aS'_4504638816'
p460
aa(lp461
I1
aI0
aI0
aI0
aI0
aI1
aI1
aI1
aI0
aI0
aI1
aI2154833
aS'_4504638816'
p462
aa(lp463
I1
aI0
aI0
aI0
aI1
aI1
aI1
aI1
aI0
aI1
aI1
aI2169066
aS'_4504638816'
p464
aa(lp465
I1
aI0
aI1
aI1
aI1
aI0
aI1
aI1
aI0
aI1
aI0
aI2279900
aS'_4504638816'
p466
aa(lp467
I1
aI0
aI1
aI1
aI1
aI1
aI1
aI1
aI1
aI1
aI1
aI2658166
aS'_4504638816'
p468
aa(lp469
I1
aI0
aI1
aI0
aI1
aI1
aI1
aI1
aI0
aI1
aI0
aI2208200
aS'_4504638816'
p470
aa(lp471
I1
aI0
aI1
aI1
aI1
aI1
aI1
aI1
aI1
aI1
aI0
aI2251566
aS'_4504638816'
p472
aa(lp473
I1
aI0
aI1
aI1
aI0
aI1
aI1
aI1
aI1
aI0
aI0
aI2309433
aS'_4504638816'
p474
aa(lp475
I1
aI0
aI1
aI0
aI1
aI1
aI1
aI1
aI1
aI0
aI1
aI2363066
aS'_4504638816'
p476
aaaa(lp477
S'_4526534600'
p478
a(lp479
(lp480
I1
aI1
aI0
aI0
aI1
aI1
aI1
aI0
aI0
aI0
aI0
aI2305900
ag478
aa(lp481
I1
aI1
aI0
aI0
aI1
aI0
aI1
aI0
aI0
aI0
aI0
aI2311900
aS'_4526534600'
p482
aa(lp483
I1
aI1
aI0
aI0
aI0
aI1
aI1
aI0
aI0
aI0
aI0
aI2296766
aS'_4526534600'
p484
aa(lp485
I1
aI1
aI0
aI1
aI1
aI1
aI1
aI0
aI0
aI0
aI0
aI2569700
aS'_4526534600'
p486
aa(lp487
I1
aI0
aI0
aI0
aI0
aI1
aI1
aI0
aI0
aI0
aI1
aI2176800
aS'_4526534600'
p488
aa(lp489
I1
aI1
aI1
aI1
aI1
aI1
aI1
aI0
aI1
aI0
aI0
aI2507266
aS'_4526534600'
p490
aa(lp491
I1
aI1
aI0
aI0
aI0
aI1
aI1
aI0
aI1
aI0
aI0
aI2243366
aS'_4526534600'
p492
aa(lp493
I1
aI1
aI0
aI0
aI1
aI0
aI1
aI0
aI1
aI0
aI0
aI2282833
aS'_4526534600'
p494
aa(lp495
I1
aI0
aI0
aI1
aI1
aI1
aI1
aI0
aI0
aI0
aI0
aI2174666
aS'_4526534600'
p496
aa(lp497
I1
aI0
aI0
aI0
aI1
aI1
aI1
aI0
aI1
aI0
aI0
aI2028100
aS'_4526534600'
p498
aa(lp499
I1
aI1
aI0
aI0
aI1
aI0
aI1
aI1
aI1
aI0
aI0
aI2301333
aS'_4526534600'
p500
aa(lp501
I1
aI1
aI0
aI1
aI0
aI0
aI1
aI0
aI0
aI0
aI0
aI2399766
aS'_4526534600'
p502
aa(lp503
I1
aI0
aI0
aI0
aI1
aI1
aI1
aI1
aI0
aI1
aI0
aI2038566
aS'_4526534600'
p504
aa(lp505
I1
aI1
aI0
aI1
aI1
aI0
aI1
aI0
aI0
aI1
aI0
aI2342500
aS'_4526534600'
p506
aa(lp507
I1
aI1
aI0
aI1
aI0
aI1
aI1
aI0
aI1
aI0
aI0
aI2346533
aS'_4526534600'
p508
aa(lp509
I1
aI0
aI0
aI1
aI1
aI1
aI1
aI0
aI0
aI1
aI0
aI2169233
aS'_4526534600'
p510
aaaa(lp511
S'_4526406760'
p512
a(lp513
(lp514
I1
aI1
aI0
aI0
aI1
aI0
aI0
aI1
aI0
aI0
aI0
aI2289366
ag512
aa(lp515
I1
aI1
aI1
aI0
aI1
aI0
aI0
aI0
aI0
aI0
aI0
aI2459366
aS'_4526406760'
p516
aa(lp517
I1
aI1
aI1
aI0
aI0
aI0
aI0
aI1
aI0
aI0
aI0
aI2429166
aS'_4526406760'
p518
aa(lp519
I1
aI0
aI1
aI0
aI1
aI0
aI0
aI0
aI0
aI0
aI0
aI2340800
aS'_4526406760'
p520
aa(lp521
I1
aI1
aI0
aI0
aI1
aI0
aI0
aI0
aI0
aI0
aI1
aI2562233
aS'_4526406760'
p522
aa(lp523
I1
aI1
aI0
aI1
aI1
aI0
aI0
aI1
aI0
aI0
aI1
aI2543933
aS'_4526406760'
p524
aa(lp525
I1
aI1
aI0
aI0
aI1
aI1
aI0
aI1
aI0
aI0
aI1
aI2387366
aS'_4526406760'
p526
aa(lp527
I1
aI1
aI0
aI0
aI0
aI0
aI0
aI1
aI0
aI0
aI1
aI2362100
aS'_4526406760'
p528
aa(lp529
I1
aI0
aI0
aI0
aI1
aI0
aI0
aI0
aI0
aI0
aI0
aI2080466
aS'_4526406760'
p530
aa(lp531
I1
aI0
aI0
aI0
aI1
aI1
aI0
aI1
aI0
aI0
aI1
aI2150200
aS'_4526406760'
p532
aa(lp533
I1
aI0
aI1
aI1
aI1
aI0
aI0
aI0
aI0
aI1
aI0
aI2253400
aS'_4526406760'
p534
aa(lp535
I1
aI1
aI1
aI1
aI0
aI0
aI0
aI0
aI0
aI0
aI0
aI2440300
aS'_4526406760'
p536
aa(lp537
I1
aI1
aI1
aI1
aI1
aI0
aI0
aI0
aI0
aI0
aI1
aI2525000
aS'_4526406760'
p538
aa(lp539
I1
aI1
aI1
aI0
aI1
aI1
aI0
aI0
aI0
aI0
aI1
aI2540733
aS'_4526406760'
p540
aa(lp541
I1
aI0
aI1
aI0
aI1
aI0
aI0
aI0
aI1
aI0
aI0
aI2193966
aS'_4526406760'
p542
aa(lp543
I1
aI0
aI1
aI0
aI0
aI0
aI0
aI0
aI0
aI0
aI0
aI2196366
aS'_4526406760'
p544
aaaa(lp545
S'_4526531432'
p546
a(lp547
(lp548
I1
aI0
aI0
aI0
aI0
aI0
aI1
aI0
aI1
aI1
aI1
aI2184333
ag546
aa(lp549
I1
aI0
aI0
aI1
aI0
aI0
aI1
aI0
aI1
aI1
aI0
aI2158533
aS'_4526531432'
p550
aa(lp551
I1
aI1
aI0
aI0
aI0
aI0
aI1
aI0
aI1
aI1
aI0
aI2265666
aS'_4526531432'
p552
aa(lp553
I1
aI0
aI1
aI0
aI0
aI0
aI1
aI0
aI1
aI1
aI0
aI2220866
aS'_4526531432'
p554
aa(lp555
I1
aI0
aI0
aI0
aI0
aI0
aI1
aI0
aI1
aI1
aI0
aI2051300
aS'_4526531432'
p556
aa(lp557
I1
aI0
aI0
aI0
aI0
aI0
aI1
aI1
aI1
aI1
aI0
aI2059900
aS'_4526531432'
p558
aa(lp559
I1
aI0
aI0
aI0
aI0
aI0
aI1
aI0
aI1
aI0
aI0
aI2036366
aS'_4526531432'
p560
aa(lp561
I1
aI0
aI0
aI0
aI0
aI0
aI1
aI0
aI0
aI0
aI1
aI2173966
aS'_4526531432'
p562
aa(lp563
I1
aI0
aI0
aI0
aI0
aI0
aI0
aI0
aI1
aI1
aI0
aI2022333
aS'_4526531432'
p564
aa(lp565
I1
aI0
aI0
aI0
aI0
aI1
aI1
aI0
aI1
aI1
aI0
aI2039766
aS'_4526531432'
p566
aa(lp567
I1
aI0
aI0
aI1
aI0
aI0
aI0
aI0
aI1
aI1
aI0
aI2113900
aS'_4526531432'
p568
aa(lp569
I1
aI0
aI0
aI1
aI0
aI0
aI1
aI0
aI0
aI1
aI0
aI2107066
aS'_4526531432'
p570
aa(lp571
I1
aI0
aI0
aI0
aI1
aI0
aI1
aI0
aI0
aI0
aI0
aI2072333
aS'_4526531432'
p572
aa(lp573
I1
aI1
aI0
aI0
aI0
aI0
aI0
aI0
aI1
aI0
aI0
aI2244300
aS'_4526531432'
p574
aa(lp575
I1
aI0
aI0
aI0
aI1
aI0
aI1
aI1
aI0
aI1
aI0
aI2026800
aS'_4526531432'
p576
aa(lp577
I1
aI0
aI1
aI0
aI0
aI0
aI1
aI0
aI0
aI0
aI0
aI2224333
aS'_4526531432'
p578
aaaa(lp579
S'_4504640976'
p580
a(lp581
(lp582
I1
aI1
aI1
aI1
aI1
aI1
aI1
aI0
aI0
aI0
aI0
aI2442533
ag580
aa(lp583
I1
aI1
aI1
aI1
aI1
aI1
aI1
aI1
aI0
aI0
aI0
aI2416933
aS'_4504640976'
p584
aa(lp585
I1
aI1
aI1
aI0
aI1
aI1
aI1
aI1
aI0
aI0
aI0
aI2446066
aS'_4504640976'
p586
aa(lp587
I1
aI0
aI1
aI1
aI0
aI1
aI1
aI1
aI0
aI0
aI1
aI2478733
aS'_4504640976'
p588
aa(lp589
I1
aI0
aI0
aI1
aI1
aI1
aI1
aI1
aI0
aI1
aI0
aI2140500
aS'_4504640976'
p590
aa(lp591
I1
aI0
aI1
aI1
aI1
aI1
aI1
aI1
aI0
aI0
aI0
aI2226266
aS'_4504640976'
p592
aa(lp593
I1
aI1
aI1
aI1
aI1
aI0
aI1
aI1
aI0
aI0
aI0
aI2520600
aS'_4504640976'
p594
aa(lp595
I1
aI0
aI0
aI1
aI1
aI0
aI0
aI1
aI0
aI1
aI1
aI2576766
aS'_4504640976'
p596
aa(lp597
I1
aI0
aI1
aI1
aI1
aI1
aI1
aI0
aI0
aI0
aI0
aI2245066
aS'_4504640976'
p598
aa(lp599
I1
aI1
aI0
aI0
aI1
aI1
aI1
aI1
aI0
aI1
aI1
aI2344500
aS'_4504640976'
p600
aa(lp601
I1
aI0
aI1
aI1
aI1
aI1
aI1
aI1
aI0
aI0
aI1
aI2694700
aS'_4504640976'
p602
aa(lp603
I1
aI1
aI1
aI0
aI1
aI1
aI1
aI1
aI0
aI1
aI1
aI2504800
aS'_4504640976'
p604
aa(lp605
I1
aI0
aI1
aI1
aI1
aI1
aI1
aI1
aI0
aI1
aI1
aI2493600
aS'_4504640976'
p606
aa(lp607
I1
aI0
aI1
aI1
aI1
aI1
aI1
aI0
aI0
aI1
aI1
aI2493433
aS'_4504640976'
p608
aa(lp609
I1
aI0
aI1
aI1
aI1
aI0
aI1
aI1
aI0
aI1
aI1
aI2480300
aS'_4504640976'
p610
aa(lp611
I1
aI0
aI1
aI0
aI1
aI0
aI1
aI1
aI0
aI1
aI1
aI2334266
aS'_4504640976'
p612
aaaa(lp613
S'_4526407264'
p614
a(lp615
(lp616
I1
aI0
aI0
aI0
aI1
aI0
aI0
aI0
aI1
aI1
aI1
aI2159933
ag614
aa(lp617
I1
aI1
aI0
aI1
aI1
aI0
aI1
aI0
aI1
aI0
aI1
aI2477900
aS'_4526407264'
p618
aa(lp619
I1
aI0
aI0
aI1
aI0
aI0
aI1
aI1
aI1
aI0
aI0
aI2142500
aS'_4526407264'
p620
aa(lp621
I1
aI1
aI1
aI0
aI1
aI0
aI1
aI0
aI1
aI0
aI1
aI2494366
aS'_4526407264'
p622
aa(lp623
I1
aI0
aI0
aI1
aI1
aI0
aI0
aI1
aI1
aI0
aI1
aI2615333
aS'_4526407264'
p624
aa(lp625
I1
aI0
aI0
aI1
aI0
aI0
aI0
aI1
aI1
aI0
aI1
aI2430833
aS'_4526407264'
p626
aa(lp627
I1
aI0
aI1
aI0
aI1
aI0
aI1
aI1
aI1
aI0
aI1
aI2357900
aS'_4526407264'
p628
aa(lp629
I1
aI1
aI1
aI0
aI1
aI1
aI0
aI0
aI1
aI0
aI1
aI2522766
aS'_4526407264'
p630
aa(lp631
I1
aI1
aI0
aI0
aI1
aI0
aI0
aI0
aI1
aI0
aI1
aI2352100
aS'_4526407264'
p632
aa(lp633
I1
aI0
aI0
aI0
aI1
aI0
aI1
aI1
aI1
aI0
aI0
aI2057400
aS'_4526407264'
p634
aa(lp635
I1
aI1
aI1
aI0
aI1
aI0
aI0
aI1
aI1
aI0
aI1
aI2528066
aS'_4526407264'
p636
aa(lp637
I1
aI1
aI1
aI0
aI1
aI1
aI0
aI1
aI1
aI0
aI1
aI2505333
aS'_4526407264'
p638
aa(lp639
I1
aI0
aI0
aI0
aI1
aI1
aI1
aI1
aI1
aI0
aI1
aI2190500
aS'_4526407264'
p640
aa(lp641
I1
aI0
aI0
aI0
aI1
aI0
aI1
aI1
aI0
aI0
aI1
aI2198266
aS'_4526407264'
p642
aa(lp643
I1
aI1
aI0
aI0
aI1
aI0
aI1
aI1
aI0
aI0
aI1
aI2370633
aS'_4526407264'
p644
aa(lp645
I1
aI0
aI0
aI0
aI1
aI1
aI1
aI1
aI0
aI0
aI1
aI2169133
aS'_4526407264'
p646
aaaa(lp647
S'_4504639824'
p648
a(lp649
(lp650
I1
aI0
aI0
aI0
aI0
aI0
aI0
aI1
aI1
aI1
aI1
aI2143266
ag648
aa(lp651
I1
aI0
aI0
aI0
aI1
aI1
aI0
aI1
aI1
aI1
aI1
aI2185033
aS'_4504639824'
p652
aa(lp653
I1
aI0
aI1
aI0
aI1
aI0
aI0
aI1
aI1
aI0
aI0
aI2179000
aS'_4504639824'
p654
aa(lp655
I1
aI0
aI1
aI0
aI0
aI0
aI0
aI1
aI1
aI0
aI0
aI2172866
aS'_4504639824'
p656
aa(lp657
I1
aI0
aI1
aI0
aI1
aI0
aI0
aI1
aI1
aI0
aI1
aI2317566
aS'_4504639824'
p658
aa(lp659
I1
aI0
aI1
aI0
aI0
aI0
aI1
aI1
aI1
aI0
aI0
aI2210100
aS'_4504639824'
p660
aa(lp661
I1
aI0
aI1
aI0
aI1
aI1
aI1
aI1
aI1
aI0
aI0
aI2311600
aS'_4504639824'
p662
aa(lp663
I1
aI0
aI1
aI0
aI1
aI1
aI0
aI0
aI1
aI1
aI1
aI2357933
aS'_4504639824'
p664
aa(lp665
I1
aI0
aI1
aI1
aI0
aI0
aI0
aI0
aI1
aI1
aI1
aI2480200
aS'_4504639824'
p666
aa(lp667
I1
aI1
aI1
aI0
aI1
aI1
aI0
aI1
aI1
aI0
aI0
aI2418266
aS'_4504639824'
p668
aa(lp669
I1
aI0
aI1
aI0
aI0
aI0
aI0
aI0
aI1
aI0
aI0
aI2188166
aS'_4504639824'
p670
aa(lp671
I1
aI0
aI1
aI0
aI0
aI0
aI0
aI0
aI1
aI1
aI1
aI2334466
aS'_4504639824'
p672
aa(lp673
I1
aI0
aI1
aI0
aI1
aI1
aI0
aI1
aI1
aI0
aI1
aI2349200
aS'_4504639824'
p674
aa(lp675
I1
aI0
aI1
aI0
aI0
aI0
aI0
aI0
aI1
aI0
aI1
aI2319966
aS'_4504639824'
p676
aa(lp677
I1
aI0
aI1
aI0
aI0
aI0
aI0
aI1
aI1
aI0
aI1
aI2310000
aS'_4504639824'
p678
aa(lp679
I1
aI0
aI1
aI0
aI0
aI1
aI0
aI1
aI1
aI0
aI1
aI2342500
aS'_4504639824'
p680
aaaa(lp681
S'_4526531720'
p682
a(lp683
(lp684
I1
aI0
aI0
aI1
aI0
aI0
aI1
aI0
aI0
aI0
aI0
aI2147200
ag682
aa(lp685
I1
aI0
aI0
aI1
aI0
aI0
aI0
aI0
aI0
aI1
aI0
aI2077466
aS'_4526531720'
p686
aa(lp687
I1
aI0
aI0
aI0
aI1
aI1
aI1
aI0
aI0
aI1
aI0
aI2061166
aS'_4526531720'
p688
aa(lp689
I1
aI1
aI0
aI1
aI0
aI0
aI0
aI0
aI0
aI1
aI0
aI2301666
aS'_4526531720'
p690
aa(lp691
I1
aI0
aI0
aI0
aI0
aI0
aI0
aI0
aI0
aI1
aI0
aI2103400
aS'_4526531720'
p692
aa(lp693
I1
aI0
aI0
aI0
aI0
aI0
aI1
aI0
aI0
aI0
aI0
aI2049866
aS'_4526531720'
p694
aa(lp695
I1
aI0
aI0
aI0
aI0
aI0
aI0
aI0
aI1
aI0
aI0
aI2011533
aS'_4526531720'
p696
aa(lp697
I1
aI0
aI0
aI0
aI0
aI0
aI0
aI1
aI1
aI1
aI0
aI2015200
aS'_4526531720'
p698
aa(lp699
I1
aI0
aI0
aI0
aI0
aI0
aI1
aI1
aI0
aI1
aI0
aI2018966
aS'_4526531720'
p700
aa(lp701
I1
aI0
aI0
aI0
aI0
aI0
aI0
aI0
aI0
aI0
aI0
aI2104400
aS'_4526531720'
p702
aa(lp703
I1
aI1
aI0
aI0
aI0
aI0
aI0
aI0
aI0
aI0
aI0
aI2346800
aS'_4526531720'
p704
aa(lp705
I1
aI0
aI0
aI0
aI0
aI1
aI0
aI0
aI1
aI0
aI0
aI2018333
aS'_4526531720'
p706
aa(lp707
I1
aI1
aI0
aI1
aI0
aI0
aI0
aI0
aI0
aI0
aI0
aI2480166
aS'_4526531720'
p708
aa(lp709
I1
aI1
aI0
aI0
aI0
aI0
aI0
aI1
aI0
aI0
aI0
aI2278533
aS'_4526531720'
p710
aa(lp711
I1
aI0
aI0
aI0
aI0
aI1
aI0
aI0
aI0
aI0
aI0
aI2069000
aS'_4526531720'
p712
aa(lp713
I1
aI0
aI0
aI0
aI0
aI1
aI0
aI1
aI0
aI0
aI0
aI2071200
aS'_4526531720'
p714
aaaa(lp715
S'_4504640544'
p716
a(lp717
(lp718
I1
aI1
aI1
aI1
aI0
aI0
aI0
aI0
aI0
aI0
aI1
aI2531500
ag716
aa(lp719
I1
aI1
aI1
aI0
aI1
aI1
aI1
aI1
aI1
aI0
aI1
aI2518133
aS'_4504640544'
p720
aa(lp721
I1
aI1
aI1
aI1
aI0
aI1
aI0
aI1
aI1
aI1
aI1
aI2665166
aS'_4504640544'
p722
aa(lp723
I1
aI1
aI1
aI1
aI1
aI1
aI0
aI0
aI1
aI1
aI1
aI2638200
aS'_4504640544'
p724
aa(lp725
I1
aI0
aI1
aI1
aI1
aI0
aI0
aI0
aI0
aI1
aI1
aI2457933
aS'_4504640544'
p726
aa(lp727
I1
aI0
aI1
aI0
aI0
aI0
aI0
aI1
aI1
aI1
aI1
aI2320466
aS'_4504640544'
p728
aa(lp729
I1
aI1
aI1
aI1
aI1
aI1
aI0
aI0
aI0
aI1
aI1
aI2615733
aS'_4504640544'
p730
aa(lp731
I1
aI1
aI1
aI0
aI0
aI1
aI0
aI1
aI0
aI0
aI1
aI2531166
aS'_4504640544'
p732
aa(lp733
I1
aI1
aI1
aI0
aI0
aI1
aI0
aI0
aI0
aI1
aI1
aI2479933
aS'_4504640544'
p734
aa(lp735
I1
aI1
aI1
aI1
aI1
aI0
aI0
aI1
aI0
aI0
aI1
aI2683800
aS'_4504640544'
p736
aa(lp737
I1
aI1
aI1
aI0
aI1
aI1
aI0
aI1
aI1
aI1
aI1
aI2541233
aS'_4504640544'
p738
aa(lp739
I1
aI1
aI1
aI0
aI0
aI1
aI0
aI1
aI1
aI1
aI0
aI2431233
aS'_4504640544'
p740
aa(lp741
I1
aI1
aI1
aI1
aI1
aI0
aI0
aI1
aI0
aI0
aI0
aI2564733
aS'_4504640544'
p742
aa(lp743
I1
aI1
aI1
aI0
aI1
aI1
aI0
aI1
aI0
aI1
aI1
aI2489033
aS'_4504640544'
p744
aa(lp745
I1
aI1
aI1
aI0
aI1
aI0
aI0
aI1
aI0
aI1
aI1
aI2476133
aS'_4504640544'
p746
aa(lp747
I1
aI1
aI1
aI0
aI1
aI0
aI0
aI1
aI0
aI1
aI0
aI2387033
aS'_4504640544'
p748
aaaa(lp749
S'_4526406544'
p750
a(lp751
(lp752
I1
aI0
aI0
aI1
aI1
aI1
aI1
aI0
aI1
aI0
aI1
aI2596933
ag750
aa(lp753
I1
aI0
aI0
aI1
aI1
aI1
aI0
aI0
aI1
aI1
aI1
aI2637766
aS'_4526406544'
p754
aa(lp755
I1
aI0
aI1
aI1
aI1
aI1
aI1
aI1
aI1
aI0
aI0
aI2235200
aS'_4526406544'
p756
aa(lp757
I1
aI0
aI0
aI1
aI1
aI1
aI0
aI1
aI1
aI0
aI1
aI2635833
aS'_4526406544'
p758
aa(lp759
I1
aI0
aI0
aI1
aI1
aI0
aI1
aI0
aI0
aI0
aI1
aI2633100
aS'_4526406544'
p760
aa(lp761
I1
aI0
aI0
aI1
aI1
aI1
aI0
aI0
aI0
aI0
aI0
aI2163733
aS'_4526406544'
p762
aa(lp763
I1
aI0
aI0
aI1
aI1
aI0
aI1
aI0
aI0
aI0
aI0
aI2143433
aS'_4526406544'
p764
aa(lp765
I1
aI0
aI0
aI1
aI1
aI0
aI1
aI1
aI1
aI0
aI0
aI2143133
aS'_4526406544'
p766
aa(lp767
I1
aI0
aI0
aI1
aI1
aI1
aI0
aI1
aI1
aI0
aI0
aI2144066
aS'_4526406544'
p768
aa(lp769
I1
aI1
aI1
aI1
aI1
aI0
aI0
aI0
aI1
aI0
aI0
aI2531533
aS'_4526406544'
p770
aa(lp771
I1
aI0
aI1
aI1
aI0
aI1
aI0
aI0
aI1
aI0
aI0
aI2284666
aS'_4526406544'
p772
aa(lp773
I1
aI1
aI0
aI1
aI1
aI0
aI0
aI0
aI1
aI0
aI0
aI2374966
aS'_4526406544'
p774
aa(lp775
I1
aI0
aI0
aI1
aI1
aI0
aI0
aI0
aI0
aI1
aI1
aI2554366
aS'_4526406544'
p776
aa(lp777
I1
aI0
aI1
aI1
aI1
aI1
aI0
aI1
aI1
aI0
aI0
aI2296800
aS'_4526406544'
p778
aa(lp779
I1
aI0
aI1
aI1
aI0
aI0
aI0
aI0
aI1
aI0
aI0
aI2270133
aS'_4526406544'
p780
aa(lp781
I1
aI0
aI1
aI1
aI1
aI1
aI0
aI1
aI0
aI0
aI0
aI2292966
aS'_4526406544'
p782
aaaa(lp783
S'_4526532584'
p784
a(lp785
(lp786
I1
aI1
aI0
aI0
aI0
aI0
aI0
aI0
aI0
aI0
aI1
aI2674266
ag784
aa(lp787
I1
aI1
aI1
aI0
aI0
aI0
aI0
aI0
aI1
aI1
aI0
aI2387833
aS'_4526532584'
p788
aa(lp789
I1
aI1
aI0
aI0
aI0
aI1
aI0
aI0
aI0
aI0
aI0
aI2307400
aS'_4526532584'
p790
aa(lp791
I1
aI1
aI1
aI0
aI1
aI0
aI1
aI0
aI0
aI0
aI0
aI2444900
aS'_4526532584'
p792
aa(lp793
I1
aI1
aI0
aI0
aI1
aI0
aI1
aI0
aI0
aI0
aI1
aI2382033
aS'_4526532584'
p794
aa(lp795
I1
aI1
aI1
aI0
aI1
aI0
aI1
aI1
aI1
aI1
aI0
aI2452200
aS'_4526532584'
p796
aa(lp797
I1
aI1
aI0
aI0
aI1
aI0
aI0
aI0
aI1
aI1
aI1
aI2335500
aS'_4526532584'
p798
aa(lp799
I1
aI1
aI1
aI0
aI1
aI0
aI0
aI0
aI1
aI1
aI0
aI2402200
aS'_4526532584'
p800
aa(lp801
I1
aI1
aI0
aI0
aI1
aI1
aI0
aI0
aI0
aI1
aI1
aI2322166
aS'_4526532584'
p802
aa(lp803
I1
aI1
aI0
aI0
aI1
aI0
aI1
aI0
aI0
aI1
aI1
aI2324933
aS'_4526532584'
p804
aa(lp805
I1
aI1
aI0
aI0
aI1
aI1
aI0
aI0
aI0
aI0
aI0
aI2298566
aS'_4526532584'
p806
aa(lp807
I1
aI1
aI0
aI0
aI1
aI0
aI0
aI0
aI0
aI1
aI1
aI2307900
aS'_4526532584'
p808
aa(lp809
I1
aI1
aI1
aI0
aI1
aI0
aI0
aI0
aI0
aI1
aI0
aI2380966
aS'_4526532584'
p810
aa(lp811
I1
aI1
aI0
aI0
aI1
aI0
aI0
aI0
aI1
aI1
aI0
aI2245266
aS'_4526532584'
p812
aa(lp813
I1
aI1
aI0
aI0
aI1
aI0
aI0
aI0
aI0
aI1
aI0
aI2216066
aS'_4526532584'
p814
aa(lp815
I1
aI1
aI0
aI1
aI1
aI0
aI0
aI0
aI0
aI1
aI0
aI2313300
aS'_4526532584'
p816
aaaa(lp817
S'_4504639104'
p818
a(lp819
(lp820
I1
aI0
aI0
aI0
aI1
aI0
aI0
aI1
aI0
aI1
aI0
aI2040500
ag818
aa(lp821
I1
aI0
aI1
aI0
aI1
aI0
aI0
aI0
aI0
aI1
aI0
aI2170933
aS'_4504639104'
p822
aa(lp823
I1
aI0
aI1
aI0
aI1
aI0
aI1
aI1
aI0
aI1
aI0
aI2196266
aS'_4504639104'
p824
aa(lp825
I1
aI0
aI0
aI0
aI1
aI0
aI0
aI1
aI1
aI1
aI0
aI2026900
aS'_4504639104'
p826
aa(lp827
I1
aI0
aI0
aI0
aI1
aI0
aI0
aI1
aI0
aI1
aI1
aI2171866
aS'_4504639104'
p828
aa(lp829
I1
aI0
aI1
aI0
aI0
aI0
aI0
aI1
aI0
aI1
aI0
aI2203966
aS'_4504639104'
p830
aa(lp831
I1
aI0
aI1
aI0
aI1
aI0
aI0
aI1
aI0
aI1
aI1
aI2346133
aS'_4504639104'
p832
aa(lp833
I1
aI0
aI0
aI0
aI1
aI0
aI0
aI1
aI1
aI0
aI0
aI2008200
aS'_4504639104'
p834
aa(lp835
I1
aI0
aI1
aI0
aI1
aI0
aI1
aI0
aI0
aI1
aI1
aI2334166
aS'_4504639104'
p836
aa(lp837
I1
aI0
aI1
aI0
aI1
aI0
aI1
aI1
aI0
aI0
aI0
aI2210566
aS'_4504639104'
p838
aa(lp839
I1
aI0
aI1
aI1
aI1
aI0
aI0
aI1
aI1
aI1
aI0
aI2316866
aS'_4504639104'
p840
aa(lp841
I1
aI1
aI1
aI0
aI1
aI0
aI0
aI1
aI0
aI0
aI0
aI2460266
aS'_4504639104'
p842
aa(lp843
I1
aI0
aI1
aI0
aI1
aI0
aI0
aI0
aI0
aI0
aI1
aI2376966
aS'_4504639104'
p844
aa(lp845
I1
aI0
aI1
aI0
aI1
aI1
aI1
aI1
aI0
aI0
aI0
aI2332766
aS'_4504639104'
p846
aa(lp847
I1
aI0
aI1
aI0
aI0
aI0
aI0
aI0
aI0
aI1
aI1
aI2307400
aS'_4504639104'
p848
aa(lp849
I1
aI0
aI1
aI1
aI0
aI0
aI0
aI0
aI1
aI1
aI0
aI2274000
aS'_4504639104'
p850
aaaa(lp851
S'_4504639536'
p852
a(lp853
(lp854
I1
aI0
aI1
aI1
aI0
aI1
aI1
aI0
aI1
aI0
aI1
aI2487100
ag852
aa(lp855
I1
aI0
aI1
aI1
aI0
aI1
aI1
aI0
aI0
aI0
aI1
aI2502433
aS'_4504639536'
p856
aa(lp857
I1
aI0
aI1
aI1
aI0
aI1
aI0
aI0
aI1
aI1
aI1
aI2490133
aS'_4504639536'
p858
aa(lp859
I1
aI1
aI1
aI1
aI0
aI1
aI1
aI0
aI0
aI0
aI1
aI2672799
aS'_4504639536'
p860
aa(lp861
I1
aI1
aI0
aI1
aI0
aI1
aI0
aI0
aI0
aI0
aI1
aI2522100
aS'_4504639536'
p862
aa(lp863
I1
aI1
aI1
aI1
aI1
aI1
aI1
aI0
aI0
aI0
aI1
aI2526833
aS'_4504639536'
p864
aa(lp865
I1
aI1
aI1
aI1
aI0
aI1
aI0
aI1
aI1
aI0
aI1
aI2618466
aS'_4504639536'
p866
aa(lp867
I1
aI1
aI1
aI1
aI0
aI1
aI0
aI0
aI0
aI0
aI1
aI2660966
aS'_4504639536'
p868
aa(lp869
I1
aI1
aI0
aI0
aI0
aI1
aI0
aI1
aI1
aI0
aI1
aI2374700
aS'_4504639536'
p870
aa(lp871
I1
aI1
aI1
aI0
aI0
aI1
aI0
aI0
aI0
aI0
aI1
aI2552133
aS'_4504639536'
p872
aa(lp873
I1
aI0
aI1
aI1
aI0
aI0
aI0
aI1
aI1
aI1
aI1
aI2463200
aS'_4504639536'
p874
aa(lp875
I1
aI1
aI1
aI1
aI0
aI1
aI0
aI1
aI0
aI0
aI1
aI2664500
aS'_4504639536'
p876
aa(lp877
I1
aI1
aI1
aI1
aI0
aI0
aI0
aI1
aI1
aI0
aI1
aI2580233
aS'_4504639536'
p878
aa(lp879
I1
aI1
aI1
aI1
aI0
aI1
aI0
aI0
aI0
aI0
aI0
aI2539633
aS'_4504639536'
p880
aa(lp881
I1
aI1
aI1
aI0
aI0
aI1
aI1
aI1
aI1
aI1
aI1
aI2527700
aS'_4504639536'
p882
aa(lp883
I1
aI1
aI1
aI0
aI0
aI1
aI0
aI1
aI1
aI0
aI1
aI2480633
aS'_4504639536'
p884
aaaa(lp885
S'_4526476392'
p886
a(lp887
(lp888
I1
aI1
aI0
aI0
aI1
aI1
aI0
aI1
aI1
aI0
aI0
aI2260866
ag886
aa(lp889
I1
aI1
aI0
aI0
aI1
aI1
aI0
aI1
aI0
aI0
aI0
aI2279400
aS'_4526476392'
p890
aa(lp891
I1
aI1
aI0
aI0
aI1
aI1
aI0
aI1
aI1
aI1
aI0
aI2303133
aS'_4526476392'
p892
aa(lp893
I1
aI1
aI0
aI0
aI1
aI0
aI1
aI1
aI1
aI1
aI0
aI2287166
aS'_4526476392'
p894
aa(lp895
I1
aI0
aI0
aI0
aI1
aI1
aI1
aI1
aI1
aI1
aI0
aI2076466
aS'_4526476392'
p896
aa(lp897
I1
aI1
aI0
aI1
aI1
aI1
aI0
aI0
aI1
aI1
aI0
aI2369500
aS'_4526476392'
p898
aa(lp899
I1
aI1
aI0
aI0
aI1
aI1
aI0
aI0
aI1
aI1
aI0
aI2270266
aS'_4526476392'
p900
aa(lp901
I1
aI0
aI0
aI0
aI1
aI1
aI0
aI0
aI1
aI0
aI0
aI2039333
aS'_4526476392'
p902
aa(lp903
I1
aI1
aI0
aI0
aI0
aI1
aI0
aI0
aI1
aI0
aI0
aI2273933
aS'_4526476392'
p904
aa(lp905
I1
aI1
aI0
aI0
aI1
aI0
aI0
aI1
aI1
aI1
aI0
aI2266500
aS'_4526476392'
p906
aa(lp907
I1
aI0
aI0
aI0
aI1
aI1
aI0
aI1
aI1
aI1
aI0
aI2062266
aS'_4526476392'
p908
aa(lp909
I1
aI1
aI0
aI0
aI0
aI1
aI0
aI0
aI1
aI1
aI0
aI2254133
aS'_4526476392'
p910
aa(lp911
I1
aI1
aI0
aI0
aI1
aI1
aI0
aI0
aI1
aI1
aI1
aI2347733
aS'_4526476392'
p912
aa(lp913
I1
aI0
aI0
aI0
aI0
aI1
aI0
aI1
aI1
aI1
aI0
aI2064266
aS'_4526476392'
p914
aa(lp915
I1
aI1
aI0
aI0
aI0
aI0
aI0
aI1
aI1
aI1
aI0
aI2256200
aS'_4526476392'
p916
aa(lp917
I1
aI0
aI0
aI0
aI1
aI1
aI0
aI0
aI1
aI1
aI0
aI2054700
aS'_4526476392'
p918
aaaa(lp919
S'_4504638024'
p920
a(lp921
(lp922
I1
aI0
aI1
aI1
aI0
aI0
aI1
aI0
aI1
aI0
aI1
aI2484300
ag920
aa(lp923
I1
aI1
aI1
aI1
aI1
aI0
aI1
aI0
aI1
aI0
aI1
aI2622200
aS'_4504638024'
p924
aa(lp925
I1
aI1
aI1
aI1
aI0
aI0
aI0
aI0
aI1
aI0
aI1
aI2646000
aS'_4504638024'
p926
aa(lp927
I1
aI0
aI0
aI1
aI0
aI0
aI1
aI1
aI1
aI0
aI1
aI2641800
aS'_4504638024'
p928
aa(lp929
I1
aI1
aI1
aI1
aI0
aI0
aI1
aI1
aI1
aI0
aI1
aI2662133
aS'_4504638024'
p930
aa(lp931
I1
aI1
aI1
aI1
aI0
aI1
aI1
aI0
aI1
aI0
aI1
aI2626800
aS'_4504638024'
p932
aa(lp933
I1
aI1
aI0
aI1
aI1
aI0
aI1
aI0
aI1
aI1
aI1
aI2538200
aS'_4504638024'
p934
aa(lp935
I1
aI1
aI1
aI1
aI1
aI0
aI1
aI1
aI1
aI1
aI1
aI2673166
aS'_4504638024'
p936
aa(lp937
I1
aI1
aI0
aI1
aI1
aI0
aI1
aI0
aI0
aI0
aI1
aI2520433
aS'_4504638024'
p938
aa(lp939
I1
aI0
aI0
aI1
aI1
aI0
aI1
aI1
aI1
aI1
aI1
aI2642900
aS'_4504638024'
p940
aa(lp941
I1
aI1
aI1
aI1
aI0
aI0
aI0
aI1
aI1
aI1
aI1
aI2627366
aS'_4504638024'
p942
aa(lp943
I1
aI1
aI0
aI1
aI0
aI0
aI1
aI0
aI1
aI1
aI1
aI2487833
aS'_4504638024'
p944
aa(lp945
I1
aI0
aI1
aI1
aI0
aI1
aI1
aI1
aI1
aI1
aI1
aI2511500
aS'_4504638024'
p946
aa(lp947
I1
aI0
aI1
aI1
aI0
aI0
aI1
aI1
aI1
aI1
aI0
aI2322900
aS'_4504638024'
p948
aa(lp949
I1
aI1
aI1
aI1
aI0
aI0
aI1
aI1
aI1
aI1
aI1
aI2649333
aS'_4504638024'
p950
aa(lp951
I1
aI1
aI1
aI1
aI0
aI0
aI1
aI1
aI1
aI1
aI0
aI2525800
aS'_4504638024'
p952
aaaa(lp953
S'_4504637736'
p954
a(lp955
(lp956
I1
aI1
aI0
aI1
aI1
aI1
aI0
aI1
aI1
aI0
aI1
aI2490466
ag954
aa(lp957
I1
aI1
aI0
aI1
aI1
aI1
aI0
aI1
aI0
aI0
aI1
aI2528933
aS'_4504637736'
p958
aa(lp959
I1
aI1
aI0
aI1
aI0
aI1
aI1
aI1
aI0
aI0
aI1
aI2505666
aS'_4504637736'
p960
aa(lp961
I1
aI1
aI0
aI1
aI1
aI1
aI1
aI0
aI0
aI0
aI1
aI2404300
aS'_4504637736'
p962
aa(lp963
I1
aI1
aI0
aI0
aI1
aI1
aI1
aI1
aI1
aI0
aI1
aI2534700
aS'_4504637736'
p964
aa(lp965
I1
aI1
aI0
aI1
aI1
aI1
aI0
aI1
aI0
aI1
aI1
aI2465033
aS'_4504637736'
p966
aa(lp967
I1
aI1
aI0
aI1
aI1
aI1
aI1
aI1
aI0
aI0
aI1
aI2382733
aS'_4504637736'
p968
aa(lp969
I1
aI0
aI0
aI1
aI1
aI1
aI0
aI1
aI0
aI1
aI1
aI2607700
aS'_4504637736'
p970
aa(lp971
I1
aI0
aI0
aI1
aI1
aI1
aI1
aI1
aI0
aI0
aI1
aI2630433
aS'_4504637736'
p972
aa(lp973
I1
aI1
aI1
aI1
aI1
aI1
aI0
aI1
aI0
aI1
aI1
aI2606933
aS'_4504637736'
p974
aa(lp975
I1
aI0
aI1
aI1
aI1
aI1
aI0
aI1
aI0
aI0
aI1
aI2506133
aS'_4504637736'
p976
aa(lp977
I1
aI1
aI0
aI0
aI1
aI1
aI0
aI1
aI0
aI1
aI1
aI2355733
aS'_4504637736'
p978
aa(lp979
I1
aI1
aI0
aI0
aI1
aI1
aI1
aI1
aI1
aI1
aI1
aI2526233
aS'_4504637736'
p980
aa(lp981
I1
aI1
aI0
aI1
aI1
aI0
aI1
aI1
aI0
aI0
aI1
aI2495633
aS'_4504637736'
p982
aa(lp983
I1
aI1
aI0
aI0
aI0
aI1
aI1
aI1
aI0
aI0
aI0
aI2274433
aS'_4504637736'
p984
aa(lp985
I1
aI0
aI0
aI1
aI0
aI1
aI1
aI0
aI0
aI0
aI1
aI2656900
aS'_4504637736'
p986
aaaa(lp987
S'_4526477040'
p988
a(lp989
(lp990
I1
aI0
aI1
aI0
aI0
aI1
aI0
aI0
aI1
aI0
aI0
aI2199666
ag988
aa(lp991
I1
aI1
aI0
aI1
aI0
aI1
aI0
aI0
aI1
aI0
aI1
aI2502600
aS'_4526477040'
p992
aa(lp993
I1
aI0
aI1
aI0
aI1
aI1
aI0
aI0
aI1
aI1
aI0
aI2208033
aS'_4526477040'
p994
aa(lp995
I1
aI0
aI0
aI1
aI1
aI1
aI0
aI0
aI1
aI1
aI0
aI2157333
aS'_4526477040'
p996
aa(lp997
I1
aI0
aI0
aI0
aI1
aI1
aI1
aI0
aI1
aI1
aI0
aI2049600
aS'_4526477040'
p998
aa(lp999
I1
aI1
aI0
aI1
aI1
aI1
aI0
aI0
aI1
aI1
aI1
aI2502300
aS'_4526477040'
p1000
aa(lp1001
I1
aI0
aI0
aI0
aI1
aI1
aI1
aI0
aI1
aI1
aI1
aI2168733
aS'_4526477040'
p1002
aa(lp1003
I1
aI0
aI1
aI0
aI0
aI1
aI0
aI0
aI1
aI1
aI0
aI2203866
aS'_4526477040'
p1004
aa(lp1005
I1
aI0
aI0
aI1
aI1
aI1
aI0
aI0
aI0
aI1
aI0
aI2105066
aS'_4526477040'
p1006
aa(lp1007
I1
aI0
aI0
aI0
aI0
aI1
aI0
aI0
aI1
aI0
aI1
aI2142833
aS'_4526477040'
p1008
aa(lp1009
I1
aI1
aI0
aI0
aI0
aI0
aI0
aI0
aI1
aI1
aI1
aI2321800
aS'_4526477040'
p1010
aa(lp1011
I1
aI0
aI0
aI0
aI1
aI1
aI0
aI0
aI0
aI1
aI1
aI2142433
aS'_4526477040'
p1012
aa(lp1013
I1
aI0
aI0
aI0
aI0
aI1
aI1
aI0
aI1
aI1
aI1
aI2162300
aS'_4526477040'
p1014
aa(lp1015
I1
aI0
aI1
aI0
aI0
aI1
aI0
aI0
aI1
aI1
aI1
aI2334300
aS'_4526477040'
p1016
aa(lp1017
I1
aI0
aI0
aI0
aI0
aI0
aI0
aI0
aI1
aI1
aI1
aI2156066
aS'_4526477040'
p1018
aa(lp1019
I1
aI0
aI0
aI0
aI0
aI0
aI0
aI0
aI0
aI1
aI1
aI2124466
aS'_4526477040'
p1020
aaaa(lp1021
S'_4504640040'
p1022
a(lp1023
(lp1024
I1
aI0
aI0
aI1
aI0
aI1
aI1
aI1
aI1
aI0
aI1
aI2635700
ag1022
aa(lp1025
I1
aI0
aI0
aI1
aI0
aI0
aI1
aI1
aI1
aI1
aI1
aI2646400
aS'_4504640040'
p1026
aa(lp1027
I1
aI0
aI0
aI1
aI0
aI0
aI1
aI1
aI0
aI0
aI1
aI2593933
aS'_4504640040'
p1028
aa(lp1029
I1
aI0
aI0
aI1
aI0
aI1
aI1
aI0
aI1
aI0
aI1
aI2610766
aS'_4504640040'
p1030
aa(lp1031
I1
aI0
aI1
aI1
aI0
aI1
aI1
aI0
aI1
aI1
aI1
aI2512966
aS'_4504640040'
p1032
aa(lp1033
I1
aI0
aI0
aI1
aI1
aI1
aI1
aI1
aI1
aI1
aI1
aI2665400
aS'_4504640040'
p1034
aa(lp1035
I1
aI1
aI0
aI1
aI0
aI1
aI1
aI1
aI1
aI0
aI0
aI2370366
aS'_4504640040'
p1036
aa(lp1037
I1
aI0
aI0
aI1
aI0
aI1
aI1
aI0
aI1
aI1
aI1
aI2654000
aS'_4504640040'
p1038
aa(lp1039
I1
aI1
aI0
aI1
aI0
aI1
aI1
aI1
aI0
aI0
aI0
aI2376900
aS'_4504640040'
p1040
aa(lp1041
I1
aI0
aI0
aI1
aI1
aI1
aI1
aI1
aI1
aI1
aI0
aI2186233
aS'_4504640040'
p1042
aa(lp1043
I1
aI0
aI0
aI1
aI0
aI1
aI1
aI0
aI0
aI0
aI0
aI2172366
aS'_4504640040'
p1044
aa(lp1045
I1
aI1
aI0
aI1
aI0
aI1
aI0
aI1
aI1
aI0
aI0
aI2400500
aS'_4504640040'
p1046
aa(lp1047
I1
aI1
aI0
aI1
aI0
aI1
aI1
aI1
aI0
aI1
aI1
aI2480633
aS'_4504640040'
p1048
aa(lp1049
I1
aI0
aI1
aI1
aI0
aI0
aI0
aI1
aI1
aI1
aI0
aI2271533
aS'_4504640040'
p1050
aa(lp1051
I1
aI0
aI1
aI1
aI0
aI1
aI1
aI0
aI1
aI1
aI0
aI2307733
aS'_4504640040'
p1052
aa(lp1053
I1
aI0
aI0
aI1
aI1
aI0
aI1
aI1
aI0
aI1
aI1
aI2608233
aS'_4504640040'
p1054
aaaa(lp1055
S'_4526406616'
p1056
a(lp1057
(lp1058
I1
aI1
aI0
aI1
aI0
aI0
aI0
aI1
aI1
aI0
aI1
aI2438066
ag1056
aa(lp1059
I1
aI0
aI0
aI1
aI1
aI1
aI0
aI1
aI0
aI1
aI0
aI2114800
aS'_4526406616'
p1060
aa(lp1061
I1
aI0
aI0
aI1
aI0
aI1
aI0
aI1
aI1
aI0
aI0
aI2109966
aS'_4526406616'
p1062
aa(lp1063
I1
aI0
aI0
aI0
aI1
aI1
aI0
aI1
aI1
aI0
aI0
aI2042933
aS'_4526406616'
p1064
aa(lp1065
I1
aI0
aI0
aI1
aI1
aI1
aI0
aI1
aI0
aI0
aI0
aI2127133
aS'_4526406616'
p1066
aa(lp1067
I1
aI0
aI0
aI0
aI1
aI0
aI0
aI0
aI1
aI0
aI0
aI2015466
aS'_4526406616'
p1068
aa(lp1069
I1
aI0
aI0
aI0
aI1
aI1
aI0
aI1
aI0
aI0
aI0
aI2029366
aS'_4526406616'
p1070
aa(lp1071
I1
aI0
aI0
aI1
aI0
aI0
aI0
aI0
aI0
aI0
aI0
aI2089199
aS'_4526406616'
p1072
aa(lp1073
I1
aI0
aI0
aI1
aI0
aI0
aI0
aI1
aI0
aI0
aI1
aI2469566
aS'_4526406616'
p1074
aa(lp1075
I1
aI1
aI0
aI1
aI1
aI0
aI0
aI1
aI0
aI0
aI0
aI2395633
aS'_4526406616'
p1076
aa(lp1077
I1
aI0
aI1
aI1
aI0
aI0
aI0
aI0
aI0
aI0
aI0
aI2249500
aS'_4526406616'
p1078
aa(lp1079
I1
aI1
aI1
aI1
aI0
aI0
aI0
aI1
aI1
aI0
aI0
aI2453166
aS'_4526406616'
p1080
aa(lp1081
I1
aI1
aI0
aI1
aI0
aI0
aI0
aI1
aI1
aI0
aI0
aI2310366
aS'_4526406616'
p1082
aa(lp1083
I1
aI0
aI0
aI1
aI0
aI0
aI0
aI1
aI0
aI0
aI0
aI2131833
aS'_4526406616'
p1084
aa(lp1085
I1
aI0
aI1
aI1
aI0
aI0
aI0
aI1
aI0
aI0
aI0
aI2292766
aS'_4526406616'
p1086
aa(lp1087
I1
aI0
aI0
aI0
aI0
aI0
aI0
aI1
aI0
aI0
aI0
aI2040533
aS'_4526406616'
p1088
aaaa.