(lp0
(lp1
S'_4435372440'
p2
a(lp3
(lp4
I1
aI0
aI0
aI0
aI0
aI0
aI1
aI0
aI0
aI11100000
ag2
aa(lp5
I1
aI0
aI0
aI0
aI0
aI0
aI0
aI0
aI0
aI12000000
aS'_4435372440'
p6
aa(lp7
I1
aI0
aI1
aI1
aI0
aI0
aI0
aI0
aI0
aI22200000
aS'_4435372440'
p8
aa(lp9
I1
aI0
aI1
aI0
aI0
aI0
aI0
aI1
aI0
aI24900000
aS'_4435372440'
p10
aaaa(lp11
S'_4435373808'
p12
a(lp13
(lp14
I1
aI0
aI1
aI1
aI0
aI0
aI1
aI1
aI0
aI23100000
ag12
aa(lp15
I1
aI0
aI0
aI1
aI0
aI0
aI1
aI1
aI0
aI13200000
aS'_4435373808'
p16
aa(lp17
I1
aI0
aI1
aI1
aI1
aI0
aI1
aI1
aI0
aI24300000
aS'_4435373808'
p18
aaaa(lp19
S'_4435373304'
p20
a(lp21
(lp22
I1
aI1
aI0
aI1
aI1
aI0
aI1
aI1
aI0
aI10800000
ag20
aa(lp23
I1
aI0
aI0
aI1
aI1
aI1
aI1
aI1
aI0
aI12300000
aS'_4435373304'
p24
aa(lp25
I1
aI0
aI0
aI1
aI0
aI1
aI0
aI1
aI0
aI12600000
aS'_4435373304'
p26
aa(lp27
I1
aI0
aI0
aI0
aI1
aI0
aI0
aI1
aI0
aI14100000
aS'_4435373304'
p28
aaaa(lp29
S'_4435373088'
p30
a(lp31
(lp32
I1
aI0
aI1
aI0
aI0
aI0
aI0
aI0
aI1
aI12000000
ag30
aa(lp33
I1
aI0
aI0
aI0
aI0
aI0
aI0
aI0
aI1
aI12300000
aS'_4435373088'
p34
aa(lp35
I1
aI0
aI0
aI0
aI1
aI0
aI1
aI0
aI1
aI12000000
aS'_4435373088'
p36
aaaa(lp37
S'_4435499488'
p38
a(lp39
(lp40
I1
aI1
aI1
aI1
aI0
aI1
aI0
aI0
aI0
aI18900000
ag38
aa(lp41
I1
aI0
aI0
aI1
aI1
aI0
aI0
aI0
aI1
aI12000000
aS'_4435499488'
p42
aa(lp43
I1
aI0
aI1
aI1
aI1
aI1
aI0
aI0
aI1
aI12000000
aS'_4435499488'
p44
aa(lp45
I1
aI1
aI1
aI1
aI1
aI0
aI0
aI0
aI1
aI10500000
aS'_4435499488'
p46
aaaa(lp47
S'_4472584744'
p48
a(lp49
(lp50
I1
aI1
aI0
aI0
aI1
aI1
aI0
aI1
aI0
aI10200000
ag48
aa(lp51
I1
aI1
aI0
aI1
aI1
aI1
aI1
aI1
aI0
aI9900000
aS'_4472584744'
p52
aa(lp53
I1
aI1
aI0
aI1
aI1
aI1
aI0
aI0
aI0
aI9600000
aS'_4472584744'
p54
aaaa(lp55
S'_4472583808'
p56
a(lp57
(lp58
I1
aI1
aI0
aI0
aI1
aI0
aI1
aI0
aI0
aI9300000
ag56
aa(lp59
I1
aI1
aI0
aI0
aI0
aI0
aI1
aI0
aI0
aI9000000
aS'_4472583808'
p60
aa(lp61
I1
aI1
aI0
aI0
aI1
aI1
aI0
aI0
aI0
aI9000000
aS'_4472583808'
p62
aaaa(lp63
S'_4435372584'
p64
a(lp65
(lp66
I1
aI1
aI0
aI0
aI0
aI1
aI0
aI0
aI0
aI9000000
ag64
aa(lp67
I1
aI1
aI0
aI0
aI0
aI0
aI0
aI0
aI0
aI9900000
aS'_4435372584'
p68
aa(lp69
I1
aI1
aI1
aI0
aI0
aI1
aI0
aI0
aI0
aI17100000
aS'_4435372584'
p70
aaaa(lp71
S'_4435373160'
p72
a(lp73
(lp74
I1
aI1
aI1
aI1
aI1
aI0
aI0
aI1
aI0
aI23400000
ag72
aa(lp75
I1
aI0
aI1
aI1
aI1
aI1
aI0
aI1
aI0
aI21900000
aS'_4435373160'
p76
aa(lp77
I1
aI1
aI0
aI0
aI1
aI0
aI0
aI1
aI0
aI11400000
aS'_4435373160'
p78
aa(lp79
I1
aI0
aI0
aI1
aI1
aI0
aI0
aI1
aI0
aI14700000
aS'_4435373160'
p80
aaaa(lp81
S'_4435499848'
p82
a(lp83
(lp84
I1
aI0
aI0
aI1
aI0
aI0
aI0
aI0
aI0
aI13200000
ag82
aa(lp85
I1
aI0
aI1
aI1
aI0
aI1
aI0
aI0
aI0
aI19800000
aS'_4435499848'
p86
aa(lp87
I1
aI0
aI0
aI1
aI1
aI1
aI0
aI0
aI1
aI11400000
aS'_4435499848'
p88
aa(lp89
I1
aI1
aI0
aI1
aI0
aI1
aI0
aI0
aI1
aI9300000
aS'_4435499848'
p90
aaaa(lp91
S'_4435373376'
p92
a(lp93
(lp94
I1
aI1
aI1
aI1
aI1
aI1
aI1
aI1
aI0
aI18600000
ag92
aa(lp95
I1
aI0
aI1
aI1
aI1
aI1
aI1
aI0
aI0
aI18900000
aS'_4435373376'
p96
aa(lp97
I1
aI1
aI1
aI0
aI1
aI0
aI1
aI1
aI0
aI21900000
aS'_4435373376'
p98
aa(lp99
I1
aI1
aI1
aI1
aI1
aI0
aI0
aI0
aI0
aI22200000
aS'_4435373376'
p100
aaaa(lp101
S'_4435497328'
p102
a(lp103
(lp104
I1
aI0
aI1
aI1
aI1
aI0
aI0
aI0
aI0
aI23700000
ag102
aa(lp105
I1
aI0
aI1
aI0
aI1
aI0
aI0
aI1
aI0
aI24000000
aS'_4435497328'
p106
aa(lp107
I1
aI1
aI1
aI0
aI1
aI0
aI0
aI0
aI1
aI13200000
aS'_4435497328'
p108
aa(lp109
I1
aI1
aI0
aI0
aI1
aI0
aI0
aI0
aI0
aI9600000
aS'_4435497328'
p110
aaaa(lp111
S'_4435373448'
p112
a(lp113
(lp114
I1
aI1
aI1
aI0
aI0
aI0
aI1
aI0
aI0
aI18300000
ag112
aa(lp115
I1
aI1
aI1
aI0
aI0
aI1
aI1
aI0
aI1
aI11400000
aS'_4435373448'
p116
aa(lp117
I1
aI1
aI1
aI0
aI0
aI0
aI1
aI0
aI1
aI10200000
aS'_4435373448'
p118
aa(lp119
I1
aI1
aI1
aI0
aI1
aI0
aI1
aI0
aI1
aI11700000
aS'_4435373448'
p120
aaaa(lp121
S'_4435374024'
p122
a(lp123
(lp124
I1
aI0
aI1
aI0
aI0
aI1
aI1
aI0
aI0
aI16800000
ag122
aa(lp125
I1
aI1
aI1
aI0
aI0
aI1
aI0
aI0
aI1
aI12000000
aS'_4435374024'
p126
aa(lp127
I1
aI0
aI1
aI0
aI1
aI0
aI0
aI0
aI0
aI21000000
aS'_4435374024'
p128
aaaa(lp129
S'_4472583520'
p130
a(lp131
(lp132
I1
aI0
aI0
aI1
aI0
aI0
aI1
aI0
aI0
aI12300000
ag130
aa(lp133
I1
aI0
aI1
aI0
aI1
aI1
aI1
aI0
aI0
aI17400000
aS'_4472583520'
p134
aa(lp135
I1
aI1
aI1
aI1
aI1
aI1
aI1
aI0
aI1
aI8700000
aS'_4472583520'
p136
aa(lp137
I1
aI0
aI1
aI1
aI1
aI1
aI1
aI0
aI1
aI11700000
aS'_4472583520'
p138
aaaa(lp139
S'_4472582584'
p140
a(lp141
(lp142
I1
aI1
aI0
aI0
aI0
aI1
aI1
aI0
aI1
aI8700000
ag140
aa(lp143
I1
aI1
aI1
aI0
aI0
aI1
aI1
aI0
aI0
aI16200000
aS'_4472582584'
p144
aa(lp145
I1
aI1
aI0
aI0
aI1
aI1
aI1
aI1
aI0
aI9600000
aS'_4472582584'
p146
aa(lp147
I1
aI1
aI0
aI1
aI0
aI1
aI1
aI1
aI0
aI9600000
aS'_4472582584'
p148
aaaa.